
arch/arm/mach-sunxi/pm/standby/resume1.elf:     file format elf32-littlearm


Disassembly of section .text:

00000000 <__resume1_start>:
       0:	ea00000a 	b	30 <_start>
       4:	4e4f4765 	cdpmi	7, 4, cr4, cr15, cr5, {3}
       8:	3054422e 	subscc	r4, r4, lr, lsr #4
       c:	5f0a6c39 	svcpl	0x000a6c39
      10:	00000400 	andeq	r0, r0, r0, lsl #8
      14:	00000030 	andeq	r0, r0, r0, lsr r0
      18:	30303131 	eorscc	r3, r0, r1, lsr r1
      1c:	30333231 	eorscc	r3, r3, r1, lsr r2
      20:	30333231 	eorscc	r3, r3, r1, lsr r2
      24:	30303131 	eorscc	r3, r0, r1, lsr r1
	...

00000030 <_start>:
      30:	e10f0000 	mrs	r0, CPSR
      34:	e3c0001f 	bic	r0, r0, #31
      38:	e3800013 	orr	r0, r0, #19
      3c:	e38000c0 	orr	r0, r0, #192	; 0xc0
      40:	e3c00c02 	bic	r0, r0, #512	; 0x200
      44:	e121f000 	msr	CPSR_c, r0
      48:	ee110f10 	mrc	15, 0, r0, cr1, cr0, {0}
      4c:	e3c00005 	bic	r0, r0, #5
      50:	e3c00b06 	bic	r0, r0, #6144	; 0x1800
      54:	e3c00002 	bic	r0, r0, #2
      58:	ee010f10 	mcr	15, 0, r0, cr1, cr0, {0}
      5c:	f57ff04f 	dsb	sy
      60:	f57ff06f 	isb	sy
      64:	e59f0068 	ldr	r0, [pc, #104]	; d4 <config_end+0x28>
      68:	e5901000 	ldr	r1, [r0]
      6c:	e3811902 	orr	r1, r1, #32768	; 0x8000
      70:	e5801000 	str	r1, [r0]
      74:	e5901000 	ldr	r1, [r0]
      78:	e1a02821 	lsr	r2, r1, #16
      7c:	e59f3054 	ldr	r3, [pc, #84]	; d8 <config_end+0x2c>
      80:	e1520003 	cmp	r2, r3
      84:	0a000004 	beq	9c <config_61>

00000088 <config_50>:
      88:	e59f004c 	ldr	r0, [pc, #76]	; dc <config_end+0x30>
      8c:	e5901000 	ldr	r1, [r0]
      90:	e3811b06 	orr	r1, r1, #6144	; 0x1800
      94:	e5801000 	str	r1, [r0]
      98:	ea000003 	b	ac <config_end>

0000009c <config_61>:
      9c:	e59f0038 	ldr	r0, [pc, #56]	; dc <config_end+0x30>
      a0:	e5901000 	ldr	r1, [r0]
      a4:	e38110c0 	orr	r1, r1, #192	; 0xc0
      a8:	e5801000 	str	r1, [r0]

000000ac <config_end>:
      ac:	ee100fb0 	mrc	15, 0, r0, cr0, cr0, {5}
      b0:	e7e10050 	ubfx	r0, r0, #0, #2
      b4:	e2800001 	add	r0, r0, #1
      b8:	e1a00400 	lsl	r0, r0, #8
      bc:	e280db0f 	add	sp, r0, #15360	; 0x3c00
      c0:	f57ff04f 	dsb	sy
      c4:	f57ff06f 	isb	sy
      c8:	eb00006c 	bl	280 <set_pll>
      cc:	eb000018 	bl	134 <resume1_c_part>
      d0:	eafffffe 	b	d0 <config_end+0x24>
      d4:	01c00024 	biceq	r0, r0, r4, lsr #32
      d8:	00001661 	andeq	r1, r0, r1, ror #12
      dc:	01c00044 	biceq	r0, r0, r4, asr #32

000000e0 <mem_memcpy>:
      e0:	e2822003 	add	r2, r2, #3
      e4:	e1a02142 	asr	r2, r2, #2
      e8:	e3520000 	cmp	r2, #0
      ec:	d12fff1e 	bxle	lr
      f0:	e2400004 	sub	r0, r0, #4
      f4:	e0812102 	add	r2, r1, r2, lsl #2
      f8:	e4913004 	ldr	r3, [r1], #4
      fc:	e1510002 	cmp	r1, r2
     100:	e5a03004 	str	r3, [r0, #4]!
     104:	1afffffb 	bne	f8 <mem_memcpy+0x18>
     108:	e12fff1e 	bx	lr

0000010c <mem_delay>:
     10c:	e92d000f 	push	{r0, r1, r2, r3}
     110:	e3a01011 	mov	r1, #17
     114:	e1a03000 	mov	r3, r0

00000118 <loop2>:
     118:	e2500001 	subs	r0, r0, #1
     11c:	8afffffd 	bhi	118 <loop2>
     120:	e1a00003 	mov	r0, r3
     124:	e2511001 	subs	r1, r1, #1
     128:	8afffffa 	bhi	118 <loop2>
     12c:	e8bd000f 	pop	{r0, r1, r2, r3}
     130:	e1a0f00e 	mov	pc, lr

00000134 <resume1_c_part>:
     134:	e92d4070 	push	{r4, r5, r6, lr}
     138:	e3a00047 	mov	r0, #71	; 0x47
     13c:	eb0000db 	bl	4b0 <save_mem_status_nommu>
     140:	e3024f90 	movw	r4, #12176	; 0x2f90
     144:	eb0004d1 	bl	1490 <set_copro_default>
     148:	e3a00048 	mov	r0, #72	; 0x48
     14c:	e3404000 	movt	r4, #0
     150:	eb0000d6 	bl	4b0 <save_mem_status_nommu>
     154:	e2840054 	add	r0, r4, #84	; 0x54
     158:	eb0009ee 	bl	2918 <mem_clk_setdiv>
     15c:	e2840080 	add	r0, r4, #128	; 0x80
     160:	eb000a1d 	bl	29dc <mem_clk_set_pll_factor>
     164:	eb00011f 	bl	5e8 <change_runtime_env>
     168:	e5940018 	ldr	r0, [r4, #24]
     16c:	eb00014e 	bl	6ac <delay_ms>
     170:	e5943014 	ldr	r3, [r4, #20]
     174:	e3130002 	tst	r3, #2
     178:	1a000016 	bne	1d8 <resume1_c_part+0xa4>
     17c:	e3a00049 	mov	r0, #73	; 0x49
     180:	e3025f90 	movw	r5, #12176	; 0x2f90
     184:	eb0000c9 	bl	4b0 <save_mem_status_nommu>
     188:	e59f00e8 	ldr	r0, [pc, #232]	; 278 <resume1_c_part+0x144>
     18c:	eb00019d 	bl	808 <restore_mmu_state>
     190:	e3a0004a 	mov	r0, #74	; 0x4a
     194:	eb0000a9 	bl	440 <save_mem_status>
     198:	e3a0004b 	mov	r0, #75	; 0x4b
     19c:	eb0000a7 	bl	440 <save_mem_status>
     1a0:	e3405000 	movt	r5, #0
     1a4:	eb000258 	bl	b0c <mem_flush_tlb>
     1a8:	e3a00001 	mov	r0, #1
     1ac:	eb0009ad 	bl	2868 <mem_clk_init>
     1b0:	e5943014 	ldr	r3, [r4, #20]
     1b4:	e3130002 	tst	r3, #2
     1b8:	1a00000a 	bne	1e8 <resume1_c_part+0xb4>
     1bc:	e3a0004e 	mov	r0, #78	; 0x4e
     1c0:	eb00009e 	bl	440 <save_mem_status>
     1c4:	e59f10b0 	ldr	r1, [pc, #176]	; 27c <resume1_c_part+0x148>
     1c8:	e511001c 	ldr	r0, [r1, #-28]	; 0xffffffe4
     1cc:	eb0002bf 	bl	cd0 <jump_to_resume>
     1d0:	e3a00000 	mov	r0, #0
     1d4:	e8bd8070 	pop	{r4, r5, r6, pc}
     1d8:	e3020c28 	movw	r0, #11304	; 0x2c28
     1dc:	e3400000 	movt	r0, #0
     1e0:	eb00053d 	bl	16dc <serial_puts_nommu>
     1e4:	eaffffe4 	b	17c <resume1_c_part+0x48>
     1e8:	e3020c4c 	movw	r0, #11340	; 0x2c4c
     1ec:	e3400000 	movt	r0, #0
     1f0:	eb0005bc 	bl	18e8 <serial_puts>
     1f4:	eb0001a5 	bl	890 <get_cur_cluster_id>
     1f8:	e1a01000 	mov	r1, r0
     1fc:	e3020c7c 	movw	r0, #11388	; 0x2c7c
     200:	e3400000 	movt	r0, #0
     204:	eb00069c 	bl	1c7c <printk>
     208:	e3020c98 	movw	r0, #11416	; 0x2c98
     20c:	e5951014 	ldr	r1, [r5, #20]
     210:	e3400000 	movt	r0, #0
     214:	eb000698 	bl	1c7c <printk>
     218:	e3020cbc 	movw	r0, #11452	; 0x2cbc
     21c:	e3400000 	movt	r0, #0
     220:	e5951018 	ldr	r1, [r5, #24]
     224:	eb000694 	bl	1c7c <printk>
     228:	e5953014 	ldr	r3, [r5, #20]
     22c:	e3130008 	tst	r3, #8
     230:	e3a03000 	mov	r3, #0
     234:	0a000007 	beq	258 <resume1_c_part+0x124>
     238:	e34f31c2 	movt	r3, #61890	; 0xf1c2
     23c:	e30018b4 	movw	r1, #2228	; 0x8b4
     240:	e3020cec 	movw	r0, #11500	; 0x2cec
     244:	e59328b4 	ldr	r2, [r3, #2228]	; 0x8b4
     248:	e34f11c2 	movt	r1, #61890	; 0xf1c2
     24c:	e3400000 	movt	r0, #0
     250:	eb000689 	bl	1c7c <printk>
     254:	eaffffd8 	b	1bc <resume1_c_part+0x88>
     258:	e34f31c2 	movt	r3, #61890	; 0xf1c2
     25c:	e3a01b02 	mov	r1, #2048	; 0x800
     260:	e3020d04 	movw	r0, #11524	; 0x2d04
     264:	e5932800 	ldr	r2, [r3, #2048]	; 0x800
     268:	e34f11c2 	movt	r1, #61890	; 0xf1c2
     26c:	e3400000 	movt	r0, #0
     270:	eb000681 	bl	1c7c <printk>
     274:	eaffffd0 	b	1bc <resume1_c_part+0x88>
     278:	00003018 	andeq	r3, r0, r8, lsl r0
     27c:	00002fac 	andeq	r2, r0, ip, lsr #31

00000280 <set_pll>:
     280:	e92d4070 	push	{r4, r5, r6, lr}
     284:	ee102fb0 	mrc	15, 0, r2, cr0, cr0, {5}
     288:	e2122003 	ands	r2, r2, #3
     28c:	1a00003a 	bne	37c <set_pll+0xfc>
     290:	e302cda8 	movw	ip, #11688	; 0x2da8
     294:	e303117c 	movw	r1, #12668	; 0x317c
     298:	e340c000 	movt	ip, #0
     29c:	e3401000 	movt	r1, #0
     2a0:	e59c3000 	ldr	r3, [ip]
     2a4:	e4832004 	str	r2, [r3], #4
     2a8:	e1530001 	cmp	r3, r1
     2ac:	9afffffc 	bls	2a4 <set_pll+0x24>
     2b0:	e3a00000 	mov	r0, #0
     2b4:	e58c3000 	str	r3, [ip]
     2b8:	eb00096a 	bl	2868 <mem_clk_init>
     2bc:	e3025f90 	movw	r5, #12176	; 0x2f90
     2c0:	e3405000 	movt	r5, #0
     2c4:	e1a04000 	mov	r4, r0
     2c8:	eb000052 	bl	418 <mem_status_init_nommu>
     2cc:	e3a00020 	mov	r0, #32
     2d0:	eb000076 	bl	4b0 <save_mem_status_nommu>
     2d4:	e3a01000 	mov	r1, #0
     2d8:	e3a03801 	mov	r3, #65536	; 0x10000
     2dc:	e1a00005 	mov	r0, r5
     2e0:	e5843050 	str	r3, [r4, #80]	; 0x50
     2e4:	e3441308 	movt	r1, #17160	; 0x4308
     2e8:	e3a020d0 	mov	r2, #208	; 0xd0
     2ec:	ebffff7b 	bl	e0 <mem_memcpy>
     2f0:	e3a00021 	mov	r0, #33	; 0x21
     2f4:	eb00006d 	bl	4b0 <save_mem_status_nommu>
     2f8:	e5953014 	ldr	r3, [r5, #20]
     2fc:	e3130004 	tst	r3, #4
     300:	1a00002e 	bne	3c0 <set_pll+0x140>
     304:	e59f00dc 	ldr	r0, [pc, #220]	; 3e8 <set_pll+0x168>
     308:	eb0009e2 	bl	2a98 <mem_clk_set_misc>
     30c:	e3a00023 	mov	r0, #35	; 0x23
     310:	eb000066 	bl	4b0 <save_mem_status_nommu>
     314:	e3a03a01 	mov	r3, #4096	; 0x1000
     318:	e3483000 	movt	r3, #32768	; 0x8000
     31c:	e3a00024 	mov	r0, #36	; 0x24
     320:	e5843000 	str	r3, [r4]
     324:	eb000061 	bl	4b0 <save_mem_status_nommu>
     328:	e3a01000 	mov	r1, #0
     32c:	e3a00001 	mov	r0, #1
     330:	eb00008b 	bl	564 <init_perfcounters>
     334:	eb0000ab 	bl	5e8 <change_runtime_env>
     338:	e3a0000a 	mov	r0, #10
     33c:	eb0000da 	bl	6ac <delay_ms>
     340:	e5950014 	ldr	r0, [r5, #20]
     344:	e3100002 	tst	r0, #2
     348:	1a000016 	bne	3a8 <set_pll+0x128>
     34c:	e3a00026 	mov	r0, #38	; 0x26
     350:	eb000056 	bl	4b0 <save_mem_status_nommu>
     354:	e5943050 	ldr	r3, [r4, #80]	; 0x50
     358:	e3a00027 	mov	r0, #39	; 0x27
     35c:	e3c33803 	bic	r3, r3, #196608	; 0x30000
     360:	e3833802 	orr	r3, r3, #131072	; 0x20000
     364:	e5843050 	str	r3, [r4, #80]	; 0x50
     368:	eb000050 	bl	4b0 <save_mem_status_nommu>
     36c:	eb00009d 	bl	5e8 <change_runtime_env>
     370:	e3a00064 	mov	r0, #100	; 0x64
     374:	e8bd4070 	pop	{r4, r5, r6, lr}
     378:	ea0000a6 	b	618 <delay_us>
     37c:	e3a03000 	mov	r3, #0
     380:	ee083f33 	mcr	15, 0, r3, cr8, cr3, {1}
     384:	f57ff04f 	dsb	sy
     388:	e282271f 	add	r2, r2, #8126464	; 0x7c0000
     38c:	e3a030ff 	mov	r3, #255	; 0xff
     390:	e2822041 	add	r2, r2, #65	; 0x41
     394:	e1a02102 	lsl	r2, r2, #2
     398:	e5823000 	str	r3, [r2]
     39c:	f57ff04f 	dsb	sy
     3a0:	e320f004 	sev
     3a4:	eaffffe8 	b	34c <set_pll+0xcc>
     3a8:	e2000008 	and	r0, r0, #8
     3ac:	eb0004a2 	bl	163c <serial_init_nommu>
     3b0:	e3020d1c 	movw	r0, #11548	; 0x2d1c
     3b4:	e3400000 	movt	r0, #0
     3b8:	eb0004c7 	bl	16dc <serial_puts_nommu>
     3bc:	eaffffe2 	b	34c <set_pll+0xcc>
     3c0:	e3130008 	tst	r3, #8
     3c4:	e3a03000 	mov	r3, #0
     3c8:	13032033 	movwne	r2, #12339	; 0x3033
     3cc:	134031c2 	movtne	r3, #450	; 0x1c2
     3d0:	034031c2 	movteq	r3, #450	; 0x1c2
     3d4:	13402030 	movtne	r2, #48	; 0x30
     3d8:	03032333 	movweq	r2, #13107	; 0x3333
     3dc:	158328b4 	strne	r2, [r3, #2228]	; 0x8b4
     3e0:	05832800 	streq	r2, [r3, #2048]	; 0x800
     3e4:	eaffffc6 	b	304 <set_pll+0x84>
     3e8:	00002fec 	andeq	r2, r0, ip, ror #31

000003ec <busy_waiting>:
     3ec:	e24dd008 	sub	sp, sp, #8
     3f0:	e3a03001 	mov	r3, #1
     3f4:	e58d3004 	str	r3, [sp, #4]
     3f8:	e59d3004 	ldr	r3, [sp, #4]
     3fc:	e3530001 	cmp	r3, #1
     400:	0afffffc 	beq	3f8 <busy_waiting+0xc>
     404:	e28dd008 	add	sp, sp, #8
     408:	e12fff1e 	bx	lr

0000040c <save_mem_flag>:
     40c:	e12fff1e 	bx	lr

00000410 <clear_mem_flag>:
     410:	e12fff1e 	bx	lr

00000414 <mem_status_init>:
     414:	e12fff1e 	bx	lr

00000418 <mem_status_init_nommu>:
     418:	e12fff1e 	bx	lr

0000041c <mem_status_clear>:
     41c:	e3a03000 	mov	r3, #0
     420:	e1a02003 	mov	r2, r3
     424:	e34f31f0 	movt	r3, #61936	; 0xf1f0
     428:	e5832100 	str	r2, [r3, #256]	; 0x100
     42c:	e5832104 	str	r2, [r3, #260]	; 0x104
     430:	e5832108 	str	r2, [r3, #264]	; 0x108
     434:	e583210c 	str	r2, [r3, #268]	; 0x10c
     438:	e12fff1e 	bx	lr

0000043c <mem_status_exit>:
     43c:	e12fff1e 	bx	lr

00000440 <save_mem_status>:
     440:	e24dd008 	sub	sp, sp, #8
     444:	e3a03000 	mov	r3, #0
     448:	e34f31f0 	movt	r3, #61936	; 0xf1f0
     44c:	e58d0004 	str	r0, [sp, #4]
     450:	e59d2004 	ldr	r2, [sp, #4]
     454:	e5832104 	str	r2, [r3, #260]	; 0x104
     458:	f57ff04f 	dsb	sy
     45c:	f57ff06f 	isb	sy
     460:	e28dd008 	add	sp, sp, #8
     464:	e12fff1e 	bx	lr

00000468 <get_mem_status>:
     468:	e3a03000 	mov	r3, #0
     46c:	e34f31f0 	movt	r3, #61936	; 0xf1f0
     470:	e5930104 	ldr	r0, [r3, #260]	; 0x104
     474:	e12fff1e 	bx	lr

00000478 <show_mem_status>:
     478:	e92d4070 	push	{r4, r5, r6, lr}
     47c:	e3a04c01 	mov	r4, #256	; 0x100
     480:	e3a05e11 	mov	r5, #272	; 0x110
     484:	e34f41f0 	movt	r4, #61936	; 0xf1f0
     488:	e34f51f0 	movt	r5, #61936	; 0xf1f0
     48c:	e3020d30 	movw	r0, #11568	; 0x2d30
     490:	e5942000 	ldr	r2, [r4]
     494:	e1a01004 	mov	r1, r4
     498:	e3400000 	movt	r0, #0
     49c:	e2844004 	add	r4, r4, #4
     4a0:	eb0005f5 	bl	1c7c <printk>
     4a4:	e1540005 	cmp	r4, r5
     4a8:	1afffff7 	bne	48c <show_mem_status+0x14>
     4ac:	e8bd8070 	pop	{r4, r5, r6, pc}

000004b0 <save_mem_status_nommu>:
     4b0:	e24dd008 	sub	sp, sp, #8
     4b4:	e3a0361f 	mov	r3, #32505856	; 0x1f00000
     4b8:	e58d0004 	str	r0, [sp, #4]
     4bc:	e59d2004 	ldr	r2, [sp, #4]
     4c0:	e5832104 	str	r2, [r3, #260]	; 0x104
     4c4:	e28dd008 	add	sp, sp, #8
     4c8:	e12fff1e 	bx	lr

000004cc <save_cpux_mem_status_nommu>:
     4cc:	e24dd008 	sub	sp, sp, #8
     4d0:	e3a0361f 	mov	r3, #32505856	; 0x1f00000
     4d4:	e58d0004 	str	r0, [sp, #4]
     4d8:	e59d2004 	ldr	r2, [sp, #4]
     4dc:	e5832100 	str	r2, [r3, #256]	; 0x100
     4e0:	e28dd008 	add	sp, sp, #8
     4e4:	e12fff1e 	bx	lr

000004e8 <io_init>:
     4e8:	e3a03000 	mov	r3, #0
     4ec:	e3012111 	movw	r2, #4369	; 0x1111
     4f0:	e34f31c2 	movt	r3, #61890	; 0xf1c2
     4f4:	e3402011 	movt	r2, #17
     4f8:	e5832890 	str	r2, [r3, #2192]	; 0x890
     4fc:	e12fff1e 	bx	lr

00000500 <io_init_high>:
     500:	e3a03000 	mov	r3, #0
     504:	e34f31c2 	movt	r3, #61890	; 0xf1c2
     508:	e59328a0 	ldr	r2, [r3, #2208]	; 0x8a0
     50c:	e382203f 	orr	r2, r2, #63	; 0x3f
     510:	e58328a0 	str	r2, [r3, #2208]	; 0x8a0
     514:	e12fff1e 	bx	lr

00000518 <io_init_low>:
     518:	e3a03000 	mov	r3, #0
     51c:	e34f31c2 	movt	r3, #61890	; 0xf1c2
     520:	e59328a0 	ldr	r2, [r3, #2208]	; 0x8a0
     524:	e3c2203f 	bic	r2, r2, #63	; 0x3f
     528:	e58328a0 	str	r2, [r3, #2208]	; 0x8a0
     52c:	e12fff1e 	bx	lr

00000530 <io_high>:
     530:	e92d4070 	push	{r4, r5, r6, lr}
     534:	e3a05000 	mov	r5, #0
     538:	e34f51c2 	movt	r5, #61890	; 0xf1c2
     53c:	e3a04001 	mov	r4, #1
     540:	e1a06014 	lsl	r6, r4, r0
     544:	e59548a0 	ldr	r4, [r5, #2208]	; 0x8a0
     548:	e3020710 	movw	r0, #10000	; 0x2710
     54c:	e1c44006 	bic	r4, r4, r6
     550:	e58548a0 	str	r4, [r5, #2208]	; 0x8a0
     554:	eb00002f 	bl	618 <delay_us>
     558:	e1864004 	orr	r4, r6, r4
     55c:	e58548a0 	str	r4, [r5, #2208]	; 0x8a0
     560:	e8bd8070 	pop	{r4, r5, r6, pc}

00000564 <init_perfcounters>:
     564:	e3500000 	cmp	r0, #0
     568:	13a03007 	movne	r3, #7
     56c:	03a03001 	moveq	r3, #1
     570:	e3510000 	cmp	r1, #0
     574:	13833008 	orrne	r3, r3, #8
     578:	e3833010 	orr	r3, r3, #16
     57c:	ee093f1c 	mcr	15, 0, r3, cr9, cr12, {0}
     580:	e3a0313e 	mov	r3, #-2147483633	; 0x8000000f
     584:	ee093f3c 	mcr	15, 0, r3, cr9, cr12, {1}
     588:	ee093f7c 	mcr	15, 0, r3, cr9, cr12, {3}
     58c:	f57ff04f 	dsb	sy
     590:	f57ff06f 	isb	sy
     594:	e12fff1e 	bx	lr

00000598 <backup_perfcounter>:
     598:	ee192f1c 	mrc	15, 0, r2, cr9, cr12, {0}
     59c:	e3023db0 	movw	r3, #11696	; 0x2db0
     5a0:	e3403000 	movt	r3, #0
     5a4:	e5832000 	str	r2, [r3]
     5a8:	ee192f3c 	mrc	15, 0, r2, cr9, cr12, {1}
     5ac:	e5832004 	str	r2, [r3, #4]
     5b0:	e12fff1e 	bx	lr

000005b4 <restore_perfcounter>:
     5b4:	e3023db0 	movw	r3, #11696	; 0x2db0
     5b8:	e3403000 	movt	r3, #0
     5bc:	e5932000 	ldr	r2, [r3]
     5c0:	ee092f1c 	mcr	15, 0, r2, cr9, cr12, {0}
     5c4:	e5933004 	ldr	r3, [r3, #4]
     5c8:	ee093f3c 	mcr	15, 0, r3, cr9, cr12, {1}
     5cc:	e12fff1e 	bx	lr

000005d0 <get_cyclecount>:
     5d0:	ee190f1d 	mrc	15, 0, r0, cr9, cr13, {0}
     5d4:	e12fff1e 	bx	lr

000005d8 <reset_counter>:
     5d8:	ee193f1c 	mrc	15, 0, r3, cr9, cr12, {0}
     5dc:	e3833004 	orr	r3, r3, #4
     5e0:	ee093f1c 	mcr	15, 0, r3, cr9, cr12, {0}
     5e4:	e12fff1e 	bx	lr

000005e8 <change_runtime_env>:
     5e8:	e92d4010 	push	{r4, lr}
     5ec:	ee193f1d 	mrc	15, 0, r3, cr9, cr13, {0}
     5f0:	ee192f1d 	mrc	15, 0, r2, cr9, cr13, {0}
     5f4:	e3024db0 	movw	r4, #11696	; 0x2db0
     5f8:	e1530002 	cmp	r3, r2
     5fc:	82422001 	subhi	r2, r2, #1
     600:	e3404000 	movt	r4, #0
     604:	e0633002 	rsb	r3, r3, r2
     608:	e5843008 	str	r3, [r4, #8]
     60c:	eb00095f 	bl	2b90 <mem_clk_get_cpu_freq>
     610:	e584000c 	str	r0, [r4, #12]
     614:	e8bd8010 	pop	{r4, pc}

00000618 <delay_us>:
     618:	e92d4070 	push	{r4, r5, r6, lr}
     61c:	e3025db0 	movw	r5, #11696	; 0x2db0
     620:	e3405000 	movt	r5, #0
     624:	e595300c 	ldr	r3, [r5, #12]
     628:	e3530ffa 	cmp	r3, #1000	; 0x3e8
     62c:	8a000002 	bhi	63c <delay_us+0x24>
     630:	f57ff05f 	dmb	sy
     634:	f57ff06f 	isb	sy
     638:	e8bd8070 	pop	{r4, r5, r6, pc}
     63c:	e1a04000 	mov	r4, r0
     640:	e3a01ffa 	mov	r1, #1000	; 0x3e8
     644:	e1a00003 	mov	r0, r3
     648:	eb000783 	bl	245c <raw_lib_udiv>
     64c:	ee193f1d 	mrc	15, 0, r3, cr9, cr13, {0}
     650:	e0204490 	mla	r0, r0, r4, r4
     654:	e5952008 	ldr	r2, [r5, #8]
     658:	e0622003 	rsb	r2, r2, r3
     65c:	e0800002 	add	r0, r0, r2
     660:	ee192f3c 	mrc	15, 0, r2, cr9, cr12, {1}
     664:	e202213e 	and	r2, r2, #-2147483633	; 0x8000000f
     668:	e352013e 	cmp	r2, #-2147483633	; 0x8000000f
     66c:	0a000006 	beq	68c <delay_us+0x74>
     670:	e3a02017 	mov	r2, #23
     674:	ee092f1c 	mcr	15, 0, r2, cr9, cr12, {0}
     678:	e3a0213e 	mov	r2, #-2147483633	; 0x8000000f
     67c:	ee092f3c 	mcr	15, 0, r2, cr9, cr12, {1}
     680:	ee092f7c 	mcr	15, 0, r2, cr9, cr12, {3}
     684:	f57ff04f 	dsb	sy
     688:	f57ff06f 	isb	sy
     68c:	e0603003 	rsb	r3, r0, r3
     690:	e3530000 	cmp	r3, #0
     694:	aaffffe5 	bge	630 <delay_us+0x18>
     698:	ee193f1d 	mrc	15, 0, r3, cr9, cr13, {0}
     69c:	e0603003 	rsb	r3, r0, r3
     6a0:	e3530000 	cmp	r3, #0
     6a4:	bafffffb 	blt	698 <delay_us+0x80>
     6a8:	eaffffe0 	b	630 <delay_us+0x18>

000006ac <delay_ms>:
     6ac:	e350000a 	cmp	r0, #10
     6b0:	e92d4010 	push	{r4, lr}
     6b4:	e1a04000 	mov	r4, r0
     6b8:	9a000004 	bls	6d0 <delay_ms+0x24>
     6bc:	e244400a 	sub	r4, r4, #10
     6c0:	e3020710 	movw	r0, #10000	; 0x2710
     6c4:	ebffffd3 	bl	618 <delay_us>
     6c8:	e354000a 	cmp	r4, #10
     6cc:	8afffffa 	bhi	6bc <delay_ms+0x10>
     6d0:	e3a00ffa 	mov	r0, #1000	; 0x3e8
     6d4:	e0000490 	mul	r0, r0, r4
     6d8:	e8bd4010 	pop	{r4, lr}
     6dc:	eaffffcd 	b	618 <delay_us>

000006e0 <init_event_counter>:
     6e0:	e3500000 	cmp	r0, #0
     6e4:	13a03007 	movne	r3, #7
     6e8:	03a03001 	moveq	r3, #1
     6ec:	e3510000 	cmp	r1, #0
     6f0:	13833008 	orrne	r3, r3, #8
     6f4:	e3833010 	orr	r3, r3, #16
     6f8:	ee093f1c 	mcr	15, 0, r3, cr9, cr12, {0}
     6fc:	e3a0313e 	mov	r3, #-2147483633	; 0x8000000f
     700:	ee093f3c 	mcr	15, 0, r3, cr9, cr12, {1}
     704:	ee093f7c 	mcr	15, 0, r3, cr9, cr12, {3}
     708:	e12fff1e 	bx	lr

0000070c <set_event_counter>:
     70c:	e2403002 	sub	r3, r0, #2
     710:	e3530003 	cmp	r3, #3
     714:	93022c0c 	movwls	r2, #11276	; 0x2c0c
     718:	83a03000 	movhi	r3, #0
     71c:	93402000 	movtls	r2, #0
     720:	97923103 	ldrls	r3, [r2, r3, lsl #2]
     724:	ee093fbc 	mcr	15, 0, r3, cr9, cr12, {5}
     728:	ee090f3d 	mcr	15, 0, r0, cr9, cr13, {1}
     72c:	f57ff04f 	dsb	sy
     730:	f57ff06f 	isb	sy
     734:	e12fff1e 	bx	lr

00000738 <get_event_counter>:
     738:	e2400002 	sub	r0, r0, #2
     73c:	e3500003 	cmp	r0, #3
     740:	93023c0c 	movwls	r3, #11276	; 0x2c0c
     744:	83a03000 	movhi	r3, #0
     748:	93403000 	movtls	r3, #0
     74c:	97933100 	ldrls	r3, [r3, r0, lsl #2]
     750:	ee093fbc 	mcr	15, 0, r3, cr9, cr12, {5}
     754:	ee190f5d 	mrc	15, 0, r0, cr9, cr13, {2}
     758:	f57ff04f 	dsb	sy
     75c:	f57ff06f 	isb	sy
     760:	e12fff1e 	bx	lr
	...

00000780 <save_mmu_state>:
     780:	ee503f10 	mrc	15, 2, r3, cr0, cr0, {0}
     784:	e5803000 	str	r3, [r0]
     788:	ee113f50 	mrc	15, 0, r3, cr1, cr0, {2}
     78c:	e5803008 	str	r3, [r0, #8]
     790:	ee133f10 	mrc	15, 0, r3, cr3, cr0, {0}
     794:	e5803018 	str	r3, [r0, #24]
     798:	ee123f10 	mrc	15, 0, r3, cr2, cr0, {0}
     79c:	e580300c 	str	r3, [r0, #12]
     7a0:	ee123f30 	mrc	15, 0, r3, cr2, cr0, {1}
     7a4:	e5803010 	str	r3, [r0, #16]
     7a8:	ee123f50 	mrc	15, 0, r3, cr2, cr0, {2}
     7ac:	e5803014 	str	r3, [r0, #20]
     7b0:	ee113f10 	mrc	15, 0, r3, cr1, cr0, {0}
     7b4:	e5803004 	str	r3, [r0, #4]
     7b8:	e12fff1e 	bx	lr

000007bc <restore_secure_mmu_state>:
     7bc:	e5903000 	ldr	r3, [r0]
     7c0:	ee403f10 	mcr	15, 2, r3, cr0, cr0, {0}
     7c4:	e5903008 	ldr	r3, [r0, #8]
     7c8:	ee013f50 	mcr	15, 0, r3, cr1, cr0, {2}
     7cc:	e5903018 	ldr	r3, [r0, #24]
     7d0:	ee033f10 	mcr	15, 0, r3, cr3, cr0, {0}
     7d4:	e590300c 	ldr	r3, [r0, #12]
     7d8:	ee023f10 	mcr	15, 0, r3, cr2, cr0, {0}
     7dc:	e5903010 	ldr	r3, [r0, #16]
     7e0:	ee023f30 	mcr	15, 0, r3, cr2, cr0, {1}
     7e4:	e5903014 	ldr	r3, [r0, #20]
     7e8:	ee023f50 	mcr	15, 0, r3, cr2, cr0, {2}
     7ec:	e5903004 	ldr	r3, [r0, #4]
     7f0:	ee013f10 	mcr	15, 0, r3, cr1, cr0, {0}
     7f4:	ee103f10 	mrc	15, 0, r3, cr0, cr0, {0}
     7f8:	e1a03003 	mov	r3, r3
     7fc:	e1a03003 	mov	r3, r3
     800:	f57ff06f 	isb	sy
     804:	e12fff1e 	bx	lr

00000808 <restore_mmu_state>:
     808:	e5903000 	ldr	r3, [r0]
     80c:	ee403f10 	mcr	15, 2, r3, cr0, cr0, {0}
     810:	e5903008 	ldr	r3, [r0, #8]
     814:	ee013f50 	mcr	15, 0, r3, cr1, cr0, {2}
     818:	e5903018 	ldr	r3, [r0, #24]
     81c:	ee033f10 	mcr	15, 0, r3, cr3, cr0, {0}
     820:	e5903010 	ldr	r3, [r0, #16]
     824:	ee023f10 	mcr	15, 0, r3, cr2, cr0, {0}
     828:	ee023f30 	mcr	15, 0, r3, cr2, cr0, {1}
     82c:	e5903014 	ldr	r3, [r0, #20]
     830:	ee023f50 	mcr	15, 0, r3, cr2, cr0, {2}
     834:	ea000001 	b	840 <__turn_mmu_on>
     838:	e320f000 	nop	{0}
     83c:	e320f000 	nop	{0}

00000840 <__turn_mmu_on>:
     840:	e1a00000 	nop			; (mov r0, r0)
     844:	e5903004 	ldr	r3, [r0, #4]
     848:	ee013f10 	mcr	15, 0, r3, cr1, cr0, {0}
     84c:	ee103f10 	mrc	15, 0, r3, cr0, cr0, {0}
     850:	e1a03003 	mov	r3, r3
     854:	e1a03003 	mov	r3, r3
     858:	f57ff06f 	isb	sy
     85c:	e12fff1e 	bx	lr

00000860 <save_sp>:
     860:	e1a0000d 	mov	r0, sp
     864:	e59fd4bc 	ldr	sp, [pc, #1212]	; d28 <jump_to_resume0_nommu+0x28>
     868:	e1a0f00e 	mov	pc, lr

0000086c <save_sp_nommu>:
     86c:	e1a0000d 	mov	r0, sp
     870:	e59fd4b4 	ldr	sp, [pc, #1204]	; d2c <jump_to_resume0_nommu+0x2c>
     874:	e1a0f00e 	mov	pc, lr

00000878 <restore_sp>:
     878:	e1a0d000 	mov	sp, r0
     87c:	e1a0f00e 	mov	pc, lr

00000880 <get_sp>:
     880:	e1a0000d 	mov	r0, sp
     884:	e1a0f00e 	mov	pc, lr
     888:	e320f000 	nop	{0}
     88c:	e320f000 	nop	{0}

00000890 <get_cur_cluster_id>:
     890:	ee100fb0 	mrc	15, 0, r0, cr0, cr0, {5}
     894:	e7e30450 	ubfx	r0, r0, #8, #4
     898:	e1a0f00e 	mov	pc, lr
     89c:	e320f000 	nop	{0}

000008a0 <invalidate_dcache>:
     8a0:	f57ff05f 	dmb	sy
     8a4:	ee300f30 	mrc	15, 1, r0, cr0, cr0, {1}
     8a8:	e2103407 	ands	r3, r0, #117440512	; 0x7000000
     8ac:	e1a03ba3 	lsr	r3, r3, #23
     8b0:	0a00001a 	beq	920 <inv_finished>
     8b4:	e3a0a000 	mov	sl, #0

000008b8 <inv_loop1>:
     8b8:	e08a20aa 	add	r2, sl, sl, lsr #1
     8bc:	e1a01230 	lsr	r1, r0, r2
     8c0:	e2011007 	and	r1, r1, #7
     8c4:	e3510002 	cmp	r1, #2
     8c8:	ba000011 	blt	914 <inv_skip>
     8cc:	ee40af10 	mcr	15, 2, sl, cr0, cr0, {0}
     8d0:	f57ff06f 	isb	sy
     8d4:	ee301f10 	mrc	15, 1, r1, cr0, cr0, {0}
     8d8:	e2012007 	and	r2, r1, #7
     8dc:	e2822004 	add	r2, r2, #4
     8e0:	e59f4448 	ldr	r4, [pc, #1096]	; d30 <jump_to_resume0_nommu+0x30>
     8e4:	e01441a1 	ands	r4, r4, r1, lsr #3
     8e8:	e16f5f14 	clz	r5, r4
     8ec:	e59f7440 	ldr	r7, [pc, #1088]	; d34 <jump_to_resume0_nommu+0x34>
     8f0:	e01776a1 	ands	r7, r7, r1, lsr #13

000008f4 <inv_loop2>:
     8f4:	e1a09004 	mov	r9, r4

000008f8 <inv_loop3>:
     8f8:	e18ab519 	orr	fp, sl, r9, lsl r5
     8fc:	e18bb217 	orr	fp, fp, r7, lsl r2
     900:	ee07bf56 	mcr	15, 0, fp, cr7, cr6, {2}
     904:	e2599001 	subs	r9, r9, #1
     908:	aafffffa 	bge	8f8 <inv_loop3>
     90c:	e2577001 	subs	r7, r7, #1
     910:	aafffff7 	bge	8f4 <inv_loop2>

00000914 <inv_skip>:
     914:	e28aa002 	add	sl, sl, #2
     918:	e153000a 	cmp	r3, sl
     91c:	caffffe5 	bgt	8b8 <inv_loop1>

00000920 <inv_finished>:
     920:	e3a0a000 	mov	sl, #0
     924:	ee40af10 	mcr	15, 2, sl, cr0, cr0, {0}
     928:	f57ff04f 	dsb	sy
     92c:	f57ff06f 	isb	sy
     930:	e1a0f00e 	mov	pc, lr

00000934 <invalidate_icache>:
     934:	e3a00000 	mov	r0, #0
     938:	ee070f11 	mcr	15, 0, r0, cr7, cr1, {0}
     93c:	ee070f15 	mcr	15, 0, r0, cr7, cr5, {0}
     940:	f57ff04f 	dsb	sy
     944:	f57ff06f 	isb	sy
     948:	e1a0f00e 	mov	pc, lr

0000094c <flush_dcache>:
     94c:	e92d1fff 	push	{r0, r1, r2, r3, r4, r5, r6, r7, r8, r9, sl, fp, ip}
     950:	f57ff05f 	dmb	sy
     954:	ee300f30 	mrc	15, 1, r0, cr0, cr0, {1}
     958:	e2103407 	ands	r3, r0, #117440512	; 0x7000000
     95c:	e1a03ba3 	lsr	r3, r3, #23
     960:	0a00001a 	beq	9d0 <finished>
     964:	e3a0a000 	mov	sl, #0

00000968 <loop1>:
     968:	e08a20aa 	add	r2, sl, sl, lsr #1
     96c:	e1a01230 	lsr	r1, r0, r2
     970:	e2011007 	and	r1, r1, #7
     974:	e3510002 	cmp	r1, #2
     978:	ba000011 	blt	9c4 <skip>
     97c:	ee40af10 	mcr	15, 2, sl, cr0, cr0, {0}
     980:	f57ff06f 	isb	sy
     984:	ee301f10 	mrc	15, 1, r1, cr0, cr0, {0}
     988:	e2012007 	and	r2, r1, #7
     98c:	e2822004 	add	r2, r2, #4
     990:	e59f4398 	ldr	r4, [pc, #920]	; d30 <jump_to_resume0_nommu+0x30>
     994:	e01441a1 	ands	r4, r4, r1, lsr #3
     998:	e16f5f14 	clz	r5, r4
     99c:	e59f7390 	ldr	r7, [pc, #912]	; d34 <jump_to_resume0_nommu+0x34>
     9a0:	e01776a1 	ands	r7, r7, r1, lsr #13

000009a4 <loop2>:
     9a4:	e1a09004 	mov	r9, r4

000009a8 <loop3>:
     9a8:	e18ab519 	orr	fp, sl, r9, lsl r5
     9ac:	e18bb217 	orr	fp, fp, r7, lsl r2
     9b0:	ee07bf5e 	mcr	15, 0, fp, cr7, cr14, {2}
     9b4:	e2599001 	subs	r9, r9, #1
     9b8:	aafffffa 	bge	9a8 <loop3>
     9bc:	e2577001 	subs	r7, r7, #1
     9c0:	aafffff7 	bge	9a4 <loop2>

000009c4 <skip>:
     9c4:	e28aa002 	add	sl, sl, #2
     9c8:	e153000a 	cmp	r3, sl
     9cc:	caffffe5 	bgt	968 <loop1>

000009d0 <finished>:
     9d0:	e3a0a000 	mov	sl, #0
     9d4:	ee40af10 	mcr	15, 2, sl, cr0, cr0, {0}
     9d8:	f57ff04f 	dsb	sy
     9dc:	f57ff06f 	isb	sy
     9e0:	e8bd1fff 	pop	{r0, r1, r2, r3, r4, r5, r6, r7, r8, r9, sl, fp, ip}
     9e4:	e1a0f00e 	mov	pc, lr

000009e8 <flush_icache>:
     9e8:	e92d000f 	push	{r0, r1, r2, r3}
     9ec:	e3a00000 	mov	r0, #0
     9f0:	ee070f15 	mcr	15, 0, r0, cr7, cr5, {0}
     9f4:	ee070f11 	mcr	15, 0, r0, cr7, cr1, {0}
     9f8:	ee070fd1 	mcr	15, 0, r0, cr7, cr1, {6}
     9fc:	f57ff06f 	isb	sy
     a00:	f57ff04f 	dsb	sy
     a04:	e8bd000f 	pop	{r0, r1, r2, r3}
     a08:	e1a0f00e 	mov	pc, lr

00000a0c <disable_cache>:
     a0c:	e92d000f 	push	{r0, r1, r2, r3}
     a10:	ee110f10 	mrc	15, 0, r0, cr1, cr0, {0}
     a14:	e3c00a01 	bic	r0, r0, #4096	; 0x1000
     a18:	e3c00004 	bic	r0, r0, #4
     a1c:	ee010f10 	mcr	15, 0, r0, cr1, cr0, {0}
     a20:	f57ff06f 	isb	sy
     a24:	e8bd000f 	pop	{r0, r1, r2, r3}
     a28:	e1a0f00e 	mov	pc, lr

00000a2c <disable_dcache>:
     a2c:	e92d000f 	push	{r0, r1, r2, r3}
     a30:	ee110f10 	mrc	15, 0, r0, cr1, cr0, {0}
     a34:	e3c00004 	bic	r0, r0, #4
     a38:	ee010f10 	mcr	15, 0, r0, cr1, cr0, {0}
     a3c:	f57ff06f 	isb	sy
     a40:	e8bd000f 	pop	{r0, r1, r2, r3}
     a44:	e1a0f00e 	mov	pc, lr

00000a48 <disable_icache>:
     a48:	e92d000f 	push	{r0, r1, r2, r3}
     a4c:	ee110f10 	mrc	15, 0, r0, cr1, cr0, {0}
     a50:	e3c00a01 	bic	r0, r0, #4096	; 0x1000
     a54:	ee010f10 	mcr	15, 0, r0, cr1, cr0, {0}
     a58:	f57ff06f 	isb	sy
     a5c:	e8bd000f 	pop	{r0, r1, r2, r3}
     a60:	e1a0f00e 	mov	pc, lr

00000a64 <disable_l2cache>:
     a64:	e92d000f 	push	{r0, r1, r2, r3}
     a68:	ee110f30 	mrc	15, 0, r0, cr1, cr0, {1}
     a6c:	e3c00002 	bic	r0, r0, #2
     a70:	ee010f30 	mcr	15, 0, r0, cr1, cr0, {1}
     a74:	f57ff06f 	isb	sy
     a78:	e8bd000f 	pop	{r0, r1, r2, r3}
     a7c:	e1a0f00e 	mov	pc, lr

00000a80 <enable_cache>:
     a80:	e92d000f 	push	{r0, r1, r2, r3}
     a84:	ee110f10 	mrc	15, 0, r0, cr1, cr0, {0}
     a88:	e3800a01 	orr	r0, r0, #4096	; 0x1000
     a8c:	e3800004 	orr	r0, r0, #4
     a90:	ee010f10 	mcr	15, 0, r0, cr1, cr0, {0}
     a94:	f57ff06f 	isb	sy
     a98:	e8bd000f 	pop	{r0, r1, r2, r3}
     a9c:	e1a0f00e 	mov	pc, lr

00000aa0 <enable_icache>:
     aa0:	e92d000f 	push	{r0, r1, r2, r3}
     aa4:	ee110f10 	mrc	15, 0, r0, cr1, cr0, {0}
     aa8:	e3800a01 	orr	r0, r0, #4096	; 0x1000
     aac:	ee010f10 	mcr	15, 0, r0, cr1, cr0, {0}
     ab0:	f57ff06f 	isb	sy
     ab4:	e8bd000f 	pop	{r0, r1, r2, r3}
     ab8:	e1a0f00e 	mov	pc, lr

00000abc <invalidate_branch_predictor>:
     abc:	e92d000f 	push	{r0, r1, r2, r3}
     ac0:	e3a00000 	mov	r0, #0
     ac4:	ee070fd5 	mcr	15, 0, r0, cr7, cr5, {6}
     ac8:	f57ff06f 	isb	sy
     acc:	e8bd000f 	pop	{r0, r1, r2, r3}
     ad0:	e1a0f00e 	mov	pc, lr

00000ad4 <disable_program_flow_prediction>:
     ad4:	e92d000f 	push	{r0, r1, r2, r3}
     ad8:	ee110f10 	mrc	15, 0, r0, cr1, cr0, {0}
     adc:	e3c00b02 	bic	r0, r0, #2048	; 0x800
     ae0:	ee010f10 	mcr	15, 0, r0, cr1, cr0, {0}
     ae4:	f57ff06f 	isb	sy
     ae8:	e8bd000f 	pop	{r0, r1, r2, r3}
     aec:	e1a0f00e 	mov	pc, lr

00000af0 <enable_program_flow_prediction>:
     af0:	e92d000f 	push	{r0, r1, r2, r3}
     af4:	ee110f10 	mrc	15, 0, r0, cr1, cr0, {0}
     af8:	e3800b02 	orr	r0, r0, #2048	; 0x800
     afc:	ee010f10 	mcr	15, 0, r0, cr1, cr0, {0}
     b00:	f57ff06f 	isb	sy
     b04:	e8bd000f 	pop	{r0, r1, r2, r3}
     b08:	e1a0f00e 	mov	pc, lr

00000b0c <mem_flush_tlb>:
     b0c:	e92d000f 	push	{r0, r1, r2, r3}
     b10:	e3a00000 	mov	r0, #0
     b14:	ee080f15 	mcr	15, 0, r0, cr8, cr5, {0}
     b18:	ee080f16 	mcr	15, 0, r0, cr8, cr6, {0}
     b1c:	ee080f13 	mcr	15, 0, r0, cr8, cr3, {0}
     b20:	f57ff04f 	dsb	sy
     b24:	f57ff06f 	isb	sy
     b28:	e8bd000f 	pop	{r0, r1, r2, r3}
     b2c:	e1a0f00e 	mov	pc, lr

00000b30 <mem_preload_tlb>:
     b30:	e92d000f 	push	{r0, r1, r2, r3}
     b34:	e3a0020f 	mov	r0, #-268435456	; 0xf0000000
     b38:	e5901000 	ldr	r1, [r0]
     b3c:	e59f01f4 	ldr	r0, [pc, #500]	; d38 <jump_to_resume0_nommu+0x38>
     b40:	e5901000 	ldr	r1, [r0]
     b44:	e59f01f0 	ldr	r0, [pc, #496]	; d3c <jump_to_resume0_nommu+0x3c>
     b48:	e5901000 	ldr	r1, [r0]
     b4c:	e59f01ec 	ldr	r0, [pc, #492]	; d40 <jump_to_resume0_nommu+0x40>
     b50:	e5901000 	ldr	r1, [r0]
     b54:	e59f01e8 	ldr	r0, [pc, #488]	; d44 <jump_to_resume0_nommu+0x44>
     b58:	e5901000 	ldr	r1, [r0]
     b5c:	e59f01e4 	ldr	r0, [pc, #484]	; d48 <jump_to_resume0_nommu+0x48>
     b60:	e5901000 	ldr	r1, [r0]
     b64:	e59f01e0 	ldr	r0, [pc, #480]	; d4c <jump_to_resume0_nommu+0x4c>
     b68:	e5901000 	ldr	r1, [r0]
     b6c:	e59f01dc 	ldr	r0, [pc, #476]	; d50 <jump_to_resume0_nommu+0x50>
     b70:	e5901000 	ldr	r1, [r0]
     b74:	e59f01d8 	ldr	r0, [pc, #472]	; d54 <jump_to_resume0_nommu+0x54>
     b78:	e5901000 	ldr	r1, [r0]
     b7c:	e59f01d4 	ldr	r0, [pc, #468]	; d58 <jump_to_resume0_nommu+0x58>
     b80:	e5901000 	ldr	r1, [r0]
     b84:	e59f01d0 	ldr	r0, [pc, #464]	; d5c <jump_to_resume0_nommu+0x5c>
     b88:	e5901000 	ldr	r1, [r0]
     b8c:	e59f01cc 	ldr	r0, [pc, #460]	; d60 <jump_to_resume0_nommu+0x60>
     b90:	e5901000 	ldr	r1, [r0]
     b94:	e59f01c8 	ldr	r0, [pc, #456]	; d64 <jump_to_resume0_nommu+0x64>
     b98:	e5901000 	ldr	r1, [r0]
     b9c:	e59f01c4 	ldr	r0, [pc, #452]	; d68 <jump_to_resume0_nommu+0x68>
     ba0:	e5901000 	ldr	r1, [r0]
     ba4:	e59f01c0 	ldr	r0, [pc, #448]	; d6c <jump_to_resume0_nommu+0x6c>
     ba8:	e5901000 	ldr	r1, [r0]
     bac:	e59f01bc 	ldr	r0, [pc, #444]	; d70 <jump_to_resume0_nommu+0x70>
     bb0:	e5901000 	ldr	r1, [r0]
     bb4:	e59f01b8 	ldr	r0, [pc, #440]	; d74 <jump_to_resume0_nommu+0x74>
     bb8:	e5901000 	ldr	r1, [r0]
     bbc:	e59f01b4 	ldr	r0, [pc, #436]	; d78 <jump_to_resume0_nommu+0x78>
     bc0:	e5901000 	ldr	r1, [r0]
     bc4:	e59f01b0 	ldr	r0, [pc, #432]	; d7c <jump_to_resume0_nommu+0x7c>
     bc8:	e5901000 	ldr	r1, [r0]
     bcc:	e59f01ac 	ldr	r0, [pc, #428]	; d80 <jump_to_resume0_nommu+0x80>
     bd0:	e5901000 	ldr	r1, [r0]
     bd4:	e59f01a8 	ldr	r0, [pc, #424]	; d84 <jump_to_resume0_nommu+0x84>
     bd8:	e5901000 	ldr	r1, [r0]
     bdc:	e59f01a4 	ldr	r0, [pc, #420]	; d88 <jump_to_resume0_nommu+0x88>
     be0:	e5901000 	ldr	r1, [r0]
     be4:	e59f01a0 	ldr	r0, [pc, #416]	; d8c <jump_to_resume0_nommu+0x8c>
     be8:	e5901000 	ldr	r1, [r0]
     bec:	e59f019c 	ldr	r0, [pc, #412]	; d90 <jump_to_resume0_nommu+0x90>
     bf0:	e5901000 	ldr	r1, [r0]
     bf4:	e59f0198 	ldr	r0, [pc, #408]	; d94 <jump_to_resume0_nommu+0x94>
     bf8:	e5901000 	ldr	r1, [r0]
     bfc:	e59f0194 	ldr	r0, [pc, #404]	; d98 <jump_to_resume0_nommu+0x98>
     c00:	e5901000 	ldr	r1, [r0]
     c04:	e59f0190 	ldr	r0, [pc, #400]	; d9c <jump_to_resume0_nommu+0x9c>
     c08:	e5901000 	ldr	r1, [r0]
     c0c:	e59f018c 	ldr	r0, [pc, #396]	; da0 <jump_to_resume0_nommu+0xa0>
     c10:	e5901000 	ldr	r1, [r0]
     c14:	e59f0188 	ldr	r0, [pc, #392]	; da4 <jump_to_resume0_nommu+0xa4>
     c18:	e5901000 	ldr	r1, [r0]
     c1c:	e59f0184 	ldr	r0, [pc, #388]	; da8 <jump_to_resume0_nommu+0xa8>
     c20:	e5901000 	ldr	r1, [r0]
     c24:	e59f0180 	ldr	r0, [pc, #384]	; dac <jump_to_resume0_nommu+0xac>
     c28:	e5901000 	ldr	r1, [r0]
     c2c:	f57ff04f 	dsb	sy
     c30:	f57ff06f 	isb	sy
     c34:	e8bd000f 	pop	{r0, r1, r2, r3}
     c38:	e1a0f00e 	mov	pc, lr

00000c3c <disable_mmu>:
     c3c:	ee111f10 	mrc	15, 0, r1, cr1, cr0, {0}
     c40:	e3c11a01 	bic	r1, r1, #4096	; 0x1000
     c44:	e3c11005 	bic	r1, r1, #5
     c48:	ea000004 	b	c60 <__turn_mmu_off>
     c4c:	e320f000 	nop	{0}
     c50:	e320f000 	nop	{0}
     c54:	e320f000 	nop	{0}
     c58:	e320f000 	nop	{0}
     c5c:	e320f000 	nop	{0}

00000c60 <__turn_mmu_off>:
     c60:	ee011f10 	mcr	15, 0, r1, cr1, cr0, {0}
     c64:	ee103f10 	mrc	15, 0, r3, cr0, cr0, {0}
     c68:	e1a03003 	mov	r3, r3
     c6c:	e1a03003 	mov	r3, r3
     c70:	e1a0f00e 	mov	pc, lr

00000c74 <enable_mmu>:
     c74:	ee111f10 	mrc	15, 0, r1, cr1, cr0, {0}
     c78:	e3811a01 	orr	r1, r1, #4096	; 0x1000
     c7c:	e3811005 	orr	r1, r1, #5
     c80:	ea000006 	b	ca0 <__turn_mmu_on>
     c84:	e320f000 	nop	{0}
     c88:	e320f000 	nop	{0}
     c8c:	e320f000 	nop	{0}
     c90:	e320f000 	nop	{0}
     c94:	e320f000 	nop	{0}
     c98:	e320f000 	nop	{0}
     c9c:	e320f000 	nop	{0}

00000ca0 <__turn_mmu_on>:
     ca0:	ee011f10 	mcr	15, 0, r1, cr1, cr0, {0}
     ca4:	ee103f10 	mrc	15, 0, r3, cr0, cr0, {0}
     ca8:	e1a03003 	mov	r3, r3
     cac:	e1a03003 	mov	r3, r3
     cb0:	e1a0f00e 	mov	pc, lr

00000cb4 <jump_to_suspend>:
     cb4:	ee020f10 	mcr	15, 0, r0, cr2, cr0, {0}
     cb8:	f57ff04f 	dsb	sy
     cbc:	f57ff06f 	isb	sy
     cc0:	e1a0f001 	mov	pc, r1
     cc4:	e320f000 	nop	{0}
     cc8:	e320f000 	nop	{0}
     ccc:	e320f000 	nop	{0}

00000cd0 <jump_to_resume>:
     cd0:	e1a0c000 	mov	ip, r0
     cd4:	e1a08001 	mov	r8, r1
     cd8:	ebfffef0 	bl	8a0 <invalidate_dcache>
     cdc:	e1a01008 	mov	r1, r8
     ce0:	e1a0e00c 	mov	lr, ip
     ce4:	e8913fff 	ldm	r1, {r0, r1, r2, r3, r4, r5, r6, r7, r8, r9, sl, fp, ip, sp}
     ce8:	e1a0f00e 	mov	pc, lr
     cec:	e320f000 	nop	{0}

00000cf0 <jump_to_resume0>:
     cf0:	e1a0e000 	mov	lr, r0
     cf4:	e1a0f00e 	mov	pc, lr
     cf8:	e320f000 	nop	{0}
     cfc:	e320f000 	nop	{0}

00000d00 <jump_to_resume0_nommu>:
     d00:	ee111f10 	mrc	15, 0, r1, cr1, cr0, {0}
     d04:	e3c11a01 	bic	r1, r1, #4096	; 0x1000
     d08:	e3c11007 	bic	r1, r1, #7
     d0c:	ee011f10 	mcr	15, 0, r1, cr1, cr0, {0}
     d10:	ee103f10 	mrc	15, 0, r3, cr0, cr0, {0}
     d14:	e1a03003 	mov	r3, r3
     d18:	e1a03003 	mov	r3, r3
     d1c:	e1a0e000 	mov	lr, r0
     d20:	f57ff06f 	isb	sy
     d24:	e1a0f00e 	mov	pc, lr
     d28:	f0003ffc 			; <UNDEFINED> instruction: 0xf0003ffc
     d2c:	00003ffc 	strdeq	r3, [r0], -ip
     d30:	000003ff 	strdeq	r0, [r0], -pc	; <UNPREDICTABLE>
     d34:	00007fff 	strdeq	r7, [r0], -pc	; <UNPREDICTABLE>
     d38:	f0001000 			; <UNDEFINED> instruction: 0xf0001000
     d3c:	f0002000 			; <UNDEFINED> instruction: 0xf0002000
     d40:	f0003000 			; <UNDEFINED> instruction: 0xf0003000
     d44:	f0040000 			; <UNDEFINED> instruction: 0xf0040000
     d48:	f0041000 			; <UNDEFINED> instruction: 0xf0041000
     d4c:	f0042000 			; <UNDEFINED> instruction: 0xf0042000
     d50:	f0043000 			; <UNDEFINED> instruction: 0xf0043000
     d54:	f0044000 			; <UNDEFINED> instruction: 0xf0044000
     d58:	f0045000 			; <UNDEFINED> instruction: 0xf0045000
     d5c:	f0046000 			; <UNDEFINED> instruction: 0xf0046000
     d60:	f0047000 			; <UNDEFINED> instruction: 0xf0047000
     d64:	f0048000 			; <UNDEFINED> instruction: 0xf0048000
     d68:	f0049000 			; <UNDEFINED> instruction: 0xf0049000
     d6c:	f004a000 			; <UNDEFINED> instruction: 0xf004a000
     d70:	f004b000 			; <UNDEFINED> instruction: 0xf004b000
     d74:	f004c000 			; <UNDEFINED> instruction: 0xf004c000
     d78:	f004d000 			; <UNDEFINED> instruction: 0xf004d000
     d7c:	f004e000 			; <UNDEFINED> instruction: 0xf004e000
     d80:	f004f000 			; <UNDEFINED> instruction: 0xf004f000
     d84:	f0050000 			; <UNDEFINED> instruction: 0xf0050000
     d88:	f0051000 			; <UNDEFINED> instruction: 0xf0051000
     d8c:	f0052000 			; <UNDEFINED> instruction: 0xf0052000
     d90:	f0053000 			; <UNDEFINED> instruction: 0xf0053000
     d94:	f1c17000 			; <UNDEFINED> instruction: 0xf1c17000
     d98:	f1c18000 			; <UNDEFINED> instruction: 0xf1c18000
     d9c:	f1c20800 			; <UNDEFINED> instruction: 0xf1c20800
     da0:	f1f01400 			; <UNDEFINED> instruction: 0xf1f01400
     da4:	f1c28000 			; <UNDEFINED> instruction: 0xf1c28000
     da8:	f1f00000 			; <UNDEFINED> instruction: 0xf1f00000
     dac:	f1c20000 			; <UNDEFINED> instruction: 0xf1c20000

00000db0 <__save_processor_state>:
     db0:	ee503f10 	mrc	15, 2, r3, cr0, cr0, {0}
     db4:	e7e71453 	ubfx	r1, r3, #8, #8
     db8:	e7e72853 	ubfx	r2, r3, #16, #8
     dbc:	e5c03000 	strb	r3, [r0]
     dc0:	e1a03c23 	lsr	r3, r3, #24
     dc4:	e5c01001 	strb	r1, [r0, #1]
     dc8:	e5c02002 	strb	r2, [r0, #2]
     dcc:	e5c03003 	strb	r3, [r0, #3]
     dd0:	ee113f10 	mrc	15, 0, r3, cr1, cr0, {0}
     dd4:	e7e71453 	ubfx	r1, r3, #8, #8
     dd8:	e7e72853 	ubfx	r2, r3, #16, #8
     ddc:	e5c03004 	strb	r3, [r0, #4]
     de0:	e1a03c23 	lsr	r3, r3, #24
     de4:	e5c01005 	strb	r1, [r0, #5]
     de8:	e5c02006 	strb	r2, [r0, #6]
     dec:	e5c03007 	strb	r3, [r0, #7]
     df0:	ee113f50 	mrc	15, 0, r3, cr1, cr0, {2}
     df4:	e7e71453 	ubfx	r1, r3, #8, #8
     df8:	e7e72853 	ubfx	r2, r3, #16, #8
     dfc:	e5c0300c 	strb	r3, [r0, #12]
     e00:	e1a03c23 	lsr	r3, r3, #24
     e04:	e5c0100d 	strb	r1, [r0, #13]
     e08:	e5c0200e 	strb	r2, [r0, #14]
     e0c:	e5c0300f 	strb	r3, [r0, #15]
     e10:	ee123f10 	mrc	15, 0, r3, cr2, cr0, {0}
     e14:	e7e71453 	ubfx	r1, r3, #8, #8
     e18:	e7e72853 	ubfx	r2, r3, #16, #8
     e1c:	e5c0301c 	strb	r3, [r0, #28]
     e20:	e1a03c23 	lsr	r3, r3, #24
     e24:	e5c0101d 	strb	r1, [r0, #29]
     e28:	e5c0201e 	strb	r2, [r0, #30]
     e2c:	e5c0301f 	strb	r3, [r0, #31]
     e30:	ee123f30 	mrc	15, 0, r3, cr2, cr0, {1}
     e34:	e7e71453 	ubfx	r1, r3, #8, #8
     e38:	e7e72853 	ubfx	r2, r3, #16, #8
     e3c:	e5c03020 	strb	r3, [r0, #32]
     e40:	e1a03c23 	lsr	r3, r3, #24
     e44:	e5c01021 	strb	r1, [r0, #33]	; 0x21
     e48:	e5c02022 	strb	r2, [r0, #34]	; 0x22
     e4c:	e5c03023 	strb	r3, [r0, #35]	; 0x23
     e50:	ee123f50 	mrc	15, 0, r3, cr2, cr0, {2}
     e54:	e7e71453 	ubfx	r1, r3, #8, #8
     e58:	e7e72853 	ubfx	r2, r3, #16, #8
     e5c:	e5c03024 	strb	r3, [r0, #36]	; 0x24
     e60:	e1a03c23 	lsr	r3, r3, #24
     e64:	e5c01025 	strb	r1, [r0, #37]	; 0x25
     e68:	e5c02026 	strb	r2, [r0, #38]	; 0x26
     e6c:	e5c03027 	strb	r3, [r0, #39]	; 0x27
     e70:	ee133f10 	mrc	15, 0, r3, cr3, cr0, {0}
     e74:	e7e71453 	ubfx	r1, r3, #8, #8
     e78:	e7e72853 	ubfx	r2, r3, #16, #8
     e7c:	e5c03028 	strb	r3, [r0, #40]	; 0x28
     e80:	e1a03c23 	lsr	r3, r3, #24
     e84:	e5c01029 	strb	r1, [r0, #41]	; 0x29
     e88:	e5c0202a 	strb	r2, [r0, #42]	; 0x2a
     e8c:	e5c0302b 	strb	r3, [r0, #43]	; 0x2b
     e90:	ee153f10 	mrc	15, 0, r3, cr5, cr0, {0}
     e94:	e7e71453 	ubfx	r1, r3, #8, #8
     e98:	e7e72853 	ubfx	r2, r3, #16, #8
     e9c:	e5c0302c 	strb	r3, [r0, #44]	; 0x2c
     ea0:	e1a03c23 	lsr	r3, r3, #24
     ea4:	e5c0102d 	strb	r1, [r0, #45]	; 0x2d
     ea8:	e5c0202e 	strb	r2, [r0, #46]	; 0x2e
     eac:	e5c0302f 	strb	r3, [r0, #47]	; 0x2f
     eb0:	ee153f30 	mrc	15, 0, r3, cr5, cr0, {1}
     eb4:	e7e71453 	ubfx	r1, r3, #8, #8
     eb8:	e7e72853 	ubfx	r2, r3, #16, #8
     ebc:	e5c03030 	strb	r3, [r0, #48]	; 0x30
     ec0:	e1a03c23 	lsr	r3, r3, #24
     ec4:	e5c01031 	strb	r1, [r0, #49]	; 0x31
     ec8:	e5c02032 	strb	r2, [r0, #50]	; 0x32
     ecc:	e5c03033 	strb	r3, [r0, #51]	; 0x33
     ed0:	ee153f11 	mrc	15, 0, r3, cr5, cr1, {0}
     ed4:	e7e71453 	ubfx	r1, r3, #8, #8
     ed8:	e7e72853 	ubfx	r2, r3, #16, #8
     edc:	e5c03034 	strb	r3, [r0, #52]	; 0x34
     ee0:	e1a03c23 	lsr	r3, r3, #24
     ee4:	e5c01035 	strb	r1, [r0, #53]	; 0x35
     ee8:	e5c02036 	strb	r2, [r0, #54]	; 0x36
     eec:	e5c03037 	strb	r3, [r0, #55]	; 0x37
     ef0:	ee153f31 	mrc	15, 0, r3, cr5, cr1, {1}
     ef4:	e7e71453 	ubfx	r1, r3, #8, #8
     ef8:	e7e72853 	ubfx	r2, r3, #16, #8
     efc:	e5c03038 	strb	r3, [r0, #56]	; 0x38
     f00:	e1a03c23 	lsr	r3, r3, #24
     f04:	e5c01039 	strb	r1, [r0, #57]	; 0x39
     f08:	e5c0203a 	strb	r2, [r0, #58]	; 0x3a
     f0c:	e5c0303b 	strb	r3, [r0, #59]	; 0x3b
     f10:	ee163f10 	mrc	15, 0, r3, cr6, cr0, {0}
     f14:	e7e71453 	ubfx	r1, r3, #8, #8
     f18:	e7e72853 	ubfx	r2, r3, #16, #8
     f1c:	e5c0303c 	strb	r3, [r0, #60]	; 0x3c
     f20:	e1a03c23 	lsr	r3, r3, #24
     f24:	e5c0103d 	strb	r1, [r0, #61]	; 0x3d
     f28:	e5c0203e 	strb	r2, [r0, #62]	; 0x3e
     f2c:	e5c0303f 	strb	r3, [r0, #63]	; 0x3f
     f30:	ee163f50 	mrc	15, 0, r3, cr6, cr0, {2}
     f34:	e7e71453 	ubfx	r1, r3, #8, #8
     f38:	e7e72853 	ubfx	r2, r3, #16, #8
     f3c:	e5c03040 	strb	r3, [r0, #64]	; 0x40
     f40:	e1a03c23 	lsr	r3, r3, #24
     f44:	e5c01041 	strb	r1, [r0, #65]	; 0x41
     f48:	e5c02042 	strb	r2, [r0, #66]	; 0x42
     f4c:	e5c03043 	strb	r3, [r0, #67]	; 0x43
     f50:	ee173f14 	mrc	15, 0, r3, cr7, cr4, {0}
     f54:	e7e71453 	ubfx	r1, r3, #8, #8
     f58:	e7e72853 	ubfx	r2, r3, #16, #8
     f5c:	e5c03044 	strb	r3, [r0, #68]	; 0x44
     f60:	e1a03c23 	lsr	r3, r3, #24
     f64:	e5c01045 	strb	r1, [r0, #69]	; 0x45
     f68:	e5c02046 	strb	r2, [r0, #70]	; 0x46
     f6c:	e5c03047 	strb	r3, [r0, #71]	; 0x47
     f70:	ee193f1c 	mrc	15, 0, r3, cr9, cr12, {0}
     f74:	e7e71453 	ubfx	r1, r3, #8, #8
     f78:	e7e72853 	ubfx	r2, r3, #16, #8
     f7c:	e5c03048 	strb	r3, [r0, #72]	; 0x48
     f80:	e1a03c23 	lsr	r3, r3, #24
     f84:	e5c01049 	strb	r1, [r0, #73]	; 0x49
     f88:	e5c0204a 	strb	r2, [r0, #74]	; 0x4a
     f8c:	e5c0304b 	strb	r3, [r0, #75]	; 0x4b
     f90:	ee193f3c 	mrc	15, 0, r3, cr9, cr12, {1}
     f94:	e7e71453 	ubfx	r1, r3, #8, #8
     f98:	e7e72853 	ubfx	r2, r3, #16, #8
     f9c:	e5c0304c 	strb	r3, [r0, #76]	; 0x4c
     fa0:	e1a03c23 	lsr	r3, r3, #24
     fa4:	e5c0104d 	strb	r1, [r0, #77]	; 0x4d
     fa8:	e5c0204e 	strb	r2, [r0, #78]	; 0x4e
     fac:	e5c0304f 	strb	r3, [r0, #79]	; 0x4f
     fb0:	ee193f5c 	mrc	15, 0, r3, cr9, cr12, {2}
     fb4:	e7e71453 	ubfx	r1, r3, #8, #8
     fb8:	e7e72853 	ubfx	r2, r3, #16, #8
     fbc:	e5c03050 	strb	r3, [r0, #80]	; 0x50
     fc0:	e1a03c23 	lsr	r3, r3, #24
     fc4:	e5c01051 	strb	r1, [r0, #81]	; 0x51
     fc8:	e5c02052 	strb	r2, [r0, #82]	; 0x52
     fcc:	e5c03053 	strb	r3, [r0, #83]	; 0x53
     fd0:	ee193f7c 	mrc	15, 0, r3, cr9, cr12, {3}
     fd4:	e7e71453 	ubfx	r1, r3, #8, #8
     fd8:	e7e72853 	ubfx	r2, r3, #16, #8
     fdc:	e5c03054 	strb	r3, [r0, #84]	; 0x54
     fe0:	e1a03c23 	lsr	r3, r3, #24
     fe4:	e5c01055 	strb	r1, [r0, #85]	; 0x55
     fe8:	e5c02056 	strb	r2, [r0, #86]	; 0x56
     fec:	e5c03057 	strb	r3, [r0, #87]	; 0x57
     ff0:	ee193fbc 	mrc	15, 0, r3, cr9, cr12, {5}
     ff4:	e7e71453 	ubfx	r1, r3, #8, #8
     ff8:	e7e72853 	ubfx	r2, r3, #16, #8
     ffc:	e5c0305c 	strb	r3, [r0, #92]	; 0x5c
    1000:	e1a03c23 	lsr	r3, r3, #24
    1004:	e5c0105d 	strb	r1, [r0, #93]	; 0x5d
    1008:	e5c0205e 	strb	r2, [r0, #94]	; 0x5e
    100c:	e5c0305f 	strb	r3, [r0, #95]	; 0x5f
    1010:	ee193f1d 	mrc	15, 0, r3, cr9, cr13, {0}
    1014:	e7e71453 	ubfx	r1, r3, #8, #8
    1018:	e7e72853 	ubfx	r2, r3, #16, #8
    101c:	e5c03060 	strb	r3, [r0, #96]	; 0x60
    1020:	e1a03c23 	lsr	r3, r3, #24
    1024:	e5c01061 	strb	r1, [r0, #97]	; 0x61
    1028:	e5c02062 	strb	r2, [r0, #98]	; 0x62
    102c:	e5c03063 	strb	r3, [r0, #99]	; 0x63
    1030:	ee193f3d 	mrc	15, 0, r3, cr9, cr13, {1}
    1034:	e7e71453 	ubfx	r1, r3, #8, #8
    1038:	e7e72853 	ubfx	r2, r3, #16, #8
    103c:	e5c03064 	strb	r3, [r0, #100]	; 0x64
    1040:	e1a03c23 	lsr	r3, r3, #24
    1044:	e5c01065 	strb	r1, [r0, #101]	; 0x65
    1048:	e5c02066 	strb	r2, [r0, #102]	; 0x66
    104c:	e5c03067 	strb	r3, [r0, #103]	; 0x67
    1050:	ee193f5d 	mrc	15, 0, r3, cr9, cr13, {2}
    1054:	e7e71453 	ubfx	r1, r3, #8, #8
    1058:	e7e72853 	ubfx	r2, r3, #16, #8
    105c:	e5c03068 	strb	r3, [r0, #104]	; 0x68
    1060:	e1a03c23 	lsr	r3, r3, #24
    1064:	e5c01069 	strb	r1, [r0, #105]	; 0x69
    1068:	e5c0206a 	strb	r2, [r0, #106]	; 0x6a
    106c:	e5c0306b 	strb	r3, [r0, #107]	; 0x6b
    1070:	ee193f1e 	mrc	15, 0, r3, cr9, cr14, {0}
    1074:	e7e71453 	ubfx	r1, r3, #8, #8
    1078:	e7e72853 	ubfx	r2, r3, #16, #8
    107c:	e5c0306c 	strb	r3, [r0, #108]	; 0x6c
    1080:	e1a03c23 	lsr	r3, r3, #24
    1084:	e5c0106d 	strb	r1, [r0, #109]	; 0x6d
    1088:	e5c0206e 	strb	r2, [r0, #110]	; 0x6e
    108c:	e5c0306f 	strb	r3, [r0, #111]	; 0x6f
    1090:	ee193f3e 	mrc	15, 0, r3, cr9, cr14, {1}
    1094:	e7e71453 	ubfx	r1, r3, #8, #8
    1098:	e7e72853 	ubfx	r2, r3, #16, #8
    109c:	e5c03070 	strb	r3, [r0, #112]	; 0x70
    10a0:	e1a03c23 	lsr	r3, r3, #24
    10a4:	e5c01071 	strb	r1, [r0, #113]	; 0x71
    10a8:	e5c02072 	strb	r2, [r0, #114]	; 0x72
    10ac:	e5c03073 	strb	r3, [r0, #115]	; 0x73
    10b0:	ee193f5e 	mrc	15, 0, r3, cr9, cr14, {2}
    10b4:	e7e71453 	ubfx	r1, r3, #8, #8
    10b8:	e7e72853 	ubfx	r2, r3, #16, #8
    10bc:	e5c03074 	strb	r3, [r0, #116]	; 0x74
    10c0:	e1a03c23 	lsr	r3, r3, #24
    10c4:	e5c01075 	strb	r1, [r0, #117]	; 0x75
    10c8:	e5c02076 	strb	r2, [r0, #118]	; 0x76
    10cc:	e5c03077 	strb	r3, [r0, #119]	; 0x77
    10d0:	ee1a3f12 	mrc	15, 0, r3, cr10, cr2, {0}
    10d4:	e7e71453 	ubfx	r1, r3, #8, #8
    10d8:	e7e72853 	ubfx	r2, r3, #16, #8
    10dc:	e5c03078 	strb	r3, [r0, #120]	; 0x78
    10e0:	e1a03c23 	lsr	r3, r3, #24
    10e4:	e5c01079 	strb	r1, [r0, #121]	; 0x79
    10e8:	e5c0207a 	strb	r2, [r0, #122]	; 0x7a
    10ec:	e5c0307b 	strb	r3, [r0, #123]	; 0x7b
    10f0:	ee1a3f32 	mrc	15, 0, r3, cr10, cr2, {1}
    10f4:	e7e71453 	ubfx	r1, r3, #8, #8
    10f8:	e7e72853 	ubfx	r2, r3, #16, #8
    10fc:	e5c0307c 	strb	r3, [r0, #124]	; 0x7c
    1100:	e1a03c23 	lsr	r3, r3, #24
    1104:	e5c0107d 	strb	r1, [r0, #125]	; 0x7d
    1108:	e5c0207e 	strb	r2, [r0, #126]	; 0x7e
    110c:	e5c0307f 	strb	r3, [r0, #127]	; 0x7f
    1110:	ee1c3f10 	mrc	15, 0, r3, cr12, cr0, {0}
    1114:	e7e71453 	ubfx	r1, r3, #8, #8
    1118:	e7e72853 	ubfx	r2, r3, #16, #8
    111c:	e5c03080 	strb	r3, [r0, #128]	; 0x80
    1120:	e1a03c23 	lsr	r3, r3, #24
    1124:	e5c01081 	strb	r1, [r0, #129]	; 0x81
    1128:	e5c02082 	strb	r2, [r0, #130]	; 0x82
    112c:	e5c03083 	strb	r3, [r0, #131]	; 0x83
    1130:	ee1d3f30 	mrc	15, 0, r3, cr13, cr0, {1}
    1134:	e7e71453 	ubfx	r1, r3, #8, #8
    1138:	e7e72853 	ubfx	r2, r3, #16, #8
    113c:	e5c03090 	strb	r3, [r0, #144]	; 0x90
    1140:	e1a03c23 	lsr	r3, r3, #24
    1144:	e5c01091 	strb	r1, [r0, #145]	; 0x91
    1148:	e5c02092 	strb	r2, [r0, #146]	; 0x92
    114c:	e5c03093 	strb	r3, [r0, #147]	; 0x93
    1150:	ee1d3f50 	mrc	15, 0, r3, cr13, cr0, {2}
    1154:	e7e71453 	ubfx	r1, r3, #8, #8
    1158:	e7e72853 	ubfx	r2, r3, #16, #8
    115c:	e5c03094 	strb	r3, [r0, #148]	; 0x94
    1160:	e1a03c23 	lsr	r3, r3, #24
    1164:	e5c01095 	strb	r1, [r0, #149]	; 0x95
    1168:	e5c02096 	strb	r2, [r0, #150]	; 0x96
    116c:	e5c03097 	strb	r3, [r0, #151]	; 0x97
    1170:	ee1d3f70 	mrc	15, 0, r3, cr13, cr0, {3}
    1174:	e7e71453 	ubfx	r1, r3, #8, #8
    1178:	e7e72853 	ubfx	r2, r3, #16, #8
    117c:	e5c03098 	strb	r3, [r0, #152]	; 0x98
    1180:	e1a03c23 	lsr	r3, r3, #24
    1184:	e5c01099 	strb	r1, [r0, #153]	; 0x99
    1188:	e5c0209a 	strb	r2, [r0, #154]	; 0x9a
    118c:	e5c0309b 	strb	r3, [r0, #155]	; 0x9b
    1190:	ee1d3f90 	mrc	15, 0, r3, cr13, cr0, {4}
    1194:	e7e71453 	ubfx	r1, r3, #8, #8
    1198:	e7e72853 	ubfx	r2, r3, #16, #8
    119c:	e5c0309c 	strb	r3, [r0, #156]	; 0x9c
    11a0:	e1a03c23 	lsr	r3, r3, #24
    11a4:	e5c0109d 	strb	r1, [r0, #157]	; 0x9d
    11a8:	e5c0209e 	strb	r2, [r0, #158]	; 0x9e
    11ac:	e5c0309f 	strb	r3, [r0, #159]	; 0x9f
    11b0:	e12fff1e 	bx	lr

000011b4 <__restore_processor_state>:
    11b4:	e5d0c001 	ldrb	ip, [r0, #1]
    11b8:	e5d02000 	ldrb	r2, [r0]
    11bc:	e5d03002 	ldrb	r3, [r0, #2]
    11c0:	e5d01003 	ldrb	r1, [r0, #3]
    11c4:	e182240c 	orr	r2, r2, ip, lsl #8
    11c8:	e1823803 	orr	r3, r2, r3, lsl #16
    11cc:	e1833c01 	orr	r3, r3, r1, lsl #24
    11d0:	ee403f10 	mcr	15, 2, r3, cr0, cr0, {0}
    11d4:	e5d0c00d 	ldrb	ip, [r0, #13]
    11d8:	e5d0200c 	ldrb	r2, [r0, #12]
    11dc:	e5d0300e 	ldrb	r3, [r0, #14]
    11e0:	e5d0100f 	ldrb	r1, [r0, #15]
    11e4:	e182240c 	orr	r2, r2, ip, lsl #8
    11e8:	e1823803 	orr	r3, r2, r3, lsl #16
    11ec:	e1833c01 	orr	r3, r3, r1, lsl #24
    11f0:	ee013f50 	mcr	15, 0, r3, cr1, cr0, {2}
    11f4:	e5d0c01d 	ldrb	ip, [r0, #29]
    11f8:	e5d0201c 	ldrb	r2, [r0, #28]
    11fc:	e5d0301e 	ldrb	r3, [r0, #30]
    1200:	e5d0101f 	ldrb	r1, [r0, #31]
    1204:	e182240c 	orr	r2, r2, ip, lsl #8
    1208:	e1823803 	orr	r3, r2, r3, lsl #16
    120c:	e1833c01 	orr	r3, r3, r1, lsl #24
    1210:	ee023f10 	mcr	15, 0, r3, cr2, cr0, {0}
    1214:	f57ff04f 	dsb	sy
    1218:	f57ff06f 	isb	sy
    121c:	e5d0c021 	ldrb	ip, [r0, #33]	; 0x21
    1220:	e5d02020 	ldrb	r2, [r0, #32]
    1224:	e5d03022 	ldrb	r3, [r0, #34]	; 0x22
    1228:	e5d01023 	ldrb	r1, [r0, #35]	; 0x23
    122c:	e182240c 	orr	r2, r2, ip, lsl #8
    1230:	e1823803 	orr	r3, r2, r3, lsl #16
    1234:	e1833c01 	orr	r3, r3, r1, lsl #24
    1238:	ee023f30 	mcr	15, 0, r3, cr2, cr0, {1}
    123c:	f57ff04f 	dsb	sy
    1240:	f57ff06f 	isb	sy
    1244:	e5d0c025 	ldrb	ip, [r0, #37]	; 0x25
    1248:	e5d02024 	ldrb	r2, [r0, #36]	; 0x24
    124c:	e5d03026 	ldrb	r3, [r0, #38]	; 0x26
    1250:	e5d01027 	ldrb	r1, [r0, #39]	; 0x27
    1254:	e182240c 	orr	r2, r2, ip, lsl #8
    1258:	e1823803 	orr	r3, r2, r3, lsl #16
    125c:	e1833c01 	orr	r3, r3, r1, lsl #24
    1260:	ee023f50 	mcr	15, 0, r3, cr2, cr0, {2}
    1264:	f57ff04f 	dsb	sy
    1268:	f57ff06f 	isb	sy
    126c:	e5d0c029 	ldrb	ip, [r0, #41]	; 0x29
    1270:	e5d02028 	ldrb	r2, [r0, #40]	; 0x28
    1274:	e5d0302a 	ldrb	r3, [r0, #42]	; 0x2a
    1278:	e5d0102b 	ldrb	r1, [r0, #43]	; 0x2b
    127c:	e182240c 	orr	r2, r2, ip, lsl #8
    1280:	e1823803 	orr	r3, r2, r3, lsl #16
    1284:	e1833c01 	orr	r3, r3, r1, lsl #24
    1288:	ee033f10 	mcr	15, 0, r3, cr3, cr0, {0}
    128c:	e5d0c045 	ldrb	ip, [r0, #69]	; 0x45
    1290:	e5d02044 	ldrb	r2, [r0, #68]	; 0x44
    1294:	e5d03046 	ldrb	r3, [r0, #70]	; 0x46
    1298:	e5d01047 	ldrb	r1, [r0, #71]	; 0x47
    129c:	e182240c 	orr	r2, r2, ip, lsl #8
    12a0:	e1823803 	orr	r3, r2, r3, lsl #16
    12a4:	e1833c01 	orr	r3, r3, r1, lsl #24
    12a8:	ee073f14 	mcr	15, 0, r3, cr7, cr4, {0}
    12ac:	e5d0c05d 	ldrb	ip, [r0, #93]	; 0x5d
    12b0:	e5d0205c 	ldrb	r2, [r0, #92]	; 0x5c
    12b4:	e5d0305e 	ldrb	r3, [r0, #94]	; 0x5e
    12b8:	e5d0105f 	ldrb	r1, [r0, #95]	; 0x5f
    12bc:	e182240c 	orr	r2, r2, ip, lsl #8
    12c0:	e1823803 	orr	r3, r2, r3, lsl #16
    12c4:	e1833c01 	orr	r3, r3, r1, lsl #24
    12c8:	ee093fbc 	mcr	15, 0, r3, cr9, cr12, {5}
    12cc:	e5d0c061 	ldrb	ip, [r0, #97]	; 0x61
    12d0:	e5d02060 	ldrb	r2, [r0, #96]	; 0x60
    12d4:	e5d03062 	ldrb	r3, [r0, #98]	; 0x62
    12d8:	e5d01063 	ldrb	r1, [r0, #99]	; 0x63
    12dc:	e182240c 	orr	r2, r2, ip, lsl #8
    12e0:	e1823803 	orr	r3, r2, r3, lsl #16
    12e4:	e1833c01 	orr	r3, r3, r1, lsl #24
    12e8:	ee093f1d 	mcr	15, 0, r3, cr9, cr13, {0}
    12ec:	e5d0c065 	ldrb	ip, [r0, #101]	; 0x65
    12f0:	e5d02064 	ldrb	r2, [r0, #100]	; 0x64
    12f4:	e5d03066 	ldrb	r3, [r0, #102]	; 0x66
    12f8:	e5d01067 	ldrb	r1, [r0, #103]	; 0x67
    12fc:	e182240c 	orr	r2, r2, ip, lsl #8
    1300:	e1823803 	orr	r3, r2, r3, lsl #16
    1304:	e1833c01 	orr	r3, r3, r1, lsl #24
    1308:	ee093f3d 	mcr	15, 0, r3, cr9, cr13, {1}
    130c:	e5d0c069 	ldrb	ip, [r0, #105]	; 0x69
    1310:	e5d02068 	ldrb	r2, [r0, #104]	; 0x68
    1314:	e5d0306a 	ldrb	r3, [r0, #106]	; 0x6a
    1318:	e5d0106b 	ldrb	r1, [r0, #107]	; 0x6b
    131c:	e182240c 	orr	r2, r2, ip, lsl #8
    1320:	e1823803 	orr	r3, r2, r3, lsl #16
    1324:	e1833c01 	orr	r3, r3, r1, lsl #24
    1328:	ee093f5d 	mcr	15, 0, r3, cr9, cr13, {2}
    132c:	e5d0c06d 	ldrb	ip, [r0, #109]	; 0x6d
    1330:	e5d0206c 	ldrb	r2, [r0, #108]	; 0x6c
    1334:	e5d0306e 	ldrb	r3, [r0, #110]	; 0x6e
    1338:	e5d0106f 	ldrb	r1, [r0, #111]	; 0x6f
    133c:	e182240c 	orr	r2, r2, ip, lsl #8
    1340:	e1823803 	orr	r3, r2, r3, lsl #16
    1344:	e1833c01 	orr	r3, r3, r1, lsl #24
    1348:	ee093f1e 	mcr	15, 0, r3, cr9, cr14, {0}
    134c:	e5d0c071 	ldrb	ip, [r0, #113]	; 0x71
    1350:	e5d02070 	ldrb	r2, [r0, #112]	; 0x70
    1354:	e5d03072 	ldrb	r3, [r0, #114]	; 0x72
    1358:	e5d01073 	ldrb	r1, [r0, #115]	; 0x73
    135c:	e182240c 	orr	r2, r2, ip, lsl #8
    1360:	e1823803 	orr	r3, r2, r3, lsl #16
    1364:	e1833c01 	orr	r3, r3, r1, lsl #24
    1368:	ee093f3e 	mcr	15, 0, r3, cr9, cr14, {1}
    136c:	e5d0c075 	ldrb	ip, [r0, #117]	; 0x75
    1370:	e5d02074 	ldrb	r2, [r0, #116]	; 0x74
    1374:	e5d03076 	ldrb	r3, [r0, #118]	; 0x76
    1378:	e5d01077 	ldrb	r1, [r0, #119]	; 0x77
    137c:	e182240c 	orr	r2, r2, ip, lsl #8
    1380:	e1823803 	orr	r3, r2, r3, lsl #16
    1384:	e1833c01 	orr	r3, r3, r1, lsl #24
    1388:	ee093f5e 	mcr	15, 0, r3, cr9, cr14, {2}
    138c:	e5d0c079 	ldrb	ip, [r0, #121]	; 0x79
    1390:	e5d02078 	ldrb	r2, [r0, #120]	; 0x78
    1394:	e5d0307a 	ldrb	r3, [r0, #122]	; 0x7a
    1398:	e5d0107b 	ldrb	r1, [r0, #123]	; 0x7b
    139c:	e182240c 	orr	r2, r2, ip, lsl #8
    13a0:	e1823803 	orr	r3, r2, r3, lsl #16
    13a4:	e1833c01 	orr	r3, r3, r1, lsl #24
    13a8:	ee0a3f12 	mcr	15, 0, r3, cr10, cr2, {0}
    13ac:	e5d0c07d 	ldrb	ip, [r0, #125]	; 0x7d
    13b0:	e5d0207c 	ldrb	r2, [r0, #124]	; 0x7c
    13b4:	e5d0307e 	ldrb	r3, [r0, #126]	; 0x7e
    13b8:	e5d0107f 	ldrb	r1, [r0, #127]	; 0x7f
    13bc:	e182240c 	orr	r2, r2, ip, lsl #8
    13c0:	e1823803 	orr	r3, r2, r3, lsl #16
    13c4:	e1833c01 	orr	r3, r3, r1, lsl #24
    13c8:	ee0a3f32 	mcr	15, 0, r3, cr10, cr2, {1}
    13cc:	e5d0c081 	ldrb	ip, [r0, #129]	; 0x81
    13d0:	e5d02080 	ldrb	r2, [r0, #128]	; 0x80
    13d4:	e5d03082 	ldrb	r3, [r0, #130]	; 0x82
    13d8:	e5d01083 	ldrb	r1, [r0, #131]	; 0x83
    13dc:	e182240c 	orr	r2, r2, ip, lsl #8
    13e0:	e1823803 	orr	r3, r2, r3, lsl #16
    13e4:	e1833c01 	orr	r3, r3, r1, lsl #24
    13e8:	ee0c3f10 	mcr	15, 0, r3, cr12, cr0, {0}
    13ec:	e5d0c091 	ldrb	ip, [r0, #145]	; 0x91
    13f0:	e5d02090 	ldrb	r2, [r0, #144]	; 0x90
    13f4:	e5d03092 	ldrb	r3, [r0, #146]	; 0x92
    13f8:	e5d01093 	ldrb	r1, [r0, #147]	; 0x93
    13fc:	e182240c 	orr	r2, r2, ip, lsl #8
    1400:	e1823803 	orr	r3, r2, r3, lsl #16
    1404:	e1833c01 	orr	r3, r3, r1, lsl #24
    1408:	ee0d3f30 	mcr	15, 0, r3, cr13, cr0, {1}
    140c:	e5d0c095 	ldrb	ip, [r0, #149]	; 0x95
    1410:	e5d02094 	ldrb	r2, [r0, #148]	; 0x94
    1414:	e5d03096 	ldrb	r3, [r0, #150]	; 0x96
    1418:	e5d01097 	ldrb	r1, [r0, #151]	; 0x97
    141c:	e182240c 	orr	r2, r2, ip, lsl #8
    1420:	e1823803 	orr	r3, r2, r3, lsl #16
    1424:	e1833c01 	orr	r3, r3, r1, lsl #24
    1428:	ee0d3f50 	mcr	15, 0, r3, cr13, cr0, {2}
    142c:	e5d0c099 	ldrb	ip, [r0, #153]	; 0x99
    1430:	e5d02098 	ldrb	r2, [r0, #152]	; 0x98
    1434:	e5d0309a 	ldrb	r3, [r0, #154]	; 0x9a
    1438:	e5d0109b 	ldrb	r1, [r0, #155]	; 0x9b
    143c:	e182240c 	orr	r2, r2, ip, lsl #8
    1440:	e1823803 	orr	r3, r2, r3, lsl #16
    1444:	e1833c01 	orr	r3, r3, r1, lsl #24
    1448:	ee0d3f70 	mcr	15, 0, r3, cr13, cr0, {3}
    144c:	e5d0c09d 	ldrb	ip, [r0, #157]	; 0x9d
    1450:	e5d0209c 	ldrb	r2, [r0, #156]	; 0x9c
    1454:	e5d0309e 	ldrb	r3, [r0, #158]	; 0x9e
    1458:	e5d0109f 	ldrb	r1, [r0, #159]	; 0x9f
    145c:	e182240c 	orr	r2, r2, ip, lsl #8
    1460:	e1823803 	orr	r3, r2, r3, lsl #16
    1464:	e1833c01 	orr	r3, r3, r1, lsl #24
    1468:	ee0d3f90 	mcr	15, 0, r3, cr13, cr0, {4}
    146c:	f57ff04f 	dsb	sy
    1470:	f57ff06f 	isb	sy
    1474:	e12fff1e 	bx	lr

00001478 <disable_cache_invalidate>:
    1478:	e3a03000 	mov	r3, #0
    147c:	e34f31c2 	movt	r3, #61890	; 0xf1c2
    1480:	e5932d3c 	ldr	r2, [r3, #3388]	; 0xd3c
    1484:	e3822003 	orr	r2, r2, #3
    1488:	e5832d3c 	str	r2, [r3, #3388]	; 0xd3c
    148c:	e12fff1e 	bx	lr

00001490 <set_copro_default>:
    1490:	e3a03002 	mov	r3, #2
    1494:	ee403f10 	mcr	15, 2, r3, cr0, cr0, {0}
    1498:	e3003878 	movw	r3, #2168	; 0x878
    149c:	e34030c5 	movt	r3, #197	; 0xc5
    14a0:	ee013f10 	mcr	15, 0, r3, cr1, cr0, {0}
    14a4:	e3063040 	movw	r3, #24640	; 0x6040
    14a8:	ee013f30 	mcr	15, 0, r3, cr1, cr0, {1}
    14ac:	e3a03000 	mov	r3, #0
    14b0:	ee013f50 	mcr	15, 0, r3, cr1, cr0, {2}
    14b4:	ee023f10 	mcr	15, 0, r3, cr2, cr0, {0}
    14b8:	ee023f30 	mcr	15, 0, r3, cr2, cr0, {1}
    14bc:	ee023f50 	mcr	15, 0, r3, cr2, cr0, {2}
    14c0:	ee033f10 	mcr	15, 0, r3, cr3, cr0, {0}
    14c4:	ee053f10 	mcr	15, 0, r3, cr5, cr0, {0}
    14c8:	ee053f30 	mcr	15, 0, r3, cr5, cr0, {1}
    14cc:	ee053f11 	mcr	15, 0, r3, cr5, cr1, {0}
    14d0:	ee053f31 	mcr	15, 0, r3, cr5, cr1, {1}
    14d4:	ee063f10 	mcr	15, 0, r3, cr6, cr0, {0}
    14d8:	ee063f50 	mcr	15, 0, r3, cr6, cr0, {2}
    14dc:	ee073f14 	mcr	15, 0, r3, cr7, cr4, {0}
    14e0:	ee093f1e 	mcr	15, 0, r3, cr9, cr14, {0}
    14e4:	ee093f3e 	mcr	15, 0, r3, cr9, cr14, {1}
    14e8:	ee093f5e 	mcr	15, 0, r3, cr9, cr14, {2}
    14ec:	e30821a4 	movw	r2, #33188	; 0x81a4
    14f0:	e340200a 	movt	r2, #10
    14f4:	ee0a2f12 	mcr	15, 0, r2, cr10, cr2, {0}
    14f8:	e30428e0 	movw	r2, #18656	; 0x48e0
    14fc:	e34424e0 	movt	r2, #17632	; 0x44e0
    1500:	ee0a2f32 	mcr	15, 0, r2, cr10, cr2, {1}
    1504:	ee0d3f30 	mcr	15, 0, r3, cr13, cr0, {1}
    1508:	ee0d3f50 	mcr	15, 0, r3, cr13, cr0, {2}
    150c:	ee0d3f70 	mcr	15, 0, r3, cr13, cr0, {3}
    1510:	ee0d3f90 	mcr	15, 0, r3, cr13, cr0, {4}
    1514:	f57ff04f 	dsb	sy
    1518:	f57ff06f 	isb	sy
    151c:	e12fff1e 	bx	lr

00001520 <save_processor_state>:
    1520:	e3020dc0 	movw	r0, #11712	; 0x2dc0
    1524:	e3400000 	movt	r0, #0
    1528:	eafffe20 	b	db0 <__save_processor_state>

0000152c <restore_processor_state>:
    152c:	e3020dc0 	movw	r0, #11712	; 0x2dc0
    1530:	e3400000 	movt	r0, #0
    1534:	eaffff1e 	b	11b4 <__restore_processor_state>

00001538 <restore_processor_ttbr0>:
    1538:	e3023dc0 	movw	r3, #11712	; 0x2dc0
    153c:	e3403000 	movt	r3, #0
    1540:	e593301c 	ldr	r3, [r3, #28]
    1544:	ee023f10 	mcr	15, 0, r3, cr2, cr0, {0}
    1548:	e12fff1e 	bx	lr

0000154c <set_ttbr0>:
    154c:	ee123f30 	mrc	15, 0, r3, cr2, cr0, {1}
    1550:	ee023f10 	mcr	15, 0, r3, cr2, cr0, {0}
    1554:	f57ff06f 	isb	sy
    1558:	e12fff1e 	bx	lr

0000155c <set_serial_clk>:
    155c:	e92d4070 	push	{r4, r5, r6, lr}
    1560:	e1a04000 	mov	r4, r0
    1564:	eb0004cb 	bl	2898 <mem_get_ba>
    1568:	e5903058 	ldr	r3, [r0, #88]	; 0x58
    156c:	e7e12c53 	ubfx	r2, r3, #24, #2
    1570:	e3520003 	cmp	r2, #3
    1574:	13021c1c 	movwne	r1, #11292	; 0x2c1c
    1578:	03a00000 	moveq	r0, #0
    157c:	13401000 	movtne	r1, #0
    1580:	17910102 	ldrne	r0, [r1, r2, lsl #2]
    1584:	e203101f 	and	r1, r3, #31
    1588:	e2811001 	add	r1, r1, #1
    158c:	e7e13853 	ubfx	r3, r3, #16, #2
    1590:	e1a01311 	lsl	r1, r1, r3
    1594:	eb000347 	bl	22b8 <__aeabi_uidiv>
    1598:	e3540000 	cmp	r4, #0
    159c:	e3a04000 	mov	r4, #0
    15a0:	134f41c2 	movtne	r4, #61890	; 0xf1c2
    15a4:	13023e60 	movwne	r3, #11872	; 0x2e60
    15a8:	1594206c 	ldrne	r2, [r4, #108]	; 0x6c
    15ac:	034041c2 	movteq	r4, #450	; 0x1c2
    15b0:	13403000 	movtne	r3, #0
    15b4:	e1a05000 	mov	r5, r0
    15b8:	15832000 	strne	r2, [r3]
    15bc:	159422d8 	ldrne	r2, [r4, #728]	; 0x2d8
    15c0:	15832004 	strne	r2, [r3, #4]
    15c4:	e59432d8 	ldr	r3, [r4, #728]	; 0x2d8
    15c8:	e3c33801 	bic	r3, r3, #65536	; 0x10000
    15cc:	e58432d8 	str	r3, [r4, #728]	; 0x2d8
    15d0:	e59432d8 	ldr	r3, [r4, #728]	; 0x2d8
    15d4:	e3833801 	orr	r3, r3, #65536	; 0x10000
    15d8:	e58432d8 	str	r3, [r4, #728]	; 0x2d8
    15dc:	ebfffc01 	bl	5e8 <change_runtime_env>
    15e0:	e3a00001 	mov	r0, #1
    15e4:	ebfffc0b 	bl	618 <delay_us>
    15e8:	e594306c 	ldr	r3, [r4, #108]	; 0x6c
    15ec:	e1a00005 	mov	r0, r5
    15f0:	e3c33801 	bic	r3, r3, #65536	; 0x10000
    15f4:	e584306c 	str	r3, [r4, #108]	; 0x6c
    15f8:	e594306c 	ldr	r3, [r4, #108]	; 0x6c
    15fc:	e3833801 	orr	r3, r3, #65536	; 0x10000
    1600:	e584306c 	str	r3, [r4, #108]	; 0x6c
    1604:	e8bd8070 	pop	{r4, r5, r6, pc}

00001608 <serial_exit>:
    1608:	e3023e60 	movw	r3, #11872	; 0x2e60
    160c:	e3a02000 	mov	r2, #0
    1610:	e3403000 	movt	r3, #0
    1614:	e34f21c2 	movt	r2, #61890	; 0xf1c2
    1618:	e5930000 	ldr	r0, [r3]
    161c:	e3a01000 	mov	r1, #0
    1620:	e582006c 	str	r0, [r2, #108]	; 0x6c
    1624:	e5930004 	ldr	r0, [r3, #4]
    1628:	e58202d8 	str	r0, [r2, #728]	; 0x2d8
    162c:	e5930008 	ldr	r0, [r3, #8]
    1630:	e58208b4 	str	r0, [r2, #2228]	; 0x8b4
    1634:	e583100c 	str	r1, [r3, #12]
    1638:	e12fff1e 	bx	lr

0000163c <serial_init_nommu>:
    163c:	e3a03000 	mov	r3, #0
    1640:	e1a00003 	mov	r0, r3
    1644:	e34031c2 	movt	r3, #450	; 0x1c2
    1648:	e59328b4 	ldr	r2, [r3, #2228]	; 0x8b4
    164c:	e92d41f0 	push	{r4, r5, r6, r7, r8, lr}
    1650:	e3c22807 	bic	r2, r2, #458752	; 0x70000
    1654:	e3c22c07 	bic	r2, r2, #1792	; 0x700
    1658:	e58328b4 	str	r2, [r3, #2228]	; 0x8b4
    165c:	e59328b4 	ldr	r2, [r3, #2228]	; 0x8b4
    1660:	e3a08000 	mov	r8, #0
    1664:	e3a07003 	mov	r7, #3
    1668:	e3a060e1 	mov	r6, #225	; 0xe1
    166c:	e3822803 	orr	r2, r2, #196608	; 0x30000
    1670:	e3822c03 	orr	r2, r2, #768	; 0x300
    1674:	e58328b4 	str	r2, [r3, #2228]	; 0x8b4
    1678:	ebffffb7 	bl	155c <set_serial_clk>
    167c:	e3a03902 	mov	r3, #32768	; 0x8000
    1680:	e34031c2 	movt	r3, #450	; 0x1c2
    1684:	e30b23c5 	movw	r2, #46021	; 0xb3c5
    1688:	e593100c 	ldr	r1, [r3, #12]
    168c:	e34921a2 	movt	r2, #37282	; 0x91a2
    1690:	e3a0e001 	mov	lr, #1
    1694:	e583e0a4 	str	lr, [r3, #164]	; 0xa4
    1698:	e3814080 	orr	r4, r1, #128	; 0x80
    169c:	e583400c 	str	r4, [r3, #12]
    16a0:	e302ce60 	movw	ip, #11872	; 0x2e60
    16a4:	e3c11080 	bic	r1, r1, #128	; 0x80
    16a8:	e340c000 	movt	ip, #0
    16ac:	e2800ae1 	add	r0, r0, #921600	; 0xe1000
    16b0:	e0854290 	umull	r4, r5, r0, r2
    16b4:	e7e72a55 	ubfx	r2, r5, #20, #8
    16b8:	e1a00e25 	lsr	r0, r5, #28
    16bc:	e5830004 	str	r0, [r3, #4]
    16c0:	e5832000 	str	r2, [r3]
    16c4:	e583100c 	str	r1, [r3, #12]
    16c8:	e58380a4 	str	r8, [r3, #164]	; 0xa4
    16cc:	e583700c 	str	r7, [r3, #12]
    16d0:	e5836008 	str	r6, [r3, #8]
    16d4:	e58ce00c 	str	lr, [ip, #12]
    16d8:	e8bd81f0 	pop	{r4, r5, r6, r7, r8, pc}

000016dc <serial_puts_nommu>:
    16dc:	e3023e60 	movw	r3, #11872	; 0x2e60
    16e0:	e3403000 	movt	r3, #0
    16e4:	e593300c 	ldr	r3, [r3, #12]
    16e8:	e3530000 	cmp	r3, #0
    16ec:	0a000022 	beq	177c <serial_puts_nommu+0xa0>
    16f0:	e5d03000 	ldrb	r3, [r0]
    16f4:	e3530000 	cmp	r3, #0
    16f8:	0a00001d 	beq	1774 <serial_puts_nommu+0x98>
    16fc:	e3a02902 	mov	r2, #32768	; 0x8000
    1700:	e34021c2 	movt	r2, #450	; 0x1c2
    1704:	e52de004 	push	{lr}		; (str lr, [sp, #-4]!)
    1708:	e1a0c002 	mov	ip, r2
    170c:	e3a0e00d 	mov	lr, #13
    1710:	e353000a 	cmp	r3, #10
    1714:	0a00000d 	beq	1750 <serial_puts_nommu+0x74>
    1718:	e4d01001 	ldrb	r1, [r0], #1
    171c:	e592307c 	ldr	r3, [r2, #124]	; 0x7c
    1720:	e3130002 	tst	r3, #2
    1724:	0afffffc 	beq	171c <serial_puts_nommu+0x40>
    1728:	f57ff04f 	dsb	sy
    172c:	f57ff06f 	isb	sy
    1730:	e58c1000 	str	r1, [ip]
    1734:	f57ff04f 	dsb	sy
    1738:	f57ff06f 	isb	sy
    173c:	e5d03000 	ldrb	r3, [r0]
    1740:	e3530000 	cmp	r3, #0
    1744:	1afffff1 	bne	1710 <serial_puts_nommu+0x34>
    1748:	e3a00000 	mov	r0, #0
    174c:	e49df004 	pop	{pc}		; (ldr pc, [sp], #4)
    1750:	e592307c 	ldr	r3, [r2, #124]	; 0x7c
    1754:	e3130002 	tst	r3, #2
    1758:	0afffffc 	beq	1750 <serial_puts_nommu+0x74>
    175c:	f57ff04f 	dsb	sy
    1760:	f57ff06f 	isb	sy
    1764:	e58ce000 	str	lr, [ip]
    1768:	f57ff04f 	dsb	sy
    176c:	f57ff06f 	isb	sy
    1770:	eaffffe8 	b	1718 <serial_puts_nommu+0x3c>
    1774:	e3a00000 	mov	r0, #0
    1778:	e12fff1e 	bx	lr
    177c:	e3e00000 	mvn	r0, #0
    1780:	e12fff1e 	bx	lr

00001784 <serial_gets_nommu>:
    1784:	e3023e60 	movw	r3, #11872	; 0x2e60
    1788:	e3403000 	movt	r3, #0
    178c:	e593300c 	ldr	r3, [r3, #12]
    1790:	e3530000 	cmp	r3, #0
    1794:	1a000001 	bne	17a0 <serial_gets_nommu+0x1c>
    1798:	e3e00000 	mvn	r0, #0
    179c:	e12fff1e 	bx	lr
    17a0:	e3510000 	cmp	r1, #0
    17a4:	0a000018 	beq	180c <serial_gets_nommu+0x88>
    17a8:	e3a0c902 	mov	ip, #32768	; 0x8000
    17ac:	e52de004 	push	{lr}		; (str lr, [sp, #-4]!)
    17b0:	e340c1c2 	movt	ip, #450	; 0x1c2
    17b4:	e240e001 	sub	lr, r0, #1
    17b8:	e3a00000 	mov	r0, #0
    17bc:	e30f3fff 	movw	r3, #65535	; 0xffff
    17c0:	ea000001 	b	17cc <serial_gets_nommu+0x48>
    17c4:	e2533001 	subs	r3, r3, #1
    17c8:	3a000004 	bcc	17e0 <serial_gets_nommu+0x5c>
    17cc:	e59c207c 	ldr	r2, [ip, #124]	; 0x7c
    17d0:	e3120008 	tst	r2, #8
    17d4:	0afffffa 	beq	17c4 <serial_gets_nommu+0x40>
    17d8:	e3530000 	cmp	r3, #0
    17dc:	0a000008 	beq	1804 <serial_gets_nommu+0x80>
    17e0:	e59c3000 	ldr	r3, [ip]
    17e4:	e2800001 	add	r0, r0, #1
    17e8:	e21330ff 	ands	r3, r3, #255	; 0xff
    17ec:	0a000008 	beq	1814 <serial_gets_nommu+0x90>
    17f0:	e1510000 	cmp	r1, r0
    17f4:	e5ee3001 	strb	r3, [lr, #1]!
    17f8:	1affffef 	bne	17bc <serial_gets_nommu+0x38>
    17fc:	e2810001 	add	r0, r1, #1
    1800:	e49df004 	pop	{pc}		; (ldr pc, [sp], #4)
    1804:	e2800001 	add	r0, r0, #1
    1808:	e49df004 	pop	{pc}		; (ldr pc, [sp], #4)
    180c:	e3a00001 	mov	r0, #1
    1810:	e12fff1e 	bx	lr
    1814:	e49df004 	pop	{pc}		; (ldr pc, [sp], #4)

00001818 <serial_init_manager>:
    1818:	e3023e60 	movw	r3, #11872	; 0x2e60
    181c:	e3a02001 	mov	r2, #1
    1820:	e3403000 	movt	r3, #0
    1824:	e583200c 	str	r2, [r3, #12]
    1828:	e12fff1e 	bx	lr

0000182c <serial_exit_manager>:
    182c:	e3023e60 	movw	r3, #11872	; 0x2e60
    1830:	e3a02000 	mov	r2, #0
    1834:	e3403000 	movt	r3, #0
    1838:	e583200c 	str	r2, [r3, #12]
    183c:	e12fff1e 	bx	lr

00001840 <serial_init>:
    1840:	e3a03000 	mov	r3, #0
    1844:	e3a00001 	mov	r0, #1
    1848:	e34f31c2 	movt	r3, #61890	; 0xf1c2
    184c:	e59328b4 	ldr	r2, [r3, #2228]	; 0x8b4
    1850:	e92d41f0 	push	{r4, r5, r6, r7, r8, lr}
    1854:	e3024e60 	movw	r4, #11872	; 0x2e60
    1858:	e3404000 	movt	r4, #0
    185c:	e3a08000 	mov	r8, #0
    1860:	e5842008 	str	r2, [r4, #8]
    1864:	e3a05003 	mov	r5, #3
    1868:	e59328b4 	ldr	r2, [r3, #2228]	; 0x8b4
    186c:	e3c22807 	bic	r2, r2, #458752	; 0x70000
    1870:	e3c22c07 	bic	r2, r2, #1792	; 0x700
    1874:	e58328b4 	str	r2, [r3, #2228]	; 0x8b4
    1878:	e59328b4 	ldr	r2, [r3, #2228]	; 0x8b4
    187c:	e3822803 	orr	r2, r2, #196608	; 0x30000
    1880:	e3822c03 	orr	r2, r2, #768	; 0x300
    1884:	e58328b4 	str	r2, [r3, #2228]	; 0x8b4
    1888:	ebffff33 	bl	155c <set_serial_clk>
    188c:	e30b23c5 	movw	r2, #46021	; 0xb3c5
    1890:	e34921a2 	movt	r2, #37282	; 0x91a2
    1894:	e3a03902 	mov	r3, #32768	; 0x8000
    1898:	e34f31c2 	movt	r3, #61890	; 0xf1c2
    189c:	e3a0c001 	mov	ip, #1
    18a0:	e593100c 	ldr	r1, [r3, #12]
    18a4:	e583c0a4 	str	ip, [r3, #164]	; 0xa4
    18a8:	e381e080 	orr	lr, r1, #128	; 0x80
    18ac:	e3c11080 	bic	r1, r1, #128	; 0x80
    18b0:	e583e00c 	str	lr, [r3, #12]
    18b4:	e3a0e0e1 	mov	lr, #225	; 0xe1
    18b8:	e2800ae1 	add	r0, r0, #921600	; 0xe1000
    18bc:	e0876290 	umull	r6, r7, r0, r2
    18c0:	e7e72a57 	ubfx	r2, r7, #20, #8
    18c4:	e1a00e27 	lsr	r0, r7, #28
    18c8:	e5830004 	str	r0, [r3, #4]
    18cc:	e5832000 	str	r2, [r3]
    18d0:	e583100c 	str	r1, [r3, #12]
    18d4:	e58380a4 	str	r8, [r3, #164]	; 0xa4
    18d8:	e583500c 	str	r5, [r3, #12]
    18dc:	e583e008 	str	lr, [r3, #8]
    18e0:	e584c00c 	str	ip, [r4, #12]
    18e4:	e8bd81f0 	pop	{r4, r5, r6, r7, r8, pc}

000018e8 <serial_puts>:
    18e8:	e3023e60 	movw	r3, #11872	; 0x2e60
    18ec:	e3403000 	movt	r3, #0
    18f0:	e593300c 	ldr	r3, [r3, #12]
    18f4:	e3530000 	cmp	r3, #0
    18f8:	0a000022 	beq	1988 <serial_puts+0xa0>
    18fc:	e5d03000 	ldrb	r3, [r0]
    1900:	e3530000 	cmp	r3, #0
    1904:	0a00001d 	beq	1980 <serial_puts+0x98>
    1908:	e3a02902 	mov	r2, #32768	; 0x8000
    190c:	e34f21c2 	movt	r2, #61890	; 0xf1c2
    1910:	e52de004 	push	{lr}		; (str lr, [sp, #-4]!)
    1914:	e1a0c002 	mov	ip, r2
    1918:	e3a0e00d 	mov	lr, #13
    191c:	e353000a 	cmp	r3, #10
    1920:	0a00000d 	beq	195c <serial_puts+0x74>
    1924:	e4d01001 	ldrb	r1, [r0], #1
    1928:	e592307c 	ldr	r3, [r2, #124]	; 0x7c
    192c:	e3130002 	tst	r3, #2
    1930:	0afffffc 	beq	1928 <serial_puts+0x40>
    1934:	f57ff04f 	dsb	sy
    1938:	f57ff06f 	isb	sy
    193c:	e58c1000 	str	r1, [ip]
    1940:	f57ff04f 	dsb	sy
    1944:	f57ff06f 	isb	sy
    1948:	e5d03000 	ldrb	r3, [r0]
    194c:	e3530000 	cmp	r3, #0
    1950:	1afffff1 	bne	191c <serial_puts+0x34>
    1954:	e3a00000 	mov	r0, #0
    1958:	e49df004 	pop	{pc}		; (ldr pc, [sp], #4)
    195c:	e592307c 	ldr	r3, [r2, #124]	; 0x7c
    1960:	e3130002 	tst	r3, #2
    1964:	0afffffc 	beq	195c <serial_puts+0x74>
    1968:	f57ff04f 	dsb	sy
    196c:	f57ff06f 	isb	sy
    1970:	e58ce000 	str	lr, [ip]
    1974:	f57ff04f 	dsb	sy
    1978:	f57ff06f 	isb	sy
    197c:	eaffffe8 	b	1924 <serial_puts+0x3c>
    1980:	e3a00000 	mov	r0, #0
    1984:	e12fff1e 	bx	lr
    1988:	e3e00000 	mvn	r0, #0
    198c:	e12fff1e 	bx	lr

00001990 <serial_gets>:
    1990:	e3023e60 	movw	r3, #11872	; 0x2e60
    1994:	e3403000 	movt	r3, #0
    1998:	e593300c 	ldr	r3, [r3, #12]
    199c:	e3530000 	cmp	r3, #0
    19a0:	1a000001 	bne	19ac <serial_gets+0x1c>
    19a4:	e3e00000 	mvn	r0, #0
    19a8:	e12fff1e 	bx	lr
    19ac:	e3510000 	cmp	r1, #0
    19b0:	0a000018 	beq	1a18 <serial_gets+0x88>
    19b4:	e3a0c902 	mov	ip, #32768	; 0x8000
    19b8:	e52de004 	push	{lr}		; (str lr, [sp, #-4]!)
    19bc:	e34fc1c2 	movt	ip, #61890	; 0xf1c2
    19c0:	e240e001 	sub	lr, r0, #1
    19c4:	e3a00000 	mov	r0, #0
    19c8:	e30f3fff 	movw	r3, #65535	; 0xffff
    19cc:	ea000001 	b	19d8 <serial_gets+0x48>
    19d0:	e2533001 	subs	r3, r3, #1
    19d4:	3a000004 	bcc	19ec <serial_gets+0x5c>
    19d8:	e59c207c 	ldr	r2, [ip, #124]	; 0x7c
    19dc:	e3120008 	tst	r2, #8
    19e0:	0afffffa 	beq	19d0 <serial_gets+0x40>
    19e4:	e3530000 	cmp	r3, #0
    19e8:	0a000008 	beq	1a10 <serial_gets+0x80>
    19ec:	e59c3000 	ldr	r3, [ip]
    19f0:	e2800001 	add	r0, r0, #1
    19f4:	e21330ff 	ands	r3, r3, #255	; 0xff
    19f8:	0a000008 	beq	1a20 <serial_gets+0x90>
    19fc:	e1510000 	cmp	r1, r0
    1a00:	e5ee3001 	strb	r3, [lr, #1]!
    1a04:	1affffef 	bne	19c8 <serial_gets+0x38>
    1a08:	e2810001 	add	r0, r1, #1
    1a0c:	e49df004 	pop	{pc}		; (ldr pc, [sp], #4)
    1a10:	e2800001 	add	r0, r0, #1
    1a14:	e49df004 	pop	{pc}		; (ldr pc, [sp], #4)
    1a18:	e3a00001 	mov	r0, #1
    1a1c:	e12fff1e 	bx	lr
    1a20:	e49df004 	pop	{pc}		; (ldr pc, [sp], #4)

00001a24 <utoa>:
    1a24:	e302cd48 	movw	ip, #11592	; 0x2d48
    1a28:	e3500000 	cmp	r0, #0
    1a2c:	e340c000 	movt	ip, #0
    1a30:	e92d43f0 	push	{r4, r5, r6, r7, r8, r9, lr}
    1a34:	e1a05000 	mov	r5, r0
    1a38:	e1a08001 	mov	r8, r1
    1a3c:	e1a07002 	mov	r7, r2
    1a40:	e8bc000f 	ldm	ip!, {r0, r1, r2, r3}
    1a44:	e24dd02c 	sub	sp, sp, #44	; 0x2c
    1a48:	e28de014 	add	lr, sp, #20
    1a4c:	128d9003 	addne	r9, sp, #3
    1a50:	13a06000 	movne	r6, #0
    1a54:	e59cc000 	ldr	ip, [ip]
    1a58:	e8ae000f 	stmia	lr!, {r0, r1, r2, r3}
    1a5c:	e5cec000 	strb	ip, [lr]
    1a60:	1a000001 	bne	1a6c <utoa+0x48>
    1a64:	ea00001b 	b	1ad8 <utoa+0xb4>
    1a68:	e1a06003 	mov	r6, r3
    1a6c:	e1a00005 	mov	r0, r5
    1a70:	e1a01007 	mov	r1, r7
    1a74:	eb000269 	bl	2420 <__aeabi_uidivmod>
    1a78:	e28d3028 	add	r3, sp, #40	; 0x28
    1a7c:	e1a00005 	mov	r0, r5
    1a80:	e0833001 	add	r3, r3, r1
    1a84:	e1a01007 	mov	r1, r7
    1a88:	e5534014 	ldrb	r4, [r3, #-20]	; 0xffffffec
    1a8c:	e5e94001 	strb	r4, [r9, #1]!
    1a90:	eb000208 	bl	22b8 <__aeabi_uidiv>
    1a94:	e2863001 	add	r3, r6, #1
    1a98:	e2505000 	subs	r5, r0, #0
    1a9c:	1afffff1 	bne	1a68 <utoa+0x44>
    1aa0:	e28d1004 	add	r1, sp, #4
    1aa4:	e2482001 	sub	r2, r8, #1
    1aa8:	e0813006 	add	r3, r1, r6
    1aac:	ea000000 	b	1ab4 <utoa+0x90>
    1ab0:	e5734001 	ldrb	r4, [r3, #-1]!
    1ab4:	e1530001 	cmp	r3, r1
    1ab8:	e5e24001 	strb	r4, [r2, #1]!
    1abc:	1afffffb 	bne	1ab0 <utoa+0x8c>
    1ac0:	e0886006 	add	r6, r8, r6
    1ac4:	e3a03000 	mov	r3, #0
    1ac8:	e1a00008 	mov	r0, r8
    1acc:	e5c63001 	strb	r3, [r6, #1]
    1ad0:	e28dd02c 	add	sp, sp, #44	; 0x2c
    1ad4:	e8bd83f0 	pop	{r4, r5, r6, r7, r8, r9, pc}
    1ad8:	e3a03030 	mov	r3, #48	; 0x30
    1adc:	e1a00008 	mov	r0, r8
    1ae0:	e5c85001 	strb	r5, [r8, #1]
    1ae4:	e5c83000 	strb	r3, [r8]
    1ae8:	e28dd02c 	add	sp, sp, #44	; 0x2c
    1aec:	e8bd83f0 	pop	{r4, r5, r6, r7, r8, r9, pc}

00001af0 <print_align>:
    1af0:	e92d4070 	push	{r4, r5, r6, lr}
    1af4:	e302ed5c 	movw	lr, #11612	; 0x2d5c
    1af8:	e340e000 	movt	lr, #0
    1afc:	e1a06001 	mov	r6, r1
    1b00:	e1a05002 	mov	r5, r2
    1b04:	e1a0c000 	mov	ip, r0
    1b08:	e8be000f 	ldm	lr!, {r0, r1, r2, r3}
    1b0c:	e24dd018 	sub	sp, sp, #24
    1b10:	e1560005 	cmp	r6, r5
    1b14:	e28d4004 	add	r4, sp, #4
    1b18:	e59ee000 	ldr	lr, [lr]
    1b1c:	e8a4000f 	stmia	r4!, {r0, r1, r2, r3}
    1b20:	a3a00000 	movge	r0, #0
    1b24:	e5c4e000 	strb	lr, [r4]
    1b28:	aa000011 	bge	1b74 <print_align+0x84>
    1b2c:	e5dc3000 	ldrb	r3, [ip]
    1b30:	e0660005 	rsb	r0, r6, r5
    1b34:	e3530000 	cmp	r3, #0
    1b38:	0a000002 	beq	1b48 <print_align+0x58>
    1b3c:	e5fc3001 	ldrb	r3, [ip, #1]!
    1b40:	e3530000 	cmp	r3, #0
    1b44:	1afffffc 	bne	1b3c <print_align+0x4c>
    1b48:	e1a0300c 	mov	r3, ip
    1b4c:	e28d4004 	add	r4, sp, #4
    1b50:	e1a0e000 	mov	lr, r0
    1b54:	ea000001 	b	1b60 <print_align+0x70>
    1b58:	e25ee001 	subs	lr, lr, #1
    1b5c:	0a000006 	beq	1b7c <print_align+0x8c>
    1b60:	e4d4c001 	ldrb	ip, [r4], #1
    1b64:	e1a02003 	mov	r2, r3
    1b68:	e35c0000 	cmp	ip, #0
    1b6c:	e4c3c001 	strb	ip, [r3], #1
    1b70:	1afffff8 	bne	1b58 <print_align+0x68>
    1b74:	e28dd018 	add	sp, sp, #24
    1b78:	e8bd8070 	pop	{r4, r5, r6, pc}
    1b7c:	e5c2e001 	strb	lr, [r2, #1]
    1b80:	e28dd018 	add	sp, sp, #24
    1b84:	e8bd8070 	pop	{r4, r5, r6, pc}

00001b88 <itoa.constprop.0>:
    1b88:	e92d4070 	push	{r4, r5, r6, lr}
    1b8c:	e3024d48 	movw	r4, #11592	; 0x2d48
    1b90:	e3404000 	movt	r4, #0
    1b94:	e1a0c000 	mov	ip, r0
    1b98:	e1a0e001 	mov	lr, r1
    1b9c:	e24dd028 	sub	sp, sp, #40	; 0x28
    1ba0:	e8b4000f 	ldm	r4!, {r0, r1, r2, r3}
    1ba4:	e28d5014 	add	r5, sp, #20
    1ba8:	e35c0000 	cmp	ip, #0
    1bac:	e5944000 	ldr	r4, [r4]
    1bb0:	e8a5000f 	stmia	r5!, {r0, r1, r2, r3}
    1bb4:	e5c54000 	strb	r4, [r5]
    1bb8:	0a000029 	beq	1c64 <itoa.constprop.0+0xdc>
    1bbc:	e3064667 	movw	r4, #26215	; 0x6667
    1bc0:	b26cc000 	rsblt	ip, ip, #0
    1bc4:	b3a05001 	movlt	r5, #1
    1bc8:	a3a05000 	movge	r5, #0
    1bcc:	e28d0003 	add	r0, sp, #3
    1bd0:	e3464666 	movt	r4, #26214	; 0x6666
    1bd4:	e3a01000 	mov	r1, #0
    1bd8:	ea000000 	b	1be0 <itoa.constprop.0+0x58>
    1bdc:	e1a01006 	mov	r1, r6
    1be0:	e0c3249c 	smull	r2, r3, ip, r4
    1be4:	e1a02fcc 	asr	r2, ip, #31
    1be8:	e2816001 	add	r6, r1, #1
    1bec:	e0622143 	rsb	r2, r2, r3, asr #2
    1bf0:	e1a03182 	lsl	r3, r2, #3
    1bf4:	e0833082 	add	r3, r3, r2, lsl #1
    1bf8:	e063300c 	rsb	r3, r3, ip
    1bfc:	e252c000 	subs	ip, r2, #0
    1c00:	e28d2028 	add	r2, sp, #40	; 0x28
    1c04:	e0823003 	add	r3, r2, r3
    1c08:	e5533014 	ldrb	r3, [r3, #-20]	; 0xffffffec
    1c0c:	e5e03001 	strb	r3, [r0, #1]!
    1c10:	1afffff1 	bne	1bdc <itoa.constprop.0+0x54>
    1c14:	e3550000 	cmp	r5, #0
    1c18:	e28dc004 	add	ip, sp, #4
    1c1c:	13a05001 	movne	r5, #1
    1c20:	e2450001 	sub	r0, r5, #1
    1c24:	13a0202d 	movne	r2, #45	; 0x2d
    1c28:	e08e0000 	add	r0, lr, r0
    1c2c:	15ce2000 	strbne	r2, [lr]
    1c30:	e08c2001 	add	r2, ip, r1
    1c34:	ea000000 	b	1c3c <itoa.constprop.0+0xb4>
    1c38:	e5723001 	ldrb	r3, [r2, #-1]!
    1c3c:	e15c0002 	cmp	ip, r2
    1c40:	e5e03001 	strb	r3, [r0, #1]!
    1c44:	1afffffb 	bne	1c38 <itoa.constprop.0+0xb0>
    1c48:	e2855001 	add	r5, r5, #1
    1c4c:	e3a03000 	mov	r3, #0
    1c50:	e08e5005 	add	r5, lr, r5
    1c54:	e1a0000e 	mov	r0, lr
    1c58:	e7c53001 	strb	r3, [r5, r1]
    1c5c:	e28dd028 	add	sp, sp, #40	; 0x28
    1c60:	e8bd8070 	pop	{r4, r5, r6, pc}
    1c64:	e3a03030 	mov	r3, #48	; 0x30
    1c68:	e1a0000e 	mov	r0, lr
    1c6c:	e5cec001 	strb	ip, [lr, #1]
    1c70:	e5ce3000 	strb	r3, [lr]
    1c74:	e28dd028 	add	sp, sp, #40	; 0x28
    1c78:	e8bd8070 	pop	{r4, r5, r6, pc}

00001c7c <printk>:
    1c7c:	e92d000f 	push	{r0, r1, r2, r3}
    1c80:	e92d47f0 	push	{r4, r5, r6, r7, r8, r9, sl, lr}
    1c84:	e24dd018 	sub	sp, sp, #24
    1c88:	e28d303c 	add	r3, sp, #60	; 0x3c
    1c8c:	e3026e70 	movw	r6, #11888	; 0x2e70
    1c90:	e59d4038 	ldr	r4, [sp, #56]	; 0x38
    1c94:	e58d3004 	str	r3, [sp, #4]
    1c98:	e5d43000 	ldrb	r3, [r4]
    1c9c:	e3530000 	cmp	r3, #0
    1ca0:	0a00002f 	beq	1d64 <printk+0xe8>
    1ca4:	e3406000 	movt	r6, #0
    1ca8:	e28d8008 	add	r8, sp, #8
    1cac:	e3a07025 	mov	r7, #37	; 0x25
    1cb0:	e1a05006 	mov	r5, r6
    1cb4:	ea000003 	b	1cc8 <printk+0x4c>
    1cb8:	e5d43001 	ldrb	r3, [r4, #1]
    1cbc:	e2844001 	add	r4, r4, #1
    1cc0:	e3530000 	cmp	r3, #0
    1cc4:	0a000028 	beq	1d6c <printk+0xf0>
    1cc8:	e3530025 	cmp	r3, #37	; 0x25
    1ccc:	15c53000 	strbne	r3, [r5]
    1cd0:	12855001 	addne	r5, r5, #1
    1cd4:	1afffff7 	bne	1cb8 <printk+0x3c>
    1cd8:	e5d49001 	ldrb	r9, [r4, #1]
    1cdc:	e2493031 	sub	r3, r9, #49	; 0x31
    1ce0:	e3530008 	cmp	r3, #8
    1ce4:	82844001 	addhi	r4, r4, #1
    1ce8:	92499030 	subls	r9, r9, #48	; 0x30
    1cec:	95d43002 	ldrbls	r3, [r4, #2]
    1cf0:	81a03009 	movhi	r3, r9
    1cf4:	92844002 	addls	r4, r4, #2
    1cf8:	83a09000 	movhi	r9, #0
    1cfc:	e2433063 	sub	r3, r3, #99	; 0x63
    1d00:	e3530015 	cmp	r3, #21
    1d04:	979ff103 	ldrls	pc, [pc, r3, lsl #2]
    1d08:	ea00008e 	b	1f48 <printk+0x2cc>
    1d0c:	00001f30 	andeq	r1, r0, r0, lsr pc
    1d10:	00001ec4 	andeq	r1, r0, r4, asr #29
    1d14:	00001f48 	andeq	r1, r0, r8, asr #30
    1d18:	00001f48 	andeq	r1, r0, r8, asr #30
    1d1c:	00001f48 	andeq	r1, r0, r8, asr #30
    1d20:	00001f48 	andeq	r1, r0, r8, asr #30
    1d24:	00001f48 	andeq	r1, r0, r8, asr #30
    1d28:	00001f48 	andeq	r1, r0, r8, asr #30
    1d2c:	00001f48 	andeq	r1, r0, r8, asr #30
    1d30:	00001f48 	andeq	r1, r0, r8, asr #30
    1d34:	00001f48 	andeq	r1, r0, r8, asr #30
    1d38:	00001f48 	andeq	r1, r0, r8, asr #30
    1d3c:	00001f48 	andeq	r1, r0, r8, asr #30
    1d40:	00001e54 	andeq	r1, r0, r4, asr lr
    1d44:	00001f48 	andeq	r1, r0, r8, asr #30
    1d48:	00001f48 	andeq	r1, r0, r8, asr #30
    1d4c:	00001e04 	andeq	r1, r0, r4, lsl #28
    1d50:	00001f48 	andeq	r1, r0, r8, asr #30
    1d54:	00001d94 	muleq	r0, r4, sp
    1d58:	00001f48 	andeq	r1, r0, r8, asr #30
    1d5c:	00001f48 	andeq	r1, r0, r8, asr #30
    1d60:	00001e54 	andeq	r1, r0, r4, asr lr
    1d64:	e3406000 	movt	r6, #0
    1d68:	e1a05006 	mov	r5, r6
    1d6c:	e3020e70 	movw	r0, #11888	; 0x2e70
    1d70:	e3a03000 	mov	r3, #0
    1d74:	e3400000 	movt	r0, #0
    1d78:	e4c53001 	strb	r3, [r5], #1
    1d7c:	ebfffed9 	bl	18e8 <serial_puts>
    1d80:	e0660005 	rsb	r0, r6, r5
    1d84:	e28dd018 	add	sp, sp, #24
    1d88:	e8bd47f0 	pop	{r4, r5, r6, r7, r8, r9, sl, lr}
    1d8c:	e28dd010 	add	sp, sp, #16
    1d90:	e12fff1e 	bx	lr
    1d94:	e59d3004 	ldr	r3, [sp, #4]
    1d98:	e3a0200a 	mov	r2, #10
    1d9c:	e1a01008 	mov	r1, r8
    1da0:	e2830004 	add	r0, r3, #4
    1da4:	e58d0004 	str	r0, [sp, #4]
    1da8:	e5930000 	ldr	r0, [r3]
    1dac:	ebffff1c 	bl	1a24 <utoa>
    1db0:	e5dd3008 	ldrb	r3, [sp, #8]
    1db4:	e3530000 	cmp	r3, #0
    1db8:	0a00006a 	beq	1f68 <printk+0x2ec>
    1dbc:	e1a03008 	mov	r3, r8
    1dc0:	e5f32001 	ldrb	r2, [r3, #1]!
    1dc4:	e3520000 	cmp	r2, #0
    1dc8:	1afffffc 	bne	1dc0 <printk+0x144>
    1dcc:	e068a003 	rsb	sl, r8, r3
    1dd0:	e1a02009 	mov	r2, r9
    1dd4:	e1a0100a 	mov	r1, sl
    1dd8:	e1a00008 	mov	r0, r8
    1ddc:	ebffff43 	bl	1af0 <print_align>
    1de0:	e2451001 	sub	r1, r5, #1
    1de4:	e1a02008 	mov	r2, r8
    1de8:	e080000a 	add	r0, r0, sl
    1dec:	e4d23001 	ldrb	r3, [r2], #1
    1df0:	e3530000 	cmp	r3, #0
    1df4:	e5e13001 	strb	r3, [r1, #1]!
    1df8:	1afffffb 	bne	1dec <printk+0x170>
    1dfc:	e0855000 	add	r5, r5, r0
    1e00:	eaffffac 	b	1cb8 <printk+0x3c>
    1e04:	e59d3004 	ldr	r3, [sp, #4]
    1e08:	e2451001 	sub	r1, r5, #1
    1e0c:	e2832004 	add	r2, r3, #4
    1e10:	e58d2004 	str	r2, [sp, #4]
    1e14:	e5930000 	ldr	r0, [r3]
    1e18:	e1a02000 	mov	r2, r0
    1e1c:	e4d23001 	ldrb	r3, [r2], #1
    1e20:	e3530000 	cmp	r3, #0
    1e24:	e5e13001 	strb	r3, [r1, #1]!
    1e28:	1afffffb 	bne	1e1c <printk+0x1a0>
    1e2c:	e5d03000 	ldrb	r3, [r0]
    1e30:	e3530000 	cmp	r3, #0
    1e34:	e1a03000 	mov	r3, r0
    1e38:	0a000002 	beq	1e48 <printk+0x1cc>
    1e3c:	e5f32001 	ldrb	r2, [r3, #1]!
    1e40:	e3520000 	cmp	r2, #0
    1e44:	1afffffc 	bne	1e3c <printk+0x1c0>
    1e48:	e0603003 	rsb	r3, r0, r3
    1e4c:	e0855003 	add	r5, r5, r3
    1e50:	eaffff98 	b	1cb8 <printk+0x3c>
    1e54:	e59d3004 	ldr	r3, [sp, #4]
    1e58:	e3a02010 	mov	r2, #16
    1e5c:	e1a01008 	mov	r1, r8
    1e60:	e2830004 	add	r0, r3, #4
    1e64:	e58d0004 	str	r0, [sp, #4]
    1e68:	e5930000 	ldr	r0, [r3]
    1e6c:	ebfffeec 	bl	1a24 <utoa>
    1e70:	e5dd3008 	ldrb	r3, [sp, #8]
    1e74:	e3530000 	cmp	r3, #0
    1e78:	0a00003c 	beq	1f70 <printk+0x2f4>
    1e7c:	e1a03008 	mov	r3, r8
    1e80:	e5f32001 	ldrb	r2, [r3, #1]!
    1e84:	e3520000 	cmp	r2, #0
    1e88:	1afffffc 	bne	1e80 <printk+0x204>
    1e8c:	e068a003 	rsb	sl, r8, r3
    1e90:	e1a02009 	mov	r2, r9
    1e94:	e1a0100a 	mov	r1, sl
    1e98:	e1a00008 	mov	r0, r8
    1e9c:	ebffff13 	bl	1af0 <print_align>
    1ea0:	e2451001 	sub	r1, r5, #1
    1ea4:	e1a02008 	mov	r2, r8
    1ea8:	e080000a 	add	r0, r0, sl
    1eac:	e4d23001 	ldrb	r3, [r2], #1
    1eb0:	e3530000 	cmp	r3, #0
    1eb4:	e5e13001 	strb	r3, [r1, #1]!
    1eb8:	1afffffb 	bne	1eac <printk+0x230>
    1ebc:	e0855000 	add	r5, r5, r0
    1ec0:	eaffff7c 	b	1cb8 <printk+0x3c>
    1ec4:	e59d3004 	ldr	r3, [sp, #4]
    1ec8:	e1a01008 	mov	r1, r8
    1ecc:	e2832004 	add	r2, r3, #4
    1ed0:	e58d2004 	str	r2, [sp, #4]
    1ed4:	e5930000 	ldr	r0, [r3]
    1ed8:	ebffff2a 	bl	1b88 <itoa.constprop.0>
    1edc:	e5dd3008 	ldrb	r3, [sp, #8]
    1ee0:	e3530000 	cmp	r3, #0
    1ee4:	0a00001d 	beq	1f60 <printk+0x2e4>
    1ee8:	e1a03008 	mov	r3, r8
    1eec:	e5f32001 	ldrb	r2, [r3, #1]!
    1ef0:	e3520000 	cmp	r2, #0
    1ef4:	1afffffc 	bne	1eec <printk+0x270>
    1ef8:	e068a003 	rsb	sl, r8, r3
    1efc:	e1a02009 	mov	r2, r9
    1f00:	e1a0100a 	mov	r1, sl
    1f04:	e1a00008 	mov	r0, r8
    1f08:	ebfffef8 	bl	1af0 <print_align>
    1f0c:	e2451001 	sub	r1, r5, #1
    1f10:	e1a02008 	mov	r2, r8
    1f14:	e080000a 	add	r0, r0, sl
    1f18:	e4d23001 	ldrb	r3, [r2], #1
    1f1c:	e3530000 	cmp	r3, #0
    1f20:	e5e13001 	strb	r3, [r1, #1]!
    1f24:	1afffffb 	bne	1f18 <printk+0x29c>
    1f28:	e0855000 	add	r5, r5, r0
    1f2c:	eaffff61 	b	1cb8 <printk+0x3c>
    1f30:	e59d3004 	ldr	r3, [sp, #4]
    1f34:	e2832004 	add	r2, r3, #4
    1f38:	e58d2004 	str	r2, [sp, #4]
    1f3c:	e5933000 	ldr	r3, [r3]
    1f40:	e5c53000 	strb	r3, [r5]
    1f44:	eaffff5b 	b	1cb8 <printk+0x3c>
    1f48:	e1a03005 	mov	r3, r5
    1f4c:	e4c37002 	strb	r7, [r3], #2
    1f50:	e5d42000 	ldrb	r2, [r4]
    1f54:	e5c52001 	strb	r2, [r5, #1]
    1f58:	e1a05003 	mov	r5, r3
    1f5c:	eaffff55 	b	1cb8 <printk+0x3c>
    1f60:	e1a0a003 	mov	sl, r3
    1f64:	eaffffe4 	b	1efc <printk+0x280>
    1f68:	e1a0a003 	mov	sl, r3
    1f6c:	eaffff97 	b	1dd0 <printk+0x154>
    1f70:	e1a0a003 	mov	sl, r3
    1f74:	eaffffc5 	b	1e90 <printk+0x214>

00001f78 <printk_nommu>:
    1f78:	e92d000f 	push	{r0, r1, r2, r3}
    1f7c:	e92d47f0 	push	{r4, r5, r6, r7, r8, r9, sl, lr}
    1f80:	e24dd018 	sub	sp, sp, #24
    1f84:	e28d303c 	add	r3, sp, #60	; 0x3c
    1f88:	e3026e70 	movw	r6, #11888	; 0x2e70
    1f8c:	e59d4038 	ldr	r4, [sp, #56]	; 0x38
    1f90:	e58d3004 	str	r3, [sp, #4]
    1f94:	e5d43000 	ldrb	r3, [r4]
    1f98:	e3530000 	cmp	r3, #0
    1f9c:	0a00002f 	beq	2060 <printk_nommu+0xe8>
    1fa0:	e3406000 	movt	r6, #0
    1fa4:	e28d8008 	add	r8, sp, #8
    1fa8:	e3a07025 	mov	r7, #37	; 0x25
    1fac:	e1a05006 	mov	r5, r6
    1fb0:	ea000003 	b	1fc4 <printk_nommu+0x4c>
    1fb4:	e5d43001 	ldrb	r3, [r4, #1]
    1fb8:	e2844001 	add	r4, r4, #1
    1fbc:	e3530000 	cmp	r3, #0
    1fc0:	0a000028 	beq	2068 <printk_nommu+0xf0>
    1fc4:	e3530025 	cmp	r3, #37	; 0x25
    1fc8:	15c53000 	strbne	r3, [r5]
    1fcc:	12855001 	addne	r5, r5, #1
    1fd0:	1afffff7 	bne	1fb4 <printk_nommu+0x3c>
    1fd4:	e5d49001 	ldrb	r9, [r4, #1]
    1fd8:	e2493031 	sub	r3, r9, #49	; 0x31
    1fdc:	e3530008 	cmp	r3, #8
    1fe0:	82844001 	addhi	r4, r4, #1
    1fe4:	92499030 	subls	r9, r9, #48	; 0x30
    1fe8:	95d43002 	ldrbls	r3, [r4, #2]
    1fec:	81a03009 	movhi	r3, r9
    1ff0:	92844002 	addls	r4, r4, #2
    1ff4:	83a09000 	movhi	r9, #0
    1ff8:	e2433063 	sub	r3, r3, #99	; 0x63
    1ffc:	e3530015 	cmp	r3, #21
    2000:	979ff103 	ldrls	pc, [pc, r3, lsl #2]
    2004:	ea00008e 	b	2244 <printk_nommu+0x2cc>
    2008:	0000222c 	andeq	r2, r0, ip, lsr #4
    200c:	000021c0 	andeq	r2, r0, r0, asr #3
    2010:	00002244 	andeq	r2, r0, r4, asr #4
    2014:	00002244 	andeq	r2, r0, r4, asr #4
    2018:	00002244 	andeq	r2, r0, r4, asr #4
    201c:	00002244 	andeq	r2, r0, r4, asr #4
    2020:	00002244 	andeq	r2, r0, r4, asr #4
    2024:	00002244 	andeq	r2, r0, r4, asr #4
    2028:	00002244 	andeq	r2, r0, r4, asr #4
    202c:	00002244 	andeq	r2, r0, r4, asr #4
    2030:	00002244 	andeq	r2, r0, r4, asr #4
    2034:	00002244 	andeq	r2, r0, r4, asr #4
    2038:	00002244 	andeq	r2, r0, r4, asr #4
    203c:	00002150 	andeq	r2, r0, r0, asr r1
    2040:	00002244 	andeq	r2, r0, r4, asr #4
    2044:	00002244 	andeq	r2, r0, r4, asr #4
    2048:	00002100 	andeq	r2, r0, r0, lsl #2
    204c:	00002244 	andeq	r2, r0, r4, asr #4
    2050:	00002090 	muleq	r0, r0, r0
    2054:	00002244 	andeq	r2, r0, r4, asr #4
    2058:	00002244 	andeq	r2, r0, r4, asr #4
    205c:	00002150 	andeq	r2, r0, r0, asr r1
    2060:	e3406000 	movt	r6, #0
    2064:	e1a05006 	mov	r5, r6
    2068:	e3020e70 	movw	r0, #11888	; 0x2e70
    206c:	e3a03000 	mov	r3, #0
    2070:	e3400000 	movt	r0, #0
    2074:	e4c53001 	strb	r3, [r5], #1
    2078:	ebfffd97 	bl	16dc <serial_puts_nommu>
    207c:	e0660005 	rsb	r0, r6, r5
    2080:	e28dd018 	add	sp, sp, #24
    2084:	e8bd47f0 	pop	{r4, r5, r6, r7, r8, r9, sl, lr}
    2088:	e28dd010 	add	sp, sp, #16
    208c:	e12fff1e 	bx	lr
    2090:	e59d3004 	ldr	r3, [sp, #4]
    2094:	e3a0200a 	mov	r2, #10
    2098:	e1a01008 	mov	r1, r8
    209c:	e2830004 	add	r0, r3, #4
    20a0:	e58d0004 	str	r0, [sp, #4]
    20a4:	e5930000 	ldr	r0, [r3]
    20a8:	ebfffe5d 	bl	1a24 <utoa>
    20ac:	e5dd3008 	ldrb	r3, [sp, #8]
    20b0:	e3530000 	cmp	r3, #0
    20b4:	0a00006a 	beq	2264 <printk_nommu+0x2ec>
    20b8:	e1a03008 	mov	r3, r8
    20bc:	e5f32001 	ldrb	r2, [r3, #1]!
    20c0:	e3520000 	cmp	r2, #0
    20c4:	1afffffc 	bne	20bc <printk_nommu+0x144>
    20c8:	e068a003 	rsb	sl, r8, r3
    20cc:	e1a02009 	mov	r2, r9
    20d0:	e1a0100a 	mov	r1, sl
    20d4:	e1a00008 	mov	r0, r8
    20d8:	ebfffe84 	bl	1af0 <print_align>
    20dc:	e2451001 	sub	r1, r5, #1
    20e0:	e1a02008 	mov	r2, r8
    20e4:	e080000a 	add	r0, r0, sl
    20e8:	e4d23001 	ldrb	r3, [r2], #1
    20ec:	e3530000 	cmp	r3, #0
    20f0:	e5e13001 	strb	r3, [r1, #1]!
    20f4:	1afffffb 	bne	20e8 <printk_nommu+0x170>
    20f8:	e0855000 	add	r5, r5, r0
    20fc:	eaffffac 	b	1fb4 <printk_nommu+0x3c>
    2100:	e59d3004 	ldr	r3, [sp, #4]
    2104:	e2451001 	sub	r1, r5, #1
    2108:	e2832004 	add	r2, r3, #4
    210c:	e58d2004 	str	r2, [sp, #4]
    2110:	e5930000 	ldr	r0, [r3]
    2114:	e1a02000 	mov	r2, r0
    2118:	e4d23001 	ldrb	r3, [r2], #1
    211c:	e3530000 	cmp	r3, #0
    2120:	e5e13001 	strb	r3, [r1, #1]!
    2124:	1afffffb 	bne	2118 <printk_nommu+0x1a0>
    2128:	e5d03000 	ldrb	r3, [r0]
    212c:	e3530000 	cmp	r3, #0
    2130:	e1a03000 	mov	r3, r0
    2134:	0a000002 	beq	2144 <printk_nommu+0x1cc>
    2138:	e5f32001 	ldrb	r2, [r3, #1]!
    213c:	e3520000 	cmp	r2, #0
    2140:	1afffffc 	bne	2138 <printk_nommu+0x1c0>
    2144:	e0603003 	rsb	r3, r0, r3
    2148:	e0855003 	add	r5, r5, r3
    214c:	eaffff98 	b	1fb4 <printk_nommu+0x3c>
    2150:	e59d3004 	ldr	r3, [sp, #4]
    2154:	e3a02010 	mov	r2, #16
    2158:	e1a01008 	mov	r1, r8
    215c:	e2830004 	add	r0, r3, #4
    2160:	e58d0004 	str	r0, [sp, #4]
    2164:	e5930000 	ldr	r0, [r3]
    2168:	ebfffe2d 	bl	1a24 <utoa>
    216c:	e5dd3008 	ldrb	r3, [sp, #8]
    2170:	e3530000 	cmp	r3, #0
    2174:	0a00003c 	beq	226c <printk_nommu+0x2f4>
    2178:	e1a03008 	mov	r3, r8
    217c:	e5f32001 	ldrb	r2, [r3, #1]!
    2180:	e3520000 	cmp	r2, #0
    2184:	1afffffc 	bne	217c <printk_nommu+0x204>
    2188:	e068a003 	rsb	sl, r8, r3
    218c:	e1a02009 	mov	r2, r9
    2190:	e1a0100a 	mov	r1, sl
    2194:	e1a00008 	mov	r0, r8
    2198:	ebfffe54 	bl	1af0 <print_align>
    219c:	e2451001 	sub	r1, r5, #1
    21a0:	e1a02008 	mov	r2, r8
    21a4:	e080000a 	add	r0, r0, sl
    21a8:	e4d23001 	ldrb	r3, [r2], #1
    21ac:	e3530000 	cmp	r3, #0
    21b0:	e5e13001 	strb	r3, [r1, #1]!
    21b4:	1afffffb 	bne	21a8 <printk_nommu+0x230>
    21b8:	e0855000 	add	r5, r5, r0
    21bc:	eaffff7c 	b	1fb4 <printk_nommu+0x3c>
    21c0:	e59d3004 	ldr	r3, [sp, #4]
    21c4:	e1a01008 	mov	r1, r8
    21c8:	e2832004 	add	r2, r3, #4
    21cc:	e58d2004 	str	r2, [sp, #4]
    21d0:	e5930000 	ldr	r0, [r3]
    21d4:	ebfffe6b 	bl	1b88 <itoa.constprop.0>
    21d8:	e5dd3008 	ldrb	r3, [sp, #8]
    21dc:	e3530000 	cmp	r3, #0
    21e0:	0a00001d 	beq	225c <printk_nommu+0x2e4>
    21e4:	e1a03008 	mov	r3, r8
    21e8:	e5f32001 	ldrb	r2, [r3, #1]!
    21ec:	e3520000 	cmp	r2, #0
    21f0:	1afffffc 	bne	21e8 <printk_nommu+0x270>
    21f4:	e068a003 	rsb	sl, r8, r3
    21f8:	e1a02009 	mov	r2, r9
    21fc:	e1a0100a 	mov	r1, sl
    2200:	e1a00008 	mov	r0, r8
    2204:	ebfffe39 	bl	1af0 <print_align>
    2208:	e2451001 	sub	r1, r5, #1
    220c:	e1a02008 	mov	r2, r8
    2210:	e080000a 	add	r0, r0, sl
    2214:	e4d23001 	ldrb	r3, [r2], #1
    2218:	e3530000 	cmp	r3, #0
    221c:	e5e13001 	strb	r3, [r1, #1]!
    2220:	1afffffb 	bne	2214 <printk_nommu+0x29c>
    2224:	e0855000 	add	r5, r5, r0
    2228:	eaffff61 	b	1fb4 <printk_nommu+0x3c>
    222c:	e59d3004 	ldr	r3, [sp, #4]
    2230:	e2832004 	add	r2, r3, #4
    2234:	e58d2004 	str	r2, [sp, #4]
    2238:	e5933000 	ldr	r3, [r3]
    223c:	e5c53000 	strb	r3, [r5]
    2240:	eaffff5b 	b	1fb4 <printk_nommu+0x3c>
    2244:	e1a03005 	mov	r3, r5
    2248:	e4c37002 	strb	r7, [r3], #2
    224c:	e5d42000 	ldrb	r2, [r4]
    2250:	e5c52001 	strb	r2, [r5, #1]
    2254:	e1a05003 	mov	r5, r3
    2258:	eaffff55 	b	1fb4 <printk_nommu+0x3c>
    225c:	e1a0a003 	mov	sl, r3
    2260:	eaffffe4 	b	21f8 <printk_nommu+0x280>
    2264:	e1a0a003 	mov	sl, r3
    2268:	eaffff97 	b	20cc <printk_nommu+0x154>
    226c:	e1a0a003 	mov	sl, r3
    2270:	eaffffc5 	b	218c <printk_nommu+0x214>

00002274 <standby_delay>:
    2274:	e92d000f 	push	{r0, r1, r2, r3}
    2278:	e3a01011 	mov	r1, #17
    227c:	e1a03000 	mov	r3, r0

00002280 <standby_delay_loop2>:
    2280:	e2500001 	subs	r0, r0, #1
    2284:	8afffffd 	bhi	2280 <standby_delay_loop2>
    2288:	e1a00003 	mov	r0, r3
    228c:	e2511001 	subs	r1, r1, #1
    2290:	8afffffa 	bhi	2280 <standby_delay_loop2>
    2294:	e8bd000f 	pop	{r0, r1, r2, r3}
    2298:	e1a0f00e 	mov	pc, lr

0000229c <standby_delay_cycle>:
    229c:	e2500001 	subs	r0, r0, #1
    22a0:	8afffffd 	bhi	229c <standby_delay_cycle>
    22a4:	e1a0f00e 	mov	pc, lr

000022a8 <Ldiv0>:
    22a8:	e52de008 	str	lr, [sp, #-8]!
    22ac:	eb000067 	bl	2450 <__mem_div0>
    22b0:	e3a00000 	mov	r0, #0
    22b4:	e49df008 	ldr	pc, [sp], #8

000022b8 <__aeabi_uidiv>:
    22b8:	e2512001 	subs	r2, r1, #1
    22bc:	01a0f00e 	moveq	pc, lr
    22c0:	3afffff8 	bcc	22a8 <Ldiv0>
    22c4:	e1500001 	cmp	r0, r1
    22c8:	9a00001a 	bls	2338 <__aeabi_uidiv+0x80>
    22cc:	e1110002 	tst	r1, r2
    22d0:	0a00001b 	beq	2344 <__aeabi_uidiv+0x8c>
    22d4:	e16f3f11 	clz	r3, r1
    22d8:	e16f2f10 	clz	r2, r0
    22dc:	e0432002 	sub	r2, r3, r2
    22e0:	e3a03001 	mov	r3, #1
    22e4:	e1a01211 	lsl	r1, r1, r2
    22e8:	e1a03213 	lsl	r3, r3, r2
    22ec:	e3a02000 	mov	r2, #0
    22f0:	e1500001 	cmp	r0, r1
    22f4:	20400001 	subcs	r0, r0, r1
    22f8:	21822003 	orrcs	r2, r2, r3
    22fc:	e15000a1 	cmp	r0, r1, lsr #1
    2300:	204000a1 	subcs	r0, r0, r1, lsr #1
    2304:	218220a3 	orrcs	r2, r2, r3, lsr #1
    2308:	e1500121 	cmp	r0, r1, lsr #2
    230c:	20400121 	subcs	r0, r0, r1, lsr #2
    2310:	21822123 	orrcs	r2, r2, r3, lsr #2
    2314:	e15001a1 	cmp	r0, r1, lsr #3
    2318:	204001a1 	subcs	r0, r0, r1, lsr #3
    231c:	218221a3 	orrcs	r2, r2, r3, lsr #3
    2320:	e3500000 	cmp	r0, #0
    2324:	11b03223 	lsrsne	r3, r3, #4
    2328:	11a01221 	lsrne	r1, r1, #4
    232c:	1affffef 	bne	22f0 <__aeabi_uidiv+0x38>
    2330:	e1a00002 	mov	r0, r2
    2334:	e1a0f00e 	mov	pc, lr
    2338:	03a00001 	moveq	r0, #1
    233c:	13a00000 	movne	r0, #0
    2340:	e1a0f00e 	mov	pc, lr
    2344:	e16f2f11 	clz	r2, r1
    2348:	e262201f 	rsb	r2, r2, #31
    234c:	e1a00230 	lsr	r0, r0, r2
    2350:	e1a0f00e 	mov	pc, lr

00002354 <__aeabi_idiv>:
    2354:	e3510000 	cmp	r1, #0
    2358:	e020c001 	eor	ip, r0, r1
    235c:	0affffd1 	beq	22a8 <Ldiv0>
    2360:	42611000 	rsbmi	r1, r1, #0
    2364:	e2512001 	subs	r2, r1, #1
    2368:	0a00001f 	beq	23ec <__aeabi_idiv+0x98>
    236c:	e1b03000 	movs	r3, r0
    2370:	42603000 	rsbmi	r3, r0, #0
    2374:	e1530001 	cmp	r3, r1
    2378:	9a00001e 	bls	23f8 <__aeabi_idiv+0xa4>
    237c:	e1110002 	tst	r1, r2
    2380:	0a000020 	beq	2408 <__aeabi_idiv+0xb4>
    2384:	e16f2f11 	clz	r2, r1
    2388:	e16f0f13 	clz	r0, r3
    238c:	e0420000 	sub	r0, r2, r0
    2390:	e3a02001 	mov	r2, #1
    2394:	e1a01011 	lsl	r1, r1, r0
    2398:	e1a02012 	lsl	r2, r2, r0
    239c:	e3a00000 	mov	r0, #0
    23a0:	e1530001 	cmp	r3, r1
    23a4:	20433001 	subcs	r3, r3, r1
    23a8:	21800002 	orrcs	r0, r0, r2
    23ac:	e15300a1 	cmp	r3, r1, lsr #1
    23b0:	204330a1 	subcs	r3, r3, r1, lsr #1
    23b4:	218000a2 	orrcs	r0, r0, r2, lsr #1
    23b8:	e1530121 	cmp	r3, r1, lsr #2
    23bc:	20433121 	subcs	r3, r3, r1, lsr #2
    23c0:	21800122 	orrcs	r0, r0, r2, lsr #2
    23c4:	e15301a1 	cmp	r3, r1, lsr #3
    23c8:	204331a1 	subcs	r3, r3, r1, lsr #3
    23cc:	218001a2 	orrcs	r0, r0, r2, lsr #3
    23d0:	e3530000 	cmp	r3, #0
    23d4:	11b02222 	lsrsne	r2, r2, #4
    23d8:	11a01221 	lsrne	r1, r1, #4
    23dc:	1affffef 	bne	23a0 <__aeabi_idiv+0x4c>
    23e0:	e35c0000 	cmp	ip, #0
    23e4:	42600000 	rsbmi	r0, r0, #0
    23e8:	e1a0f00e 	mov	pc, lr
    23ec:	e13c0000 	teq	ip, r0
    23f0:	42600000 	rsbmi	r0, r0, #0
    23f4:	e1a0f00e 	mov	pc, lr
    23f8:	33a00000 	movcc	r0, #0
    23fc:	01a00fcc 	asreq	r0, ip, #31
    2400:	03800001 	orreq	r0, r0, #1
    2404:	e1a0f00e 	mov	pc, lr
    2408:	e16f2f11 	clz	r2, r1
    240c:	e262201f 	rsb	r2, r2, #31
    2410:	e35c0000 	cmp	ip, #0
    2414:	e1a00233 	lsr	r0, r3, r2
    2418:	42600000 	rsbmi	r0, r0, #0
    241c:	e1a0f00e 	mov	pc, lr

00002420 <__aeabi_uidivmod>:
    2420:	e92d5003 	push	{r0, r1, ip, lr}
    2424:	ebffffa3 	bl	22b8 <__aeabi_uidiv>
    2428:	e8bd5006 	pop	{r1, r2, ip, lr}
    242c:	e0030290 	mul	r3, r0, r2
    2430:	e0411003 	sub	r1, r1, r3
    2434:	e1a0f00e 	mov	pc, lr

00002438 <__aeabi_idivmod>:
    2438:	e92d5003 	push	{r0, r1, ip, lr}
    243c:	ebffffc4 	bl	2354 <__aeabi_idiv>
    2440:	e8bd5006 	pop	{r1, r2, ip, lr}
    2444:	e0030290 	mul	r3, r0, r2
    2448:	e0411003 	sub	r1, r1, r3
    244c:	e1a0f00e 	mov	pc, lr

00002450 <__mem_div0>:
    2450:	e3020d70 	movw	r0, #11632	; 0x2d70
    2454:	e3400000 	movt	r0, #0
    2458:	eafffe07 	b	1c7c <printk>

0000245c <raw_lib_udiv>:
    245c:	e3510000 	cmp	r1, #0
    2460:	0a000010 	beq	24a8 <raw_lib_udiv+0x4c>
    2464:	e3a03000 	mov	r3, #0
    2468:	ba000002 	blt	2478 <raw_lib_udiv+0x1c>
    246c:	e1b01081 	lsls	r1, r1, #1
    2470:	e2833001 	add	r3, r3, #1
    2474:	5afffffc 	bpl	246c <raw_lib_udiv+0x10>
    2478:	e3a02000 	mov	r2, #0
    247c:	e1500001 	cmp	r0, r1
    2480:	e1a0c082 	lsl	ip, r2, #1
    2484:	e2433001 	sub	r3, r3, #1
    2488:	20610000 	rsbcs	r0, r1, r0
    248c:	238c2001 	orrcs	r2, ip, #1
    2490:	31a02082 	lslcc	r2, r2, #1
    2494:	e3730001 	cmn	r3, #1
    2498:	e1a010a1 	lsr	r1, r1, #1
    249c:	1afffff6 	bne	247c <raw_lib_udiv+0x20>
    24a0:	e1a00002 	mov	r0, r2
    24a4:	e12fff1e 	bx	lr
    24a8:	e1a00001 	mov	r0, r1
    24ac:	e12fff1e 	bx	lr

000024b0 <mem_int_init>:
    24b0:	e3020f70 	movw	r0, #12144	; 0x2f70
    24b4:	e3013184 	movw	r3, #4484	; 0x1184
    24b8:	e3a02d47 	mov	r2, #4544	; 0x11c0
    24bc:	e3400000 	movt	r0, #0
    24c0:	e3a0ca01 	mov	ip, #4096	; 0x1000
    24c4:	e34f31c8 	movt	r3, #61896	; 0xf1c8
    24c8:	e34f21c8 	movt	r2, #61896	; 0xf1c8
    24cc:	e3e01000 	mvn	r1, #0
    24d0:	e34fc1c8 	movt	ip, #61896	; 0xf1c8
    24d4:	e580c000 	str	ip, [r0]
    24d8:	e4831004 	str	r1, [r3], #4
    24dc:	e1530002 	cmp	r3, r2
    24e0:	1afffffc 	bne	24d8 <mem_int_init+0x28>
    24e4:	e3013284 	movw	r3, #4740	; 0x1284
    24e8:	e3a02d4b 	mov	r2, #4800	; 0x12c0
    24ec:	e34f31c8 	movt	r3, #61896	; 0xf1c8
    24f0:	e34f21c8 	movt	r2, #61896	; 0xf1c8
    24f4:	e3e01000 	mvn	r1, #0
    24f8:	e4831004 	str	r1, [r3], #4
    24fc:	e1530002 	cmp	r3, r2
    2500:	1afffffc 	bne	24f8 <mem_int_init+0x48>
    2504:	e3a03a02 	mov	r3, #8192	; 0x2000
    2508:	e30023ff 	movw	r2, #1023	; 0x3ff
    250c:	e34f31c8 	movt	r3, #61896	; 0xf1c8
    2510:	e593100c 	ldr	r1, [r3, #12]
    2514:	e1510002 	cmp	r1, r2
    2518:	0a000006 	beq	2538 <mem_int_init+0x88>
    251c:	e3020d8c 	movw	r0, #11660	; 0x2d8c
    2520:	e92d4010 	push	{r4, lr}
    2524:	e3400000 	movt	r0, #0
    2528:	e5831010 	str	r1, [r3, #16]
    252c:	ebfffdd2 	bl	1c7c <printk>
    2530:	e3a00000 	mov	r0, #0
    2534:	e8bd8010 	pop	{r4, pc}
    2538:	e3a00000 	mov	r0, #0
    253c:	e12fff1e 	bx	lr

00002540 <mem_int_exit>:
    2540:	e3023f70 	movw	r3, #12144	; 0x2f70
    2544:	e24dd008 	sub	sp, sp, #8
    2548:	e3403000 	movt	r3, #0
    254c:	e3a02000 	mov	r2, #0
    2550:	e5930000 	ldr	r0, [r3]
    2554:	e58d2004 	str	r2, [sp, #4]
    2558:	e2803c01 	add	r3, r0, #256	; 0x100
    255c:	e2800d05 	add	r0, r0, #320	; 0x140
    2560:	e5932000 	ldr	r2, [r3]
    2564:	e2833004 	add	r3, r3, #4
    2568:	e58d2004 	str	r2, [sp, #4]
    256c:	e59d1004 	ldr	r1, [sp, #4]
    2570:	e593217c 	ldr	r2, [r3, #380]	; 0x17c
    2574:	e1c22001 	bic	r2, r2, r1
    2578:	e583217c 	str	r2, [r3, #380]	; 0x17c
    257c:	e1530000 	cmp	r3, r0
    2580:	1afffff6 	bne	2560 <mem_int_exit+0x20>
    2584:	e3a00000 	mov	r0, #0
    2588:	e28dd008 	add	sp, sp, #8
    258c:	e12fff1e 	bx	lr

00002590 <mem_enable_int>:
    2590:	e3500000 	cmp	r0, #0
    2594:	e1a012a0 	lsr	r1, r0, #5
    2598:	e3022f70 	movw	r2, #12144	; 0x2f70
    259c:	e3a0ca01 	mov	ip, #4096	; 0x1000
    25a0:	e3402000 	movt	r2, #0
    25a4:	e34fc1c8 	movt	ip, #61896	; 0xf1c8
    25a8:	11a01101 	lslne	r1, r1, #2
    25ac:	e582c000 	str	ip, [r2]
    25b0:	13a02c11 	movne	r2, #4352	; 0x1100
    25b4:	e200301f 	and	r3, r0, #31
    25b8:	134f21c8 	movtne	r2, #61896	; 0xf1c8
    25bc:	10812002 	addne	r2, r1, r2
    25c0:	13a0c001 	movne	ip, #1
    25c4:	13a00000 	movne	r0, #0
    25c8:	15921000 	ldrne	r1, [r2]
    25cc:	03e00000 	mvneq	r0, #0
    25d0:	1181331c 	orrne	r3, r1, ip, lsl r3
    25d4:	15823000 	strne	r3, [r2]
    25d8:	e12fff1e 	bx	lr

000025dc <mem_query_int>:
    25dc:	e3023f70 	movw	r3, #12144	; 0x2f70
    25e0:	e3500000 	cmp	r0, #0
    25e4:	e3403000 	movt	r3, #0
    25e8:	e3a01a01 	mov	r1, #4096	; 0x1000
    25ec:	e1a022a0 	lsr	r2, r0, #5
    25f0:	e34f11c8 	movt	r1, #61896	; 0xf1c8
    25f4:	e200001f 	and	r0, r0, #31
    25f8:	e5831000 	str	r1, [r3]
    25fc:	0a000009 	beq	2628 <mem_query_int+0x4c>
    2600:	e1a02102 	lsl	r2, r2, #2
    2604:	e3a03c12 	mov	r3, #4608	; 0x1200
    2608:	e34f31c8 	movt	r3, #61896	; 0xf1c8
    260c:	e0823003 	add	r3, r2, r3
    2610:	e3a02001 	mov	r2, #1
    2614:	e5933000 	ldr	r3, [r3]
    2618:	e0133012 	ands	r3, r3, r2, lsl r0
    261c:	03e00000 	mvneq	r0, #0
    2620:	13a00000 	movne	r0, #0
    2624:	e12fff1e 	bx	lr
    2628:	e3e00000 	mvn	r0, #0
    262c:	e12fff1e 	bx	lr

00002630 <mem_gpio_save>:
    2630:	e3a03b02 	mov	r3, #2048	; 0x800
    2634:	e3001a5c 	movw	r1, #2652	; 0xa5c
    2638:	e2400004 	sub	r0, r0, #4
    263c:	e34f31c2 	movt	r3, #61890	; 0xf1c2
    2640:	e34f11c2 	movt	r1, #61890	; 0xf1c2
    2644:	e4932004 	ldr	r2, [r3], #4
    2648:	e1530001 	cmp	r3, r1
    264c:	e5a02004 	str	r2, [r0, #4]!
    2650:	1afffffb 	bne	2644 <mem_gpio_save+0x14>
    2654:	e3a00000 	mov	r0, #0
    2658:	e12fff1e 	bx	lr

0000265c <mem_gpio_restore>:
    265c:	e3a03b02 	mov	r3, #2048	; 0x800
    2660:	e3001a5c 	movw	r1, #2652	; 0xa5c
    2664:	e2400004 	sub	r0, r0, #4
    2668:	e34f31c2 	movt	r3, #61890	; 0xf1c2
    266c:	e34f11c2 	movt	r1, #61890	; 0xf1c2
    2670:	e5b02004 	ldr	r2, [r0, #4]!
    2674:	e4832004 	str	r2, [r3], #4
    2678:	e1530001 	cmp	r3, r1
    267c:	1afffffb 	bne	2670 <mem_gpio_restore+0x14>
    2680:	e3a00000 	mov	r0, #0
    2684:	e12fff1e 	bx	lr

00002688 <mem_tmr_save>:
    2688:	e3a03b03 	mov	r3, #3072	; 0xc00
    268c:	e3021f74 	movw	r1, #12148	; 0x2f74
    2690:	e34f31c2 	movt	r3, #61890	; 0xf1c2
    2694:	e1a02000 	mov	r2, r0
    2698:	e593c000 	ldr	ip, [r3]
    269c:	e3401000 	movt	r1, #0
    26a0:	e5813000 	str	r3, [r1]
    26a4:	e3a00000 	mov	r0, #0
    26a8:	e582c000 	str	ip, [r2]
    26ac:	e5931010 	ldr	r1, [r3, #16]
    26b0:	e5821010 	str	r1, [r2, #16]
    26b4:	e5931014 	ldr	r1, [r3, #20]
    26b8:	e5821014 	str	r1, [r2, #20]
    26bc:	e5931018 	ldr	r1, [r3, #24]
    26c0:	e5821018 	str	r1, [r2, #24]
    26c4:	e5931020 	ldr	r1, [r3, #32]
    26c8:	e5821020 	str	r1, [r2, #32]
    26cc:	e5931024 	ldr	r1, [r3, #36]	; 0x24
    26d0:	e5821024 	str	r1, [r2, #36]	; 0x24
    26d4:	e5933028 	ldr	r3, [r3, #40]	; 0x28
    26d8:	e5823028 	str	r3, [r2, #40]	; 0x28
    26dc:	e12fff1e 	bx	lr

000026e0 <mem_tmr_restore>:
    26e0:	e3023f74 	movw	r3, #12148	; 0x2f74
    26e4:	e5901014 	ldr	r1, [r0, #20]
    26e8:	e3403000 	movt	r3, #0
    26ec:	e1a02000 	mov	r2, r0
    26f0:	e5933000 	ldr	r3, [r3]
    26f4:	e3a00000 	mov	r0, #0
    26f8:	e5831014 	str	r1, [r3, #20]
    26fc:	e5921018 	ldr	r1, [r2, #24]
    2700:	e5831018 	str	r1, [r3, #24]
    2704:	e5921010 	ldr	r1, [r2, #16]
    2708:	e5831010 	str	r1, [r3, #16]
    270c:	e5921024 	ldr	r1, [r2, #36]	; 0x24
    2710:	e5831024 	str	r1, [r3, #36]	; 0x24
    2714:	e5921028 	ldr	r1, [r2, #40]	; 0x28
    2718:	e5831028 	str	r1, [r3, #40]	; 0x28
    271c:	e5921020 	ldr	r1, [r2, #32]
    2720:	e5831020 	str	r1, [r3, #32]
    2724:	e5922000 	ldr	r2, [r2]
    2728:	e5832000 	str	r2, [r3]
    272c:	e12fff1e 	bx	lr

00002730 <mem_tmr_init>:
    2730:	e3a02b03 	mov	r2, #3072	; 0xc00
    2734:	e3023f74 	movw	r3, #12148	; 0x2f74
    2738:	e34f21c2 	movt	r2, #61890	; 0xf1c2
    273c:	e3403000 	movt	r3, #0
    2740:	e59210b4 	ldr	r1, [r2, #180]	; 0xb4
    2744:	e3a00000 	mov	r0, #0
    2748:	e5832000 	str	r2, [r3]
    274c:	e5831004 	str	r1, [r3, #4]
    2750:	e59210b8 	ldr	r1, [r2, #184]	; 0xb8
    2754:	e5831008 	str	r1, [r3, #8]
    2758:	e59220a0 	ldr	r2, [r2, #160]	; 0xa0
    275c:	e583200c 	str	r2, [r3, #12]
    2760:	e12fff1e 	bx	lr

00002764 <mem_tmr_exit>:
    2764:	e3023f74 	movw	r3, #12148	; 0x2f74
    2768:	e3a00000 	mov	r0, #0
    276c:	e3403000 	movt	r3, #0
    2770:	e8931004 	ldm	r3, {r2, ip}
    2774:	e5931008 	ldr	r1, [r3, #8]
    2778:	e593300c 	ldr	r3, [r3, #12]
    277c:	e582c0b4 	str	ip, [r2, #180]	; 0xb4
    2780:	e58210b8 	str	r1, [r2, #184]	; 0xb8
    2784:	e58230a0 	str	r3, [r2, #160]	; 0xa0
    2788:	e12fff1e 	bx	lr

0000278c <mem_tmr_enable_watchdog>:
    278c:	e3023f74 	movw	r3, #12148	; 0x2f74
    2790:	e3a010b0 	mov	r1, #176	; 0xb0
    2794:	e3403000 	movt	r3, #0
    2798:	e5933000 	ldr	r3, [r3]
    279c:	e59320b4 	ldr	r2, [r3, #180]	; 0xb4
    27a0:	e3c22003 	bic	r2, r2, #3
    27a4:	e58320b4 	str	r2, [r3, #180]	; 0xb4
    27a8:	e59320b4 	ldr	r2, [r3, #180]	; 0xb4
    27ac:	e3822001 	orr	r2, r2, #1
    27b0:	e58320b4 	str	r2, [r3, #180]	; 0xb4
    27b4:	e58310b8 	str	r1, [r3, #184]	; 0xb8
    27b8:	e59320a0 	ldr	r2, [r3, #160]	; 0xa0
    27bc:	e3822001 	orr	r2, r2, #1
    27c0:	e58320a0 	str	r2, [r3, #160]	; 0xa0
    27c4:	e59320b8 	ldr	r2, [r3, #184]	; 0xb8
    27c8:	e3822001 	orr	r2, r2, #1
    27cc:	e58320b8 	str	r2, [r3, #184]	; 0xb8
    27d0:	e12fff1e 	bx	lr

000027d4 <mem_tmr_disable_watchdog>:
    27d4:	e3023f74 	movw	r3, #12148	; 0x2f74
    27d8:	e3403000 	movt	r3, #0
    27dc:	e5933000 	ldr	r3, [r3]
    27e0:	e59320b4 	ldr	r2, [r3, #180]	; 0xb4
    27e4:	e3c22003 	bic	r2, r2, #3
    27e8:	e58320b4 	str	r2, [r3, #180]	; 0xb4
    27ec:	e59320b4 	ldr	r2, [r3, #180]	; 0xb4
    27f0:	e3822002 	orr	r2, r2, #2
    27f4:	e58320b4 	str	r2, [r3, #180]	; 0xb4
    27f8:	e59320a0 	ldr	r2, [r3, #160]	; 0xa0
    27fc:	e3c22001 	bic	r2, r2, #1
    2800:	e58320a0 	str	r2, [r3, #160]	; 0xa0
    2804:	e59320b8 	ldr	r2, [r3, #184]	; 0xb8
    2808:	e3c22001 	bic	r2, r2, #1
    280c:	e58320b8 	str	r2, [r3, #184]	; 0xb8
    2810:	e12fff1e 	bx	lr

00002814 <mem_tmr_set>:
    2814:	e3023f74 	movw	r3, #12148	; 0x2f74
    2818:	e3a02000 	mov	r2, #0
    281c:	e3403000 	movt	r3, #0
    2820:	e3a01001 	mov	r1, #1
    2824:	e5933000 	ldr	r3, [r3]
    2828:	e3a0c0d0 	mov	ip, #208	; 0xd0
    282c:	e52de004 	push	{lr}		; (str lr, [sp, #-4]!)
    2830:	e1a0e500 	lsl	lr, r0, #10
    2834:	e5831004 	str	r1, [r3, #4]
    2838:	e1a00002 	mov	r0, r2
    283c:	e5831000 	str	r1, [r3]
    2840:	e5832010 	str	r2, [r3, #16]
    2844:	e583e014 	str	lr, [r3, #20]
    2848:	e583c010 	str	ip, [r3, #16]
    284c:	e5932010 	ldr	r2, [r3, #16]
    2850:	e3822002 	orr	r2, r2, #2
    2854:	e5832010 	str	r2, [r3, #16]
    2858:	e5932010 	ldr	r2, [r3, #16]
    285c:	e1822001 	orr	r2, r2, r1
    2860:	e5832010 	str	r2, [r3, #16]
    2864:	e49df004 	pop	{pc}		; (ldr pc, [sp], #4)

00002868 <mem_clk_init>:
    2868:	e3500001 	cmp	r0, #1
    286c:	03a02000 	moveq	r2, #0
    2870:	13a02000 	movne	r2, #0
    2874:	03023f84 	movweq	r3, #12164	; 0x2f84
    2878:	13023f84 	movwne	r3, #12164	; 0x2f84
    287c:	034f21c2 	movteq	r2, #61890	; 0xf1c2
    2880:	134021c2 	movtne	r2, #450	; 0x1c2
    2884:	03403000 	movteq	r3, #0
    2888:	13403000 	movtne	r3, #0
    288c:	e1a00002 	mov	r0, r2
    2890:	e5832000 	str	r2, [r3]
    2894:	e12fff1e 	bx	lr

00002898 <mem_get_ba>:
    2898:	e3023f84 	movw	r3, #12164	; 0x2f84
    289c:	e3403000 	movt	r3, #0
    28a0:	e5930000 	ldr	r0, [r3]
    28a4:	e12fff1e 	bx	lr

000028a8 <mem_clk_save>:
    28a8:	e3a03000 	mov	r3, #0
    28ac:	e3021f84 	movw	r1, #12164	; 0x2f84
    28b0:	e34f31c2 	movt	r3, #61890	; 0xf1c2
    28b4:	e1a02000 	mov	r2, r0
    28b8:	e593c050 	ldr	ip, [r3, #80]	; 0x50
    28bc:	e3401000 	movt	r1, #0
    28c0:	e5803000 	str	r3, [r0]
    28c4:	e3a00000 	mov	r0, #0
    28c8:	e5813000 	str	r3, [r1]
    28cc:	e582c004 	str	ip, [r2, #4]
    28d0:	e5931058 	ldr	r1, [r3, #88]	; 0x58
    28d4:	e5821008 	str	r1, [r2, #8]
    28d8:	e5933054 	ldr	r3, [r3, #84]	; 0x54
    28dc:	e582300c 	str	r3, [r2, #12]
    28e0:	e12fff1e 	bx	lr

000028e4 <mem_clk_restore>:
    28e4:	e5903000 	ldr	r3, [r0]
    28e8:	e3021f84 	movw	r1, #12164	; 0x2f84
    28ec:	e590c004 	ldr	ip, [r0, #4]
    28f0:	e1a02000 	mov	r2, r0
    28f4:	e3401000 	movt	r1, #0
    28f8:	e3a00000 	mov	r0, #0
    28fc:	e5813000 	str	r3, [r1]
    2900:	e583c050 	str	ip, [r3, #80]	; 0x50
    2904:	e5921008 	ldr	r1, [r2, #8]
    2908:	e5831058 	str	r1, [r3, #88]	; 0x58
    290c:	e592200c 	ldr	r2, [r2, #12]
    2910:	e5832054 	str	r2, [r3, #84]	; 0x54
    2914:	e12fff1e 	bx	lr

00002918 <mem_clk_setdiv>:
    2918:	e3500000 	cmp	r0, #0
    291c:	0a00001a 	beq	298c <mem_clk_setdiv+0x74>
    2920:	e92d4070 	push	{r4, r5, r6, lr}
    2924:	e3a03000 	mov	r3, #0
    2928:	e3024f84 	movw	r4, #12164	; 0x2f84
    292c:	e34031c2 	movt	r3, #450	; 0x1c2
    2930:	e3404000 	movt	r4, #0
    2934:	e1a05000 	mov	r5, r0
    2938:	e5843000 	str	r3, [r4]
    293c:	e3a00005 	mov	r0, #5
    2940:	e5932050 	ldr	r2, [r3, #80]	; 0x50
    2944:	e5951000 	ldr	r1, [r5]
    2948:	e5842004 	str	r2, [r4, #4]
    294c:	e7c12011 	bfi	r2, r1, #0, #2
    2950:	e5c42004 	strb	r2, [r4, #4]
    2954:	e5942004 	ldr	r2, [r4, #4]
    2958:	e5832050 	str	r2, [r3, #80]	; 0x50
    295c:	e5952004 	ldr	r2, [r5, #4]
    2960:	e3c22a03 	bic	r2, r2, #12288	; 0x3000
    2964:	e3822a01 	orr	r2, r2, #4096	; 0x1000
    2968:	e5832054 	str	r2, [r3, #84]	; 0x54
    296c:	ebfff729 	bl	618 <delay_us>
    2970:	e5943000 	ldr	r3, [r4]
    2974:	e5952004 	ldr	r2, [r5, #4]
    2978:	e3a00005 	mov	r0, #5
    297c:	e5832054 	str	r2, [r3, #84]	; 0x54
    2980:	ebfff724 	bl	618 <delay_us>
    2984:	e3a00000 	mov	r0, #0
    2988:	e8bd8070 	pop	{r4, r5, r6, pc}
    298c:	e3e00000 	mvn	r0, #0
    2990:	e12fff1e 	bx	lr

00002994 <mem_clk_getdiv>:
    2994:	e2501000 	subs	r1, r0, #0
    2998:	0a00000d 	beq	29d4 <mem_clk_getdiv+0x40>
    299c:	e3022f84 	movw	r2, #12164	; 0x2f84
    29a0:	e3a03000 	mov	r3, #0
    29a4:	e3402000 	movt	r2, #0
    29a8:	e34f31c2 	movt	r3, #61890	; 0xf1c2
    29ac:	e52de004 	push	{lr}		; (str lr, [sp, #-4]!)
    29b0:	e3a00000 	mov	r0, #0
    29b4:	e5823000 	str	r3, [r2]
    29b8:	e593c050 	ldr	ip, [r3, #80]	; 0x50
    29bc:	e20ce003 	and	lr, ip, #3
    29c0:	e581e000 	str	lr, [r1]
    29c4:	e582c004 	str	ip, [r2, #4]
    29c8:	e5933054 	ldr	r3, [r3, #84]	; 0x54
    29cc:	e5813004 	str	r3, [r1, #4]
    29d0:	e49df004 	pop	{pc}		; (ldr pc, [sp], #4)
    29d4:	e3e00000 	mvn	r0, #0
    29d8:	e12fff1e 	bx	lr

000029dc <mem_clk_set_pll_factor>:
    29dc:	e3023f84 	movw	r3, #12164	; 0x2f84
    29e0:	e3a0c000 	mov	ip, #0
    29e4:	e3403000 	movt	r3, #0
    29e8:	e340c1c2 	movt	ip, #450	; 0x1c2
    29ec:	e92d4070 	push	{r4, r5, r6, lr}
    29f0:	e1a0e000 	mov	lr, r0
    29f4:	e583c000 	str	ip, [r3]
    29f8:	e3a00000 	mov	r0, #0
    29fc:	e59c2000 	ldr	r2, [ip]
    2a00:	e5de5003 	ldrb	r5, [lr, #3]
    2a04:	e5de6002 	ldrb	r6, [lr, #2]
    2a08:	e1a04822 	lsr	r4, r2, #16
    2a0c:	e5832008 	str	r2, [r3, #8]
    2a10:	e7c14015 	bfi	r4, r5, #0, #2
    2a14:	e5de5001 	ldrb	r5, [lr, #1]
    2a18:	e5dee000 	ldrb	lr, [lr]
    2a1c:	e1a01002 	mov	r1, r2
    2a20:	e1a02422 	lsr	r2, r2, #8
    2a24:	e7c11016 	bfi	r1, r6, #0, #2
    2a28:	e5c3400a 	strb	r4, [r3, #10]
    2a2c:	e7c51215 	bfi	r1, r5, #4, #2
    2a30:	e7c4201e 	bfi	r2, lr, #0, #5
    2a34:	e5c31008 	strb	r1, [r3, #8]
    2a38:	e5c32009 	strb	r2, [r3, #9]
    2a3c:	e5933008 	ldr	r3, [r3, #8]
    2a40:	e58c3000 	str	r3, [ip]
    2a44:	e8bd8070 	pop	{r4, r5, r6, pc}

00002a48 <mem_clk_get_pll_factor>:
    2a48:	e3021f84 	movw	r1, #12164	; 0x2f84
    2a4c:	e3a02000 	mov	r2, #0
    2a50:	e3401000 	movt	r1, #0
    2a54:	e34f21c2 	movt	r2, #61890	; 0xf1c2
    2a58:	e92d4010 	push	{r4, lr}
    2a5c:	e1a03000 	mov	r3, r0
    2a60:	e5812000 	str	r2, [r1]
    2a64:	e3a00000 	mov	r0, #0
    2a68:	e592c000 	ldr	ip, [r2]
    2a6c:	e7e4445c 	ubfx	r4, ip, #8, #5
    2a70:	e7e1e85c 	ubfx	lr, ip, #16, #2
    2a74:	e6ef207c 	uxtb	r2, ip
    2a78:	e581c008 	str	ip, [r1, #8]
    2a7c:	e5c34000 	strb	r4, [r3]
    2a80:	e7e11252 	ubfx	r1, r2, #4, #2
    2a84:	e5c3e003 	strb	lr, [r3, #3]
    2a88:	e7e12052 	ubfx	r2, r2, #0, #2
    2a8c:	e5c31001 	strb	r1, [r3, #1]
    2a90:	e5c32002 	strb	r2, [r3, #2]
    2a94:	e8bd8010 	pop	{r4, pc}

00002a98 <mem_clk_set_misc>:
    2a98:	e1a01000 	mov	r1, r0
    2a9c:	e5900000 	ldr	r0, [r0]
    2aa0:	e3022f84 	movw	r2, #12164	; 0x2f84
    2aa4:	e3a03000 	mov	r3, #0
    2aa8:	e34031c2 	movt	r3, #450	; 0x1c2
    2aac:	e3402000 	movt	r2, #0
    2ab0:	e92d4010 	push	{r4, lr}
    2ab4:	e3a0e002 	mov	lr, #2
    2ab8:	e5823000 	str	r3, [r2]
    2abc:	e3a0c001 	mov	ip, #1
    2ac0:	e5830220 	str	r0, [r3, #544]	; 0x220
    2ac4:	e3a00000 	mov	r0, #0
    2ac8:	e5914008 	ldr	r4, [r1, #8]
    2acc:	e5834250 	str	r4, [r3, #592]	; 0x250
    2ad0:	e5914014 	ldr	r4, [r1, #20]
    2ad4:	e5834228 	str	r4, [r3, #552]	; 0x228
    2ad8:	e5914018 	ldr	r4, [r1, #24]
    2adc:	e583422c 	str	r4, [r3, #556]	; 0x22c
    2ae0:	e591401c 	ldr	r4, [r1, #28]
    2ae4:	e5834288 	str	r4, [r3, #648]	; 0x288
    2ae8:	e5914020 	ldr	r4, [r1, #32]
    2aec:	e583428c 	str	r4, [r3, #652]	; 0x28c
    2af0:	e591400c 	ldr	r4, [r1, #12]
    2af4:	e5834010 	str	r4, [r3, #16]
    2af8:	e5911010 	ldr	r1, [r1, #16]
    2afc:	e5831018 	str	r1, [r3, #24]
    2b00:	e5931050 	ldr	r1, [r3, #80]	; 0x50
    2b04:	e5821004 	str	r1, [r2, #4]
    2b08:	e7c1101e 	bfi	r1, lr, #0, #2
    2b0c:	e5c21004 	strb	r1, [r2, #4]
    2b10:	e5921004 	ldr	r1, [r2, #4]
    2b14:	e5831050 	str	r1, [r3, #80]	; 0x50
    2b18:	e5d21004 	ldrb	r1, [r2, #4]
    2b1c:	e7c1101c 	bfi	r1, ip, #0, #2
    2b20:	e5c21004 	strb	r1, [r2, #4]
    2b24:	e5922004 	ldr	r2, [r2, #4]
    2b28:	e5832050 	str	r2, [r3, #80]	; 0x50
    2b2c:	e8bd8010 	pop	{r4, pc}

00002b30 <mem_clk_get_misc>:
    2b30:	e3a03000 	mov	r3, #0
    2b34:	e3021f84 	movw	r1, #12164	; 0x2f84
    2b38:	e34f31c2 	movt	r3, #61890	; 0xf1c2
    2b3c:	e1a02000 	mov	r2, r0
    2b40:	e593c220 	ldr	ip, [r3, #544]	; 0x220
    2b44:	e3401000 	movt	r1, #0
    2b48:	e5813000 	str	r3, [r1]
    2b4c:	e3a00000 	mov	r0, #0
    2b50:	e582c000 	str	ip, [r2]
    2b54:	e5931250 	ldr	r1, [r3, #592]	; 0x250
    2b58:	e5821008 	str	r1, [r2, #8]
    2b5c:	e5931228 	ldr	r1, [r3, #552]	; 0x228
    2b60:	e5821014 	str	r1, [r2, #20]
    2b64:	e593122c 	ldr	r1, [r3, #556]	; 0x22c
    2b68:	e5821018 	str	r1, [r2, #24]
    2b6c:	e5931288 	ldr	r1, [r3, #648]	; 0x288
    2b70:	e582101c 	str	r1, [r2, #28]
    2b74:	e593128c 	ldr	r1, [r3, #652]	; 0x28c
    2b78:	e5821020 	str	r1, [r2, #32]
    2b7c:	e5931010 	ldr	r1, [r3, #16]
    2b80:	e582100c 	str	r1, [r2, #12]
    2b84:	e5933018 	ldr	r3, [r3, #24]
    2b88:	e5823010 	str	r3, [r2, #16]
    2b8c:	e12fff1e 	bx	lr

00002b90 <mem_clk_get_cpu_freq>:
    2b90:	e3023f84 	movw	r3, #12164	; 0x2f84
    2b94:	e3403000 	movt	r3, #0
    2b98:	e5930000 	ldr	r0, [r3]
    2b9c:	e5902050 	ldr	r2, [r0, #80]	; 0x50
    2ba0:	e7e11852 	ubfx	r1, r2, #16, #2
    2ba4:	e3510000 	cmp	r1, #0
    2ba8:	e5832004 	str	r2, [r3, #4]
    2bac:	1a000001 	bne	2bb8 <mem_clk_get_cpu_freq+0x28>
    2bb0:	e3a00020 	mov	r0, #32
    2bb4:	e12fff1e 	bx	lr
    2bb8:	e3510001 	cmp	r1, #1
    2bbc:	0a000010 	beq	2c04 <mem_clk_get_cpu_freq+0x74>
    2bc0:	e92d4030 	push	{r4, r5, lr}
    2bc4:	e3a0c001 	mov	ip, #1
    2bc8:	e5904000 	ldr	r4, [r0]
    2bcc:	e3050dc0 	movw	r0, #24000	; 0x5dc0
    2bd0:	e7e11854 	ubfx	r1, r4, #16, #2
    2bd4:	e7e45454 	ubfx	r5, r4, #8, #5
    2bd8:	e6efe074 	uxtb	lr, r4
    2bdc:	e1a0111c 	lsl	r1, ip, r1
    2be0:	e7e1c25e 	ubfx	ip, lr, #4, #2
    2be4:	e20ee003 	and	lr, lr, #3
    2be8:	e28c2001 	add	r2, ip, #1
    2bec:	e5834008 	str	r4, [r3, #8]
    2bf0:	e021119e 	mla	r1, lr, r1, r1
    2bf4:	e0222295 	mla	r2, r5, r2, r2
    2bf8:	e8bd4030 	pop	{r4, r5, lr}
    2bfc:	e0000290 	mul	r0, r0, r2
    2c00:	eafffe15 	b	245c <raw_lib_udiv>
    2c04:	e3050dc0 	movw	r0, #24000	; 0x5dc0
    2c08:	e12fff1e 	bx	lr

Disassembly of section .rodata:

00002c0c <CSWTCH.9>:
    2c0c:	00000001 	andeq	r0, r0, r1
    2c10:	00000002 	andeq	r0, r0, r2
    2c14:	00000000 	andeq	r0, r0, r0
    2c18:	00000003 	andeq	r0, r0, r3

00002c1c <CSWTCH.20>:
    2c1c:	00007d00 	andeq	r7, r0, r0, lsl #26
    2c20:	016e3600 	cmneq	lr, r0, lsl #12
    2c24:	23c34600 	biccs	r4, r3, #0, 12

Disassembly of section .rodata.str1.4:

00002c28 <.rodata.str1.4>:
    2c28:	75736572 	ldrbvc	r6, [r3, #-1394]!	; 0xfffffa8e
    2c2c:	3a31656d 	bcc	c5c1e8 <__bss_end+0xc5906c>
    2c30:	202e3120 	eorcs	r3, lr, r0, lsr #2
    2c34:	6f666562 	svcvs	0x00666562
    2c38:	72206572 	eorvc	r6, r0, #478150656	; 0x1c800000
    2c3c:	6f747365 	svcvs	0x00747365
    2c40:	6d206572 	cfstr32vs	mvfx6, [r0, #-456]!	; 0xfffffe38
    2c44:	202e756d 	eorcs	r7, lr, sp, ror #10
    2c48:	0000000a 	andeq	r0, r0, sl
    2c4c:	75736572 	ldrbvc	r6, [r3, #-1394]!	; 0xfffffa8e
    2c50:	3a31656d 	bcc	c5c20c <__bss_end+0xc59090>
    2c54:	202e3320 	eorcs	r3, lr, r0, lsr #6
    2c58:	65746661 	ldrbvs	r6, [r4, #-1633]!	; 0xfffff99f
    2c5c:	65722072 	ldrbvs	r2, [r2, #-114]!	; 0xffffff8e
    2c60:	726f7473 	rsbvc	r7, pc, #1929379840	; 0x73000000
    2c64:	6d6d2065 	stclvs	0, cr2, [sp, #-404]!	; 0xfffffe6c
    2c68:	62202c75 	eorvs	r2, r0, #29952	; 0x7500
    2c6c:	726f6665 	rsbvc	r6, pc, #105906176	; 0x6500000
    2c70:	756a2065 	strbvc	r2, [sl, #-101]!	; 0xffffff9b
    2c74:	0a2e706d 	beq	b9ee30 <__bss_end+0xb9bcb4>
    2c78:	00000000 	andeq	r0, r0, r0
    2c7c:	5f746567 	svcpl	0x00746567
    2c80:	5f727563 	svcpl	0x00727563
    2c84:	73756c63 	cmnvc	r5, #25344	; 0x6300
    2c88:	5f726574 	svcpl	0x00726574
    2c8c:	3d206469 	cfstrscc	mvf6, [r0, #-420]!	; 0xfffffe5c
    2c90:	2e642520 	cdpcs	5, 6, cr2, cr4, cr0, {1}
    2c94:	00000a20 	andeq	r0, r0, r0, lsr #20
    2c98:	5f6d656d 	svcpl	0x006d656d
    2c9c:	61726170 	cmnvs	r2, r0, ror r1
    2ca0:	666e695f 			; <UNDEFINED> instruction: 0x666e695f
    2ca4:	65642e6f 	strbvs	r2, [r4, #-3695]!	; 0xfffff191
    2ca8:	5f677562 	svcpl	0x00677562
    2cac:	6b73616d 	blvs	1cdb268 <__bss_end+0x1cd80ec>
    2cb0:	25203d20 	strcs	r3, [r0, #-3360]!	; 0xfffff2e0
    2cb4:	0a202e78 	beq	80e69c <__bss_end+0x80b520>
    2cb8:	00000000 	andeq	r0, r0, r0
    2cbc:	616c6564 	cmnvs	ip, r4, ror #10
    2cc0:	656d2079 	strbvs	r2, [sp, #-121]!	; 0xffffff87
    2cc4:	61705f6d 	cmnvs	r0, sp, ror #30
    2cc8:	695f6172 	ldmdbvs	pc, {r1, r4, r5, r6, r8, sp, lr}^	; <UNPREDICTABLE>
    2ccc:	2e6f666e 	cdpcs	6, 6, cr6, cr15, cr14, {3}
    2cd0:	70737573 	rsbsvc	r7, r3, r3, ror r5
    2cd4:	5f646e65 	svcpl	0x00646e65
    2cd8:	616c6564 	cmnvs	ip, r4, ror #10
    2cdc:	736d5f79 	cmnvc	sp, #484	; 0x1e4
    2ce0:	25203d20 	strcs	r3, [r0, #-3360]!	; 0xfffff2e0
    2ce4:	0a202e64 	beq	80e67c <__bss_end+0x80b500>
    2ce8:	00000000 	andeq	r0, r0, r0
    2cec:	72646461 	rsbvc	r6, r4, #1627389952	; 0x61000000
    2cf0:	3a465020 	bcc	1196d78 <__bss_end+0x1193bfc>
    2cf4:	25783020 	ldrbcs	r3, [r8, #-32]!	; 0xffffffe0
    2cf8:	203d2078 	eorscs	r2, sp, r8, ror r0
    2cfc:	78257830 	stmdavc	r5!, {r4, r5, fp, ip, sp, lr}
    2d00:	000a202e 	andeq	r2, sl, lr, lsr #32
    2d04:	72646461 	rsbvc	r6, r4, #1627389952	; 0x61000000
    2d08:	3a485020 	bcc	1216d90 <__bss_end+0x1213c14>
    2d0c:	25783020 	ldrbcs	r3, [r8, #-32]!	; 0xffffffe0
    2d10:	203d2078 	eorscs	r2, sp, r8, ror r0
    2d14:	78257830 	stmdavc	r5!, {r4, r5, fp, ip, sp, lr}
    2d18:	000a202e 	andeq	r2, sl, lr, lsr #32
    2d1c:	75736572 	ldrbvc	r6, [r3, #-1394]!	; 0xfffffa8e
    2d20:	3a31656d 	bcc	c5c2dc <__bss_end+0xc59160>
    2d24:	61747320 	cmnvs	r4, r0, lsr #6
    2d28:	202e7472 	eorcs	r7, lr, r2, ror r4
    2d2c:	0000000a 	andeq	r0, r0, sl
    2d30:	72646461 	rsbvc	r6, r4, #1627389952	; 0x61000000
    2d34:	2c782520 	cfldr64cs	mvdx2, [r8], #-128	; 0xffffff80
    2d38:	6c617620 	stclvs	6, cr7, [r1], #-128	; 0xffffff80
    2d3c:	3d206575 	cfstr32cc	mvfx6, [r0, #-468]!	; 0xfffffe2c
    2d40:	2e782520 	cdpcs	5, 7, cr2, cr8, cr0, {1}
    2d44:	00000a20 	andeq	r0, r0, r0, lsr #20
    2d48:	33323130 	teqcc	r2, #48, 2
    2d4c:	37363534 			; <UNDEFINED> instruction: 0x37363534
    2d50:	42413938 	submi	r3, r1, #56, 18	; 0xe0000
    2d54:	46454443 	strbmi	r4, [r5], -r3, asr #8
    2d58:	00000000 	andeq	r0, r0, r0
    2d5c:	20202020 	eorcs	r2, r0, r0, lsr #32
    2d60:	20202020 	eorcs	r2, r0, r0, lsr #32
    2d64:	20202020 	eorcs	r2, r0, r0, lsr #32
    2d68:	20202020 	eorcs	r2, r0, r0, lsr #32
    2d6c:	00000000 	andeq	r0, r0, r0
    2d70:	65747441 	ldrbvs	r7, [r4, #-1089]!	; 0xfffffbbf
    2d74:	6974706d 	ldmdbvs	r4!, {r0, r2, r3, r5, r6, ip, sp, lr}^
    2d78:	6420676e 	strtvs	r6, [r0], #-1902	; 0xfffff892
    2d7c:	73697669 	cmnvc	r9, #110100480	; 0x6900000
    2d80:	206e6f69 	rsbcs	r6, lr, r9, ror #30
    2d84:	30207962 	eorcc	r7, r0, r2, ror #18
    2d88:	00000021 	andeq	r0, r0, r1, lsr #32
    2d8c:	69746f6e 	ldmdbvs	r4!, {r1, r2, r3, r5, r6, r8, r9, sl, fp, sp, lr}^
    2d90:	203a6563 	eorscs	r6, sl, r3, ror #10
    2d94:	20636967 	rsbcs	r6, r3, r7, ror #18
    2d98:	20726169 	rsbscs	r6, r2, r9, ror #2
    2d9c:	30203d3d 	eorcc	r3, r0, sp, lsr sp
    2da0:	2e782578 	mrccs	5, 3, r2, cr8, cr8, {3}
    2da4:	00000a20 	andeq	r0, r0, r0, lsr #20

Disassembly of section .data:

00002da8 <tmpPtr>:
    2da8:	00002dac 	andeq	r2, r0, ip, lsr #27

Disassembly of section .bss:

00002dac <print_flag>:
    2dac:	00000000 	andeq	r0, r0, r0

00002db0 <backup_perf_counter_ctrl_reg>:
    2db0:	00000000 	andeq	r0, r0, r0

00002db4 <backup_perf_counter_enable_reg>:
    2db4:	00000000 	andeq	r0, r0, r0

00002db8 <overhead>:
    2db8:	00000000 	andeq	r0, r0, r0

00002dbc <cpu_freq>:
    2dbc:	00000000 	andeq	r0, r0, r0

00002dc0 <saved_context>:
	...

00002e60 <backup_ccu_uart>:
    2e60:	00000000 	andeq	r0, r0, r0

00002e64 <backup_ccu_uart_reset>:
    2e64:	00000000 	andeq	r0, r0, r0

00002e68 <backup_gpio_uart>:
    2e68:	00000000 	andeq	r0, r0, r0

00002e6c <serial_inited_flag>:
    2e6c:	00000000 	andeq	r0, r0, r0

00002e70 <debugger_buffer>:
	...

00002f70 <GicDDisc>:
    2f70:	00000000 	andeq	r0, r0, r0

00002f74 <TmrReg>:
    2f74:	00000000 	andeq	r0, r0, r0

00002f78 <WatchDog1_Config_Reg_Bak>:
    2f78:	00000000 	andeq	r0, r0, r0

00002f7c <WatchDog1_Mod_Reg_Bak>:
    2f7c:	00000000 	andeq	r0, r0, r0

00002f80 <WatchDog1_Irq_En_Bak>:
    2f80:	00000000 	andeq	r0, r0, r0

00002f84 <CmuReg>:
    2f84:	00000000 	andeq	r0, r0, r0

00002f88 <CmuReg_SysClkDiv_tmp>:
    2f88:	00000000 	andeq	r0, r0, r0

00002f8c <CmuReg_Pll1Ctl_tmp>:
    2f8c:	00000000 	andeq	r0, r0, r0

00002f90 <mem_para_info>:
	...

00003060 <func_entry>:
    3060:	00000000 	andeq	r0, r0, r0

00003064 <saved_context_r13_irq>:
	...

0000306c <saved_context_r12_svc>:
	...

00003074 <saved_spsr_fiq>:
    3074:	00000000 	andeq	r0, r0, r0

00003078 <saved_spsr_und>:
    3078:	00000000 	andeq	r0, r0, r0

0000307c <saved_spsr_irq>:
    307c:	00000000 	andeq	r0, r0, r0

00003080 <saved_context_r13_abt>:
	...

00003088 <saved_spsr_mon>:
    3088:	00000000 	andeq	r0, r0, r0

0000308c <saved_empty_context_svc>:
	...

0000313c <saved_context_r13_fiq>:
	...

00003158 <saved_cpsr_svc>:
    3158:	00000000 	andeq	r0, r0, r0

0000315c <saved_context_r13_sys>:
	...

00003164 <saved_spsr_abt>:
    3164:	00000000 	andeq	r0, r0, r0

00003168 <saved_context_r13_mon>:
	...

00003170 <saved_spsr_svc>:
    3170:	00000000 	andeq	r0, r0, r0

00003174 <saved_context_r13_und>:
	...

Disassembly of section .debug_info:

00000000 <.debug_info>:
       0:	000001bc 			; <UNDEFINED> instruction: 0x000001bc
       4:	00000004 	andeq	r0, r0, r4
       8:	01040000 	mrseq	r0, (UNDEF: 4)
       c:	00000000 	andeq	r0, r0, r0
      10:	00029e0c 	andeq	r9, r2, ip, lsl #28
      14:	0001f000 	andeq	pc, r1, r0
      18:	00000000 	andeq	r0, r0, r0
      1c:	06010200 	streq	r0, [r1], -r0, lsl #4
      20:	00000114 	andeq	r0, r0, r4, lsl r1
      24:	12080102 	andne	r0, r8, #-2147483648	; 0x80000000
      28:	02000001 	andeq	r0, r0, #1
      2c:	02810502 	addeq	r0, r1, #8388608	; 0x800000
      30:	02020000 	andeq	r0, r2, #0
      34:	00013607 	andeq	r3, r1, r7, lsl #12
      38:	05040300 	streq	r0, [r4, #-768]	; 0xfffffd00
      3c:	00746e69 	rsbseq	r6, r4, r9, ror #28
      40:	b7070402 	strlt	r0, [r7, -r2, lsl #8]
      44:	02000001 	andeq	r0, r0, #1
      48:	02410508 	subeq	r0, r1, #8, 10	; 0x2000000
      4c:	08020000 	stmdaeq	r2, {}	; <UNPREDICTABLE>
      50:	0001ad07 	andeq	sl, r1, r7, lsl #26
      54:	07040200 	streq	r0, [r4, -r0, lsl #4]
      58:	00000238 	andeq	r0, r0, r8, lsr r2
      5c:	0001da04 	andeq	sp, r1, r4, lsl #20
      60:	00400400 	subeq	r0, r0, r0, lsl #8
      64:	89020000 	stmdbhi	r2, {}	; <UNPREDICTABLE>
      68:	000000eb 	andeq	r0, r0, fp, ror #1
      6c:	0000d405 	andeq	sp, r0, r5, lsl #8
      70:	29050000 	stmdbcs	r5, {}	; <UNPREDICTABLE>
      74:	01000001 	tsteq	r0, r1
      78:	0000e105 	andeq	lr, r0, r5, lsl #2
      7c:	06050200 	streq	r0, [r5], -r0, lsl #4
      80:	03000001 	movweq	r0, #1
      84:	00025c05 	andeq	r5, r2, r5, lsl #24
      88:	a1050400 	tstge	r5, r0, lsl #8
      8c:	05000001 	streq	r0, [r0, #-1]
      90:	00018905 	andeq	r8, r1, r5, lsl #18
      94:	c4050600 	strgt	r0, [r5], #-1536	; 0xfffffa00
      98:	07000001 	streq	r0, [r0, -r1]
      9c:	0000c805 	andeq	ip, r0, r5, lsl #16
      a0:	fb050800 	blx	1420aa <__bss_end+0x13ef2e>
      a4:	09000000 	stmdbeq	r0, {}	; <UNPREDICTABLE>
      a8:	00019605 	andeq	r9, r1, r5, lsl #12
      ac:	76050a00 	strvc	r0, [r5], -r0, lsl #20
      b0:	0b000002 	bleq	c0 <config_end+0x14>
      b4:	0001d405 	andeq	sp, r1, r5, lsl #8
      b8:	e6050c00 	str	r0, [r5], -r0, lsl #24
      bc:	0d000002 	stceq	0, cr0, [r0, #-8]
      c0:	00033105 	andeq	r3, r3, r5, lsl #2
      c4:	68050e00 	stmdavs	r5, {r9, sl, fp}
      c8:	0f000002 	svceq	0x00000002
      cc:	00030105 	andeq	r0, r3, r5, lsl #2
      d0:	4f051000 	svcmi	0x00051000
      d4:	11000002 	tstne	r0, r2
      d8:	00031b05 	andeq	r1, r3, r5, lsl #22
      dc:	ee051200 	cdp	2, 0, cr1, cr5, cr0, {0}
      e0:	13000000 	movwne	r0, #0
      e4:	0002d805 	andeq	sp, r2, r5, lsl #16
      e8:	02001400 	andeq	r1, r0, #0, 8
      ec:	011b0801 	tsteq	fp, r1, lsl #16
      f0:	04020000 	streq	r0, [r2], #-0
      f4:	0001b207 	andeq	fp, r1, r7, lsl #4
      f8:	00b60600 	adcseq	r0, r6, r0, lsl #12
      fc:	01300000 	teqeq	r0, r0
     100:	00017e49 	andeq	r7, r1, r9, asr #28
     104:	01780700 	cmneq	r8, r0, lsl #14
     108:	4b010000 	blmi	40110 <__bss_end+0x3cf94>
     10c:	00000040 	andeq	r0, r0, r0, asr #32
     110:	030e0700 	movweq	r0, #59136	; 0xe700
     114:	4c010000 	stcmi	0, cr0, [r1], {-0}
     118:	0000017e 	andeq	r0, r0, lr, ror r1
     11c:	01540704 	cmpeq	r4, r4, lsl #14
     120:	4d010000 	stcmi	0, cr0, [r1, #-0]
     124:	00000040 	andeq	r0, r0, r0, asr #32
     128:	0314070c 	tsteq	r4, #12, 14	; 0x300000
     12c:	4e010000 	cdpmi	0, 0, cr0, cr1, cr0, {0}
     130:	00000040 	andeq	r0, r0, r0, asr #32
     134:	015e0710 	cmpeq	lr, r0, lsl r7
     138:	4f010000 	svcmi	0x00010000
     13c:	00000040 	andeq	r0, r0, r0, asr #32
     140:	02f40714 	rscseq	r0, r4, #20, 14	; 0x500000
     144:	50010000 	andpl	r0, r1, r0
     148:	0000018e 	andeq	r0, r0, lr, lsl #3
     14c:	01e20718 	mvneq	r0, r8, lsl r7
     150:	51010000 	mrspl	r0, (UNDEF: 1)
     154:	0000018e 	andeq	r0, r0, lr, lsl #3
     158:	0149071c 	cmpeq	r9, ip, lsl r7
     15c:	52010000 	andpl	r0, r1, #0
     160:	0000018e 	andeq	r0, r0, lr, lsl #3
     164:	01200720 			; <UNDEFINED> instruction: 0x01200720
     168:	53010000 	movwpl	r0, #4096	; 0x1000
     16c:	0000018e 	andeq	r0, r0, lr, lsl #3
     170:	03280724 			; <UNDEFINED> instruction: 0x03280724
     174:	54010000 	strpl	r0, [r1], #-0
     178:	0000017e 	andeq	r0, r0, lr, ror r1
     17c:	24080028 	strcs	r0, [r8], #-40	; 0xffffffd8
     180:	8e000000 	cdphi	0, 0, cr0, cr0, cr0, {0}
     184:	09000001 	stmdbeq	r0, {r0}
     188:	00000055 	andeq	r0, r0, r5, asr r0
     18c:	24080007 	strcs	r0, [r8], #-7
     190:	9e000000 	cdpls	0, 0, cr0, cr0, cr0, {0}
     194:	09000001 	stmdbeq	r0, {r0}
     198:	00000055 	andeq	r0, r0, r5, asr r0
     19c:	8b0a0003 	blhi	2801b0 <__bss_end+0x27d034>
     1a0:	01000002 	tsteq	r0, r2
     1a4:	0000f955 	andeq	pc, r0, r5, asr r9	; <UNPREDICTABLE>
     1a8:	016c0b00 	cmneq	ip, r0, lsl #22
     1ac:	24030000 	strcs	r0, [r3], #-0
     1b0:	000001ba 			; <UNDEFINED> instruction: 0x000001ba
     1b4:	00000305 	andeq	r0, r0, r5, lsl #6
     1b8:	9e0c0000 	cdpls	0, 0, cr0, cr12, cr0, {0}
     1bc:	00000001 	andeq	r0, r0, r1
     1c0:	000000a0 	andeq	r0, r0, r0, lsr #1
     1c4:	00950002 	addseq	r0, r5, r2
     1c8:	01040000 	mrseq	r0, (UNDEF: 4)
     1cc:	000000bc 	strheq	r0, [r0], -ip
     1d0:	00000030 	andeq	r0, r0, r0, lsr r0
     1d4:	000000e0 	andeq	r0, r0, r0, ror #1
     1d8:	68637261 	stmdavs	r3!, {r0, r5, r6, r9, ip, sp, lr}^
     1dc:	6d72612f 	ldfvse	f6, [r2, #-188]!	; 0xffffff44
     1e0:	63616d2f 	cmnvs	r1, #3008	; 0xbc0
     1e4:	75732d68 	ldrbvc	r2, [r3, #-3432]!	; 0xfffff298
     1e8:	2f69786e 	svccs	0x0069786e
     1ec:	732f6d70 			; <UNDEFINED> instruction: 0x732f6d70
     1f0:	646e6174 	strbtvs	r6, [lr], #-372	; 0xfffffe8c
     1f4:	732f7962 			; <UNDEFINED> instruction: 0x732f7962
     1f8:	72657075 	rsbvc	r7, r5, #117	; 0x75
     1fc:	7365722f 	cmnvc	r5, #-268435454	; 0xf0000002
     200:	2f656d75 	svccs	0x00656d75
     204:	75736572 	ldrbvc	r6, [r3, #-1394]!	; 0xfffffa8e
     208:	2e31656d 	cdpcs	5, 3, cr6, cr1, cr13, {3}
     20c:	682f0053 	stmdavs	pc!, {r0, r1, r4, r6}	; <UNPREDICTABLE>
     210:	2f656d6f 	svccs	0x00656d6f
     214:	687a6f61 	ldmdavs	sl!, {r0, r5, r6, r8, r9, sl, fp, sp, lr}^
     218:	702f756f 	eorvc	r7, pc, pc, ror #10
     21c:	775f6275 			; <UNDEFINED> instruction: 0x775f6275
     220:	2f6b726f 	svccs	0x006b726f
     224:	6e6f687a 	mcrvs	8, 3, r6, cr15, cr10, {3}
     228:	5f706c67 	svcpl	0x00706c67
     22c:	65646f63 	strbvs	r6, [r4, #-3939]!	; 0xfffff09d
     230:	6f72702f 	svcvs	0x0072702f
     234:	7463656a 	strbtvc	r6, [r3], #-1386	; 0xfffffa96
     238:	3631522f 	ldrtcc	r5, [r1], -pc, lsr #4
     23c:	2f39445f 	svccs	0x0039445f
     240:	616e6974 	smcvs	59028	; 0xe694
     244:	63696c2f 	cmnvs	r9, #12032	; 0x2f00
     248:	2f656568 	svccs	0x00656568
     24c:	756e696c 	strbvc	r6, [lr, #-2412]!	; 0xfffff694
     250:	2e332d78 	mrccs	13, 1, r2, cr3, cr8, {3}
     254:	4e470034 	mcrmi	0, 2, r0, cr7, cr4, {1}
     258:	53412055 	movtpl	r2, #4181	; 0x1055
     25c:	322e3220 	eorcc	r3, lr, #32, 4
     260:	80010036 	andhi	r0, r1, r6, lsr r0
     264:	000000d2 	ldrdeq	r0, [r0], -r2
     268:	00a90004 	adceq	r0, r9, r4
     26c:	01040000 	mrseq	r0, (UNDEF: 4)
     270:	00000000 	andeq	r0, r0, r0
     274:	00033d0c 	andeq	r3, r3, ip, lsl #26
     278:	0001f000 	andeq	pc, r1, r0
     27c:	0000e000 	andeq	lr, r0, r0
     280:	00002c00 	andeq	r2, r0, r0, lsl #24
     284:	00015100 	andeq	r5, r1, r0, lsl #2
     288:	06010200 	streq	r0, [r1], -r0, lsl #4
     28c:	00000114 	andeq	r0, r0, r4, lsl r1
     290:	12080102 	andne	r0, r8, #-2147483648	; 0x80000000
     294:	02000001 	andeq	r0, r0, #1
     298:	02810502 	addeq	r0, r1, #8388608	; 0x800000
     29c:	02020000 	andeq	r0, r2, #0
     2a0:	00013607 	andeq	r3, r1, r7, lsl #12
     2a4:	05040300 	streq	r0, [r4, #-768]	; 0xfffffd00
     2a8:	00746e69 	rsbseq	r6, r4, r9, ror #28
     2ac:	b7070402 	strlt	r0, [r7, -r2, lsl #8]
     2b0:	02000001 	andeq	r0, r0, #1
     2b4:	02410508 	subeq	r0, r1, #8, 10	; 0x2000000
     2b8:	08020000 	stmdaeq	r2, {}	; <UNPREDICTABLE>
     2bc:	0001ad07 	andeq	sl, r1, r7, lsl #26
     2c0:	07040200 	streq	r0, [r4, -r0, lsl #4]
     2c4:	00000238 	andeq	r0, r0, r8, lsr r2
     2c8:	1b080102 	blne	2006d8 <__bss_end+0x1fd55c>
     2cc:	02000001 	andeq	r0, r0, #1
     2d0:	01b20704 			; <UNDEFINED> instruction: 0x01b20704
     2d4:	04040000 	streq	r0, [r4], #-0
     2d8:	00000048 	andeq	r0, r0, r8, asr #32
     2dc:	7b060405 	blvc	1812f8 <__bss_end+0x17e17c>
     2e0:	01000003 	tsteq	r0, r3
     2e4:	0000e023 	andeq	lr, r0, r3, lsr #32
     2e8:	00002c00 	andeq	r2, r0, r0, lsl #24
     2ec:	079c0100 	ldreq	r0, [ip, r0, lsl #2]
     2f0:	0000186c 	andeq	r1, r0, ip, ror #16
     2f4:	00782301 	rsbseq	r2, r8, r1, lsl #6
     2f8:	00000000 	andeq	r0, r0, r0
     2fc:	73080000 	movwvc	r0, #32768	; 0x8000
     300:	01006372 	tsteq	r0, r2, ror r3
     304:	00007823 	andeq	r7, r0, r3, lsr #16
     308:	00002e00 	andeq	r2, r0, r0, lsl #28
     30c:	006e0800 	rsbeq	r0, lr, r0, lsl #16
     310:	00412301 	subeq	r2, r1, r1, lsl #6
     314:	004f0000 	subeq	r0, pc, r0
     318:	73090000 	movwvc	r0, #36864	; 0x9000
     31c:	01000003 	tsteq	r0, r3
     320:	00007225 	andeq	r7, r0, r5, lsr #4
     324:	00007a00 	andeq	r7, r0, r0, lsl #20
     328:	036b0900 	cmneq	fp, #0, 18
     32c:	26010000 	strcs	r0, [r1], -r0
     330:	00000072 	andeq	r0, r0, r2, ror r0
     334:	000000a5 	andeq	r0, r0, r5, lsr #1
     338:	00670000 	rsbeq	r0, r7, r0
     33c:	00040000 	andeq	r0, r4, r0
     340:	00000128 	andeq	r0, r0, r8, lsr #2
     344:	00000104 	andeq	r0, r0, r4, lsl #2
     348:	860c0000 	strhi	r0, [ip], -r0
     34c:	f0000003 			; <UNDEFINED> instruction: 0xf0000003
     350:	c4000001 	strgt	r0, [r0], #-1
     354:	02000001 	andeq	r0, r0, #1
     358:	01140601 	tsteq	r4, r1, lsl #12
     35c:	01020000 	mrseq	r0, (UNDEF: 2)
     360:	00011208 	andeq	r1, r1, r8, lsl #4
     364:	05020200 	streq	r0, [r2, #-512]	; 0xfffffe00
     368:	00000281 	andeq	r0, r0, r1, lsl #5
     36c:	36070202 	strcc	r0, [r7], -r2, lsl #4
     370:	03000001 	movweq	r0, #1
     374:	6e690504 	cdpvs	5, 6, cr0, cr9, cr4, {0}
     378:	04020074 	streq	r0, [r2], #-116	; 0xffffff8c
     37c:	0001b707 	andeq	fp, r1, r7, lsl #14
     380:	05080200 	streq	r0, [r8, #-512]	; 0xfffffe00
     384:	00000241 	andeq	r0, r0, r1, asr #4
     388:	ad070802 	stcge	8, cr0, [r7, #-8]
     38c:	02000001 	andeq	r0, r0, #1
     390:	02380704 	eorseq	r0, r8, #4, 14	; 0x100000
     394:	01020000 	mrseq	r0, (UNDEF: 2)
     398:	00011b08 	andeq	r1, r1, r8, lsl #22
     39c:	07040200 	streq	r0, [r4, -r0, lsl #4]
     3a0:	000001b2 			; <UNDEFINED> instruction: 0x000001b2
     3a4:	00009d00 	andeq	r9, r0, r0, lsl #26
     3a8:	4e000200 	cdpmi	2, 0, cr0, cr0, cr0, {0}
     3ac:	04000001 	streq	r0, [r0], #-1
     3b0:	0001e101 	andeq	lr, r1, r1, lsl #2
     3b4:	00010c00 	andeq	r0, r1, r0, lsl #24
     3b8:	00013400 	andeq	r3, r1, r0, lsl #8
     3bc:	63726100 	cmnvs	r2, #0, 2
     3c0:	72612f68 	rsbvc	r2, r1, #104, 30	; 0x1a0
     3c4:	616d2f6d 	cmnvs	sp, sp, ror #30
     3c8:	732d6863 			; <UNDEFINED> instruction: 0x732d6863
     3cc:	69786e75 	ldmdbvs	r8!, {r0, r2, r4, r5, r6, r9, sl, fp, sp, lr}^
     3d0:	2f6d702f 	svccs	0x006d702f
     3d4:	6e617473 	mcrvs	4, 3, r7, cr1, cr3, {3}
     3d8:	2f796264 	svccs	0x00796264
     3dc:	65707573 	ldrbvs	r7, [r0, #-1395]!	; 0xfffffa8d
     3e0:	75732f72 	ldrbvc	r2, [r3, #-3954]!	; 0xfffff08e
     3e4:	5f726570 	svcpl	0x00726570
     3e8:	616c6564 	cmnvs	ip, r4, ror #10
     3ec:	00532e79 	subseq	r2, r3, r9, ror lr
     3f0:	6d6f682f 	stclvs	8, cr6, [pc, #-188]!	; 33c <set_pll+0xbc>
     3f4:	6f612f65 	svcvs	0x00612f65
     3f8:	756f687a 	strbvc	r6, [pc, #-2170]!	; fffffb86 <__bss_end+0xffffca0a>
     3fc:	6275702f 	rsbsvs	r7, r5, #47	; 0x2f
     400:	726f775f 	rsbvc	r7, pc, #24903680	; 0x17c0000
     404:	687a2f6b 	ldmdavs	sl!, {r0, r1, r3, r5, r6, r8, r9, sl, fp, sp}^
     408:	6c676e6f 	stclvs	14, cr6, [r7], #-444	; 0xfffffe44
     40c:	6f635f70 	svcvs	0x00635f70
     410:	702f6564 	eorvc	r6, pc, r4, ror #10
     414:	656a6f72 	strbvs	r6, [sl, #-3954]!	; 0xfffff08e
     418:	522f7463 	eorpl	r7, pc, #1660944384	; 0x63000000
     41c:	445f3631 	ldrbmi	r3, [pc], #-1585	; 424 <mem_status_clear+0x8>
     420:	69742f39 	ldmdbvs	r4!, {r0, r3, r4, r5, r8, r9, sl, fp, sp}^
     424:	6c2f616e 	stfvss	f6, [pc], #-440	; 274 <resume1_c_part+0x140>
     428:	65686369 	strbvs	r6, [r8, #-873]!	; 0xfffffc97
     42c:	696c2f65 	stmdbvs	ip!, {r0, r2, r5, r6, r8, r9, sl, fp, sp}^
     430:	2d78756e 	cfldr64cs	mvdx7, [r8, #-440]!	; 0xfffffe48
     434:	00342e33 	eorseq	r2, r4, r3, lsr lr
     438:	20554e47 	subscs	r4, r5, r7, asr #28
     43c:	32205341 	eorcc	r5, r0, #67108865	; 0x4000001
     440:	0036322e 	eorseq	r3, r6, lr, lsr #4
     444:	00678001 	rsbeq	r8, r7, r1
     448:	00040000 	andeq	r0, r4, r0
     44c:	00000162 	andeq	r0, r0, r2, ror #2
     450:	00000104 	andeq	r0, r0, r4, lsl #2
     454:	b70c0000 	strlt	r0, [ip, -r0]
     458:	f0000003 			; <UNDEFINED> instruction: 0xf0000003
     45c:	4c000001 	stcmi	0, cr0, [r0], {1}
     460:	02000002 	andeq	r0, r0, #2
     464:	01140601 	tsteq	r4, r1, lsl #12
     468:	01020000 	mrseq	r0, (UNDEF: 2)
     46c:	00011208 	andeq	r1, r1, r8, lsl #4
     470:	05020200 	streq	r0, [r2, #-512]	; 0xfffffe00
     474:	00000281 	andeq	r0, r0, r1, lsl #5
     478:	36070202 	strcc	r0, [r7], -r2, lsl #4
     47c:	03000001 	movweq	r0, #1
     480:	6e690504 	cdpvs	5, 6, cr0, cr9, cr4, {0}
     484:	04020074 	streq	r0, [r2], #-116	; 0xffffff8c
     488:	0001b707 	andeq	fp, r1, r7, lsl #14
     48c:	05080200 	streq	r0, [r8, #-512]	; 0xfffffe00
     490:	00000241 	andeq	r0, r0, r1, asr #4
     494:	ad070802 	stcge	8, cr0, [r7, #-8]
     498:	02000001 	andeq	r0, r0, #1
     49c:	02380704 	eorseq	r0, r8, #4, 14	; 0x100000
     4a0:	01020000 	mrseq	r0, (UNDEF: 2)
     4a4:	00011b08 	andeq	r1, r1, r8, lsl #22
     4a8:	07040200 	streq	r0, [r4, -r0, lsl #4]
     4ac:	000001b2 			; <UNDEFINED> instruction: 0x000001b2
     4b0:	00006700 	andeq	r6, r0, r0, lsl #14
     4b4:	88000400 	stmdahi	r0, {sl}
     4b8:	04000001 	streq	r0, [r0], #-1
     4bc:	00000001 	andeq	r0, r0, r1
     4c0:	03ea0c00 	mvneq	r0, #0, 24
     4c4:	01f00000 	mvnseq	r0, r0
     4c8:	02690000 	rsbeq	r0, r9, #0
     4cc:	01020000 	mrseq	r0, (UNDEF: 2)
     4d0:	00011406 	andeq	r1, r1, r6, lsl #8
     4d4:	08010200 	stmdaeq	r1, {r9}
     4d8:	00000112 	andeq	r0, r0, r2, lsl r1
     4dc:	81050202 	tsthi	r5, r2, lsl #4
     4e0:	02000002 	andeq	r0, r0, #2
     4e4:	01360702 	teqeq	r6, r2, lsl #14
     4e8:	04030000 	streq	r0, [r3], #-0
     4ec:	746e6905 	strbtvc	r6, [lr], #-2309	; 0xfffff6fb
     4f0:	07040200 	streq	r0, [r4, -r0, lsl #4]
     4f4:	000001b7 			; <UNDEFINED> instruction: 0x000001b7
     4f8:	41050802 	tstmi	r5, r2, lsl #16
     4fc:	02000002 	andeq	r0, r0, #2
     500:	01ad0708 			; <UNDEFINED> instruction: 0x01ad0708
     504:	04020000 	streq	r0, [r2], #-0
     508:	00023807 	andeq	r3, r2, r7, lsl #16
     50c:	08010200 	stmdaeq	r1, {r9}
     510:	0000011b 	andeq	r0, r0, fp, lsl r1
     514:	b2070402 	andlt	r0, r7, #33554432	; 0x2000000
     518:	00000001 	andeq	r0, r0, r1
     51c:	00000067 	andeq	r0, r0, r7, rrx
     520:	01ae0004 			; <UNDEFINED> instruction: 0x01ae0004
     524:	01040000 	mrseq	r0, (UNDEF: 4)
     528:	00000000 	andeq	r0, r0, r0
     52c:	00041d0c 	andeq	r1, r4, ip, lsl #26
     530:	0001f000 	andeq	pc, r1, r0
     534:	00028600 	andeq	r8, r2, r0, lsl #12
     538:	06010200 	streq	r0, [r1], -r0, lsl #4
     53c:	00000114 	andeq	r0, r0, r4, lsl r1
     540:	12080102 	andne	r0, r8, #-2147483648	; 0x80000000
     544:	02000001 	andeq	r0, r0, #1
     548:	02810502 	addeq	r0, r1, #8388608	; 0x800000
     54c:	02020000 	andeq	r0, r2, #0
     550:	00013607 	andeq	r3, r1, r7, lsl #12
     554:	05040300 	streq	r0, [r4, #-768]	; 0xfffffd00
     558:	00746e69 	rsbseq	r6, r4, r9, ror #28
     55c:	b7070402 	strlt	r0, [r7, -r2, lsl #8]
     560:	02000001 	andeq	r0, r0, #1
     564:	02410508 	subeq	r0, r1, #8, 10	; 0x2000000
     568:	08020000 	stmdaeq	r2, {}	; <UNPREDICTABLE>
     56c:	0001ad07 	andeq	sl, r1, r7, lsl #26
     570:	07040200 	streq	r0, [r4, -r0, lsl #4]
     574:	00000238 	andeq	r0, r0, r8, lsr r2
     578:	1b080102 	blne	200988 <__bss_end+0x1fd80c>
     57c:	02000001 	andeq	r0, r0, #1
     580:	01b20704 			; <UNDEFINED> instruction: 0x01b20704
     584:	b1000000 	mrslt	r0, (UNDEF: 0)
     588:	04000017 	streq	r0, [r0], #-23	; 0xffffffe9
     58c:	0001d400 	andeq	sp, r1, r0, lsl #8
     590:	00010400 	andeq	r0, r1, r0, lsl #8
     594:	0c000000 	stceq	0, cr0, [r0], {-0}
     598:	00000918 	andeq	r0, r0, r8, lsl r9
     59c:	000001f0 	strdeq	r0, [r0], -r0	; <UNPREDICTABLE>
     5a0:	00000134 	andeq	r0, r0, r4, lsr r1
     5a4:	000002b8 			; <UNDEFINED> instruction: 0x000002b8
     5a8:	000002a3 	andeq	r0, r0, r3, lsr #5
     5ac:	14060102 	strne	r0, [r6], #-258	; 0xfffffefe
     5b0:	03000001 	movweq	r0, #1
     5b4:	00000df6 	strdeq	r0, [r0], -r6
     5b8:	00370f02 	eorseq	r0, r7, r2, lsl #30
     5bc:	01020000 	mrseq	r0, (UNDEF: 2)
     5c0:	00011208 	andeq	r1, r1, r8, lsl #4
     5c4:	05020200 	streq	r0, [r2, #-512]	; 0xfffffe00
     5c8:	00000281 	andeq	r0, r0, r1, lsl #5
     5cc:	36070202 	strcc	r0, [r7], -r2, lsl #4
     5d0:	04000001 	streq	r0, [r0], #-1
     5d4:	6e690504 	cdpvs	5, 6, cr0, cr9, cr4, {0}
     5d8:	90030074 	andls	r0, r3, r4, ror r0
     5dc:	0200000a 	andeq	r0, r0, #10
     5e0:	00005e13 	andeq	r5, r0, r3, lsl lr
     5e4:	07040200 	streq	r0, [r4, -r0, lsl #4]
     5e8:	000001b7 			; <UNDEFINED> instruction: 0x000001b7
     5ec:	41050802 	tstmi	r5, r2, lsl #16
     5f0:	02000002 	andeq	r0, r0, #2
     5f4:	01ad0708 			; <UNDEFINED> instruction: 0x01ad0708
     5f8:	04050000 	streq	r0, [r5], #-0
     5fc:	013f1a03 	teqeq	pc, r3, lsl #20
     600:	59060000 	stmdbpl	r6, {}	; <UNPREDICTABLE>
     604:	03000007 	movweq	r0, #7
     608:	0000531c 	andeq	r5, r0, ip, lsl r3
     60c:	1e020400 	cfcpysne	mvf0, mvf2
     610:	0d440600 	stcleq	6, cr0, [r4, #-0]
     614:	1d030000 	stcne	0, cr0, [r3, #-0]
     618:	00000053 	andeq	r0, r0, r3, asr r0
     61c:	001c0204 	andseq	r0, ip, r4, lsl #4
     620:	00075106 	andeq	r5, r7, r6, lsl #2
     624:	531e0300 	tstpl	lr, #0, 6
     628:	04000000 	streq	r0, [r0], #-0
     62c:	06001a02 	streq	r1, [r0], -r2, lsl #20
     630:	00000d4e 	andeq	r0, r0, lr, asr #26
     634:	00531f03 	subseq	r1, r3, r3, lsl #30
     638:	02040000 	andeq	r0, r4, #0
     63c:	61060018 	tstvs	r6, r8, lsl r0
     640:	03000007 	movweq	r0, #7
     644:	00005320 	andeq	r5, r0, r0, lsr #6
     648:	13050400 	movwne	r0, #21504	; 0x5400
     64c:	0d580600 	ldcleq	6, cr0, [r8, #-0]
     650:	21030000 	mrscs	r0, (UNDEF: 3)
     654:	00000053 	andeq	r0, r0, r3, asr r0
     658:	00100304 	andseq	r0, r0, r4, lsl #6
     65c:	00077106 	andeq	r7, r7, r6, lsl #2
     660:	53220300 			; <UNDEFINED> instruction: 0x53220300
     664:	04000000 	streq	r0, [r0], #-0
     668:	06000e02 	streq	r0, [r0], -r2, lsl #28
     66c:	00000d62 	andeq	r0, r0, r2, ror #26
     670:	00532303 	subseq	r2, r3, r3, lsl #6
     674:	06040000 	streq	r0, [r4], -r0
     678:	6f060008 	svcvs	0x00060008
     67c:	0300000a 	movweq	r0, #10
     680:	00005324 	andeq	r5, r0, r4, lsr #6
     684:	07010400 	streq	r0, [r1, -r0, lsl #8]
     688:	0d6c0600 	stcleq	6, cr0, [ip, #-0]
     68c:	25030000 	strcs	r0, [r3, #-0]
     690:	00000053 	andeq	r0, r0, r3, asr r0
     694:	00040304 	andeq	r0, r4, r4, lsl #6
     698:	000c0b06 	andeq	r0, ip, r6, lsl #22
     69c:	53260300 			; <UNDEFINED> instruction: 0x53260300
     6a0:	04000000 	streq	r0, [r0], #-0
     6a4:	06000301 	streq	r0, [r0], -r1, lsl #6
     6a8:	00000d76 	andeq	r0, r0, r6, ror sp
     6ac:	00532703 	subseq	r2, r3, r3, lsl #14
     6b0:	02040000 	andeq	r0, r4, #0
     6b4:	ba060001 	blt	1806c0 <__bss_end+0x17d544>
     6b8:	0300000c 	movweq	r0, #12
     6bc:	00005328 	andeq	r5, r0, r8, lsr #6
     6c0:	00010400 	andeq	r0, r1, r0, lsl #8
     6c4:	04070000 	streq	r0, [r7], #-0
     6c8:	015e1803 	cmpeq	lr, r3, lsl #16
     6cc:	eb080000 	bl	2006d4 <__bss_end+0x1fd558>
     6d0:	03000004 	movweq	r0, #4
     6d4:	00005319 	andeq	r5, r0, r9, lsl r3
     6d8:	0ae00800 	beq	ff8026e0 <__bss_end+0xff7ff564>
     6dc:	2a030000 	bcs	c06e4 <__bss_end+0xbd568>
     6e0:	00000073 	andeq	r0, r0, r3, ror r0
     6e4:	0cc00300 	stcleq	3, cr0, [r0], {0}
     6e8:	2b030000 	blcs	c06f0 <__bss_end+0xbd574>
     6ec:	0000013f 	andeq	r0, r0, pc, lsr r1
     6f0:	000ce109 	andeq	lr, ip, r9, lsl #2
     6f4:	2e030400 	cfcpyscs	mvf0, mvf3
     6f8:	0000021b 	andeq	r0, r0, fp, lsl r2
     6fc:	00075906 	andeq	r5, r7, r6, lsl #18
     700:	53300300 	teqpl	r0, #0, 6
     704:	04000000 	streq	r0, [r0], #-0
     708:	06001b05 	streq	r1, [r0], -r5, lsl #22
     70c:	00000d44 	andeq	r0, r0, r4, asr #26
     710:	00533103 	subseq	r3, r3, r3, lsl #2
     714:	03040000 	movweq	r0, #16384	; 0x4000
     718:	61060018 	tstvs	r6, r8, lsl r0
     71c:	03000007 	movweq	r0, #7
     720:	00005332 	andeq	r5, r0, r2, lsr r3
     724:	11070400 	tstne	r7, r0, lsl #8
     728:	0d4e0600 	stcleq	6, cr0, [lr, #-0]
     72c:	33030000 	movwcc	r0, #12288	; 0x3000
     730:	00000053 	andeq	r0, r0, r3, asr r0
     734:	00100104 	andseq	r0, r0, r4, lsl #2
     738:	00077106 	andeq	r7, r7, r6, lsl #2
     73c:	53340300 	teqpl	r4, #0, 6
     740:	04000000 	streq	r0, [r0], #-0
     744:	06000c04 	streq	r0, [r0], -r4, lsl #24
     748:	00000d58 	andeq	r0, r0, r8, asr sp
     74c:	00533503 	subseq	r3, r3, r3, lsl #10
     750:	04040000 	streq	r0, [r4], #-0
     754:	e0060008 	and	r0, r6, r8
     758:	0300000b 	movweq	r0, #11
     75c:	00005336 	andeq	r5, r0, r6, lsr r3
     760:	07010400 	streq	r0, [r1, -r0, lsl #8]
     764:	0d620600 	stcleq	6, cr0, [r2, #-0]
     768:	37030000 	strcc	r0, [r3, -r0]
     76c:	00000053 	andeq	r0, r0, r3, asr r0
     770:	00040304 	andeq	r0, r4, r4, lsl #6
     774:	000c0b06 	andeq	r0, ip, r6, lsl #22
     778:	53380300 	teqpl	r8, #0, 6
     77c:	04000000 	streq	r0, [r0], #-0
     780:	06000301 	streq	r0, [r0], -r1, lsl #6
     784:	00000d6c 	andeq	r0, r0, ip, ror #26
     788:	00533903 	subseq	r3, r3, r3, lsl #18
     78c:	02040000 	andeq	r0, r4, #0
     790:	ba060001 	blt	18079c <__bss_end+0x17d620>
     794:	0300000c 	movweq	r0, #12
     798:	0000533a 	andeq	r5, r0, sl, lsr r3
     79c:	00010400 	andeq	r0, r1, r0, lsl #8
     7a0:	33030000 	movwcc	r0, #12288	; 0x3000
     7a4:	0300000c 	movweq	r0, #12
     7a8:	0001693b 	andeq	r6, r1, fp, lsr r9
     7ac:	0ca00900 	stceq	9, cr0, [r0]
     7b0:	03040000 	movweq	r0, #16384	; 0x4000
     7b4:	0002f650 	andeq	pc, r2, r0, asr r6	; <UNPREDICTABLE>
     7b8:	07590600 	ldrbeq	r0, [r9, -r0, lsl #12]
     7bc:	52030000 	andpl	r0, r3, #0
     7c0:	00000053 	andeq	r0, r0, r3, asr r0
     7c4:	001e0204 	andseq	r0, lr, r4, lsl #4
     7c8:	000d4406 	andeq	r4, sp, r6, lsl #8
     7cc:	53530300 	cmppl	r3, #0, 6
     7d0:	04000000 	streq	r0, [r0], #-0
     7d4:	06001c02 	streq	r1, [r0], -r2, lsl #24
     7d8:	00000751 	andeq	r0, r0, r1, asr r7
     7dc:	00535403 	subseq	r5, r3, r3, lsl #8
     7e0:	02040000 	andeq	r0, r4, #0
     7e4:	4e06001a 	mcrmi	0, 0, r0, cr6, cr10, {0}
     7e8:	0300000d 	movweq	r0, #13
     7ec:	00005355 	andeq	r5, r0, r5, asr r3
     7f0:	18020400 	stmdane	r2, {sl}
     7f4:	07610600 	strbeq	r0, [r1, -r0, lsl #12]!
     7f8:	56030000 	strpl	r0, [r3], -r0
     7fc:	00000053 	andeq	r0, r0, r3, asr r0
     800:	00130504 	andseq	r0, r3, r4, lsl #10
     804:	000d5806 	andeq	r5, sp, r6, lsl #16
     808:	53570300 	cmppl	r7, #0, 6
     80c:	04000000 	streq	r0, [r0], #-0
     810:	06000c07 	streq	r0, [r0], -r7, lsl #24
     814:	000006ae 	andeq	r0, r0, lr, lsr #13
     818:	00535803 	subseq	r5, r3, r3, lsl #16
     81c:	01040000 	mrseq	r0, (UNDEF: 4)
     820:	6206000b 	andvs	r0, r6, #11
     824:	0300000d 	movweq	r0, #13
     828:	00005359 	andeq	r5, r0, r9, asr r3
     82c:	08030400 	stmdaeq	r3, {sl}
     830:	0a770600 	beq	1dc2038 <__bss_end+0x1dbeebc>
     834:	5a030000 	bpl	c083c <__bss_end+0xbd6c0>
     838:	00000053 	andeq	r0, r0, r3, asr r0
     83c:	00070104 	andeq	r0, r7, r4, lsl #2
     840:	000d6c06 	andeq	r6, sp, r6, lsl #24
     844:	535b0300 	cmppl	fp, #0, 6
     848:	04000000 	streq	r0, [r0], #-0
     84c:	06000403 	streq	r0, [r0], -r3, lsl #8
     850:	00000c0b 	andeq	r0, r0, fp, lsl #24
     854:	00535c03 	subseq	r5, r3, r3, lsl #24
     858:	01040000 	mrseq	r0, (UNDEF: 4)
     85c:	76060003 	strvc	r0, [r6], -r3
     860:	0300000d 	movweq	r0, #13
     864:	0000535d 	andeq	r5, r0, sp, asr r3
     868:	01020400 	tsteq	r2, r0, lsl #8
     86c:	0cba0600 	ldceq	6, cr0, [sl]
     870:	5e030000 	cdppl	0, 0, cr0, cr3, cr0, {0}
     874:	00000053 	andeq	r0, r0, r3, asr r0
     878:	00000104 	andeq	r0, r0, r4, lsl #2
     87c:	06c70300 	strbeq	r0, [r7], r0, lsl #6
     880:	5f030000 	svcpl	0x00030000
     884:	00000226 	andeq	r0, r0, r6, lsr #4
     888:	0010bd09 	andseq	fp, r0, r9, lsl #26
     88c:	62030400 	andvs	r0, r3, #0, 8
     890:	000003ef 	andeq	r0, r0, pc, ror #7
     894:	00075906 	andeq	r5, r7, r6, lsl #18
     898:	53640300 	cmnpl	r4, #0, 6
     89c:	04000000 	streq	r0, [r0], #-0
     8a0:	06001e02 	streq	r1, [r0], -r2, lsl #28
     8a4:	00000d44 	andeq	r0, r0, r4, asr #26
     8a8:	00536503 	subseq	r6, r3, r3, lsl #10
     8ac:	02040000 	andeq	r0, r4, #0
     8b0:	5106001c 	tstpl	r6, ip, lsl r0
     8b4:	03000007 	movweq	r0, #7
     8b8:	00005366 	andeq	r5, r0, r6, ror #6
     8bc:	1a020400 	bne	818c4 <__bss_end+0x7e748>
     8c0:	0d4e0600 	stcleq	6, cr0, [lr, #-0]
     8c4:	67030000 	strvs	r0, [r3, -r0]
     8c8:	00000053 	andeq	r0, r0, r3, asr r0
     8cc:	00180204 	andseq	r0, r8, r4, lsl #4
     8d0:	00076106 	andeq	r6, r7, r6, lsl #2
     8d4:	53680300 	cmnpl	r8, #0, 6
     8d8:	04000000 	streq	r0, [r0], #-0
     8dc:	06001305 	streq	r1, [r0], -r5, lsl #6
     8e0:	00000d58 	andeq	r0, r0, r8, asr sp
     8e4:	00536903 	subseq	r6, r3, r3, lsl #18
     8e8:	03040000 	movweq	r0, #16384	; 0x4000
     8ec:	ee060010 	mcr	0, 0, r0, cr6, cr0, {0}
     8f0:	0300000e 	movweq	r0, #14
     8f4:	0000536a 	andeq	r5, r0, sl, ror #6
     8f8:	0e020400 	cfcpyseq	mvf0, mvf2
     8fc:	044f0600 	strbeq	r0, [pc], #-1536	; 904 <inv_loop3+0xc>
     900:	6b030000 	blvs	c0908 <__bss_end+0xbd78c>
     904:	00000053 	andeq	r0, r0, r3, asr r0
     908:	000d0104 	andeq	r0, sp, r4, lsl #2
     90c:	000d6206 	andeq	r6, sp, r6, lsl #4
     910:	536c0300 	cmnpl	ip, #0, 6
     914:	04000000 	streq	r0, [r0], #-0
     918:	06000805 	streq	r0, [r0], -r5, lsl #16
     91c:	00000b69 	andeq	r0, r0, r9, ror #22
     920:	00536d03 	subseq	r6, r3, r3, lsl #26
     924:	01040000 	mrseq	r0, (UNDEF: 4)
     928:	1f060007 	svcne	0x00060007
     92c:	0300000b 	movweq	r0, #11
     930:	0000536e 	andeq	r5, r0, lr, ror #6
     934:	06010400 	streq	r0, [r1], -r0, lsl #8
     938:	0d6c0600 	stcleq	6, cr0, [ip, #-0]
     93c:	6f030000 	svcvs	0x00030000
     940:	00000053 	andeq	r0, r0, r3, asr r0
     944:	00040204 	andeq	r0, r4, r4, lsl #4
     948:	000c0b06 	andeq	r0, ip, r6, lsl #22
     94c:	53700300 	cmnpl	r0, #0, 6
     950:	04000000 	streq	r0, [r0], #-0
     954:	06000301 	streq	r0, [r0], -r1, lsl #6
     958:	00000d76 	andeq	r0, r0, r6, ror sp
     95c:	00537103 	subseq	r7, r3, r3, lsl #2
     960:	02040000 	andeq	r0, r4, #0
     964:	ba060001 	blt	180970 <__bss_end+0x17d7f4>
     968:	0300000c 	movweq	r0, #12
     96c:	00005372 	andeq	r5, r0, r2, ror r3
     970:	00010400 	andeq	r0, r1, r0, lsl #8
     974:	dd030000 	stcle	0, cr0, [r3, #-0]
     978:	03000005 	movweq	r0, #5
     97c:	00030173 	andeq	r0, r3, r3, ror r1
     980:	08a00900 	stmiaeq	r0!, {r8, fp}
     984:	03040000 	movweq	r0, #16384	; 0x4000
     988:	0004bb75 	andeq	fp, r4, r5, ror fp
     98c:	07590600 	ldrbeq	r0, [r9, -r0, lsl #12]
     990:	77030000 	strvc	r0, [r3, -r0]
     994:	00000053 	andeq	r0, r0, r3, asr r0
     998:	001c0404 	andseq	r0, ip, r4, lsl #8
     99c:	000d4406 	andeq	r4, sp, r6, lsl #8
     9a0:	53780300 	cmnpl	r8, #0, 6
     9a4:	04000000 	streq	r0, [r0], #-0
     9a8:	06001804 	streq	r1, [r0], -r4, lsl #16
     9ac:	00000761 	andeq	r0, r0, r1, ror #14
     9b0:	00537903 	subseq	r7, r3, r3, lsl #18
     9b4:	07040000 	streq	r0, [r4, -r0]
     9b8:	4e060011 	mcrmi	0, 0, r0, cr6, cr1, {0}
     9bc:	0300000d 	movweq	r0, #13
     9c0:	0000537a 	andeq	r5, r0, sl, ror r3
     9c4:	0c050400 	cfstrseq	mvf0, [r5], {-0}
     9c8:	0be00600 	bleq	ff8021d0 <__bss_end+0xff7ff054>
     9cc:	7b030000 	blvc	c09d4 <__bss_end+0xbd858>
     9d0:	00000053 	andeq	r0, r0, r3, asr r0
     9d4:	000b0104 	andeq	r0, fp, r4, lsl #2
     9d8:	000d5806 	andeq	r5, sp, r6, lsl #16
     9dc:	537c0300 	cmnpl	ip, #0, 6
     9e0:	04000000 	streq	r0, [r0], #-0
     9e4:	06000803 	streq	r0, [r0], -r3, lsl #16
     9e8:	00000c6f 	andeq	r0, r0, pc, ror #24
     9ec:	00537d03 	subseq	r7, r3, r3, lsl #26
     9f0:	01040000 	mrseq	r0, (UNDEF: 4)
     9f4:	d2060007 	andle	r0, r6, #7
     9f8:	0300000d 	movweq	r0, #13
     9fc:	0000537e 	andeq	r5, r0, lr, ror r3
     a00:	06010400 	streq	r0, [r1], -r0, lsl #8
     a04:	0d620600 	stcleq	6, cr0, [r2, #-0]
     a08:	7f030000 	svcvc	0x00030000
     a0c:	00000053 	andeq	r0, r0, r3, asr r0
     a10:	00040204 	andeq	r0, r4, r4, lsl #4
     a14:	000c0b06 	andeq	r0, ip, r6, lsl #22
     a18:	53800300 	orrpl	r0, r0, #0, 6
     a1c:	04000000 	streq	r0, [r0], #-0
     a20:	06000301 	streq	r0, [r0], -r1, lsl #6
     a24:	00000d6c 	andeq	r0, r0, ip, ror #26
     a28:	00538103 	subseq	r8, r3, r3, lsl #2
     a2c:	02040000 	andeq	r0, r4, #0
     a30:	ba060001 	blt	180a3c <__bss_end+0x17d8c0>
     a34:	0300000c 	movweq	r0, #12
     a38:	00005382 	andeq	r5, r0, r2, lsl #7
     a3c:	00010400 	andeq	r0, r1, r0, lsl #8
     a40:	b3030000 	movwlt	r0, #12288	; 0x3000
     a44:	03000009 	movweq	r0, #9
     a48:	0003fa83 	andeq	pc, r3, r3, lsl #21
     a4c:	0bef0900 	bleq	ffbc2e54 <__bss_end+0xffbbfcd8>
     a50:	03040000 	movweq	r0, #16384	; 0x4000
     a54:	0005f086 	andeq	pc, r5, r6, lsl #1
     a58:	07590600 	ldrbeq	r0, [r9, -r0, lsl #12]
     a5c:	88030000 	stmdahi	r3, {}	; <UNPREDICTABLE>
     a60:	00000053 	andeq	r0, r0, r3, asr r0
     a64:	001c0404 	andseq	r0, ip, r4, lsl #8
     a68:	00075106 	andeq	r5, r7, r6, lsl #2
     a6c:	53890300 	orrpl	r0, r9, #0, 6
     a70:	04000000 	streq	r0, [r0], #-0
     a74:	06001a02 	streq	r1, [r0], -r2, lsl #20
     a78:	00000d44 	andeq	r0, r0, r4, asr #26
     a7c:	00538a03 	subseq	r8, r3, r3, lsl #20
     a80:	02040000 	andeq	r0, r4, #0
     a84:	61060018 	tstvs	r6, r8, lsl r0
     a88:	03000007 	movweq	r0, #7
     a8c:	0000538b 	andeq	r5, r0, fp, lsl #7
     a90:	14040400 	strne	r0, [r4], #-1024	; 0xfffffc00
     a94:	0d4e0600 	stcleq	6, cr0, [lr, #-0]
     a98:	8c030000 	stchi	0, cr0, [r3], {-0}
     a9c:	00000053 	andeq	r0, r0, r3, asr r0
     aa0:	00100404 	andseq	r0, r0, r4, lsl #8
     aa4:	0006eb06 	andeq	lr, r6, r6, lsl #22
     aa8:	538d0300 	orrpl	r0, sp, #0, 6
     aac:	04000000 	streq	r0, [r0], #-0
     ab0:	06000f01 	streq	r0, [r0], -r1, lsl #30
     ab4:	00000c77 	andeq	r0, r0, r7, ror ip
     ab8:	00538f03 	subseq	r8, r3, r3, lsl #30
     abc:	01040000 	mrseq	r0, (UNDEF: 4)
     ac0:	5806000e 	stmdapl	r6, {r1, r2, r3}
     ac4:	0300000d 	movweq	r0, #13
     ac8:	00005390 	muleq	r0, r0, r3
     acc:	0c020400 	cfstrseq	mvf0, [r2], {-0}
     ad0:	0be00600 	bleq	ff8022d8 <__bss_end+0xff7ff15c>
     ad4:	91030000 	mrsls	r0, (UNDEF: 3)
     ad8:	00000053 	andeq	r0, r0, r3, asr r0
     adc:	000b0104 	andeq	r0, fp, r4, lsl #2
     ae0:	00059406 	andeq	r9, r5, r6, lsl #8
     ae4:	53920300 	orrspl	r0, r2, #0, 6
     ae8:	04000000 	streq	r0, [r0], #-0
     aec:	06000a01 	streq	r0, [r0], -r1, lsl #20
     af0:	00000628 	andeq	r0, r0, r8, lsr #12
     af4:	00539303 	subseq	r9, r3, r3, lsl #6
     af8:	01040000 	mrseq	r0, (UNDEF: 4)
     afc:	3d060009 	stccc	0, cr0, [r6, #-36]	; 0xffffffdc
     b00:	0300000d 	movweq	r0, #13
     b04:	00005394 	muleq	r0, r4, r3
     b08:	08010400 	stmdaeq	r1, {sl}
     b0c:	0d620600 	stcleq	6, cr0, [r2, #-0]
     b10:	95030000 	strls	r0, [r3, #-0]
     b14:	00000053 	andeq	r0, r0, r3, asr r0
     b18:	00070104 	andeq	r0, r7, r4, lsl #2
     b1c:	000c2706 	andeq	r2, ip, r6, lsl #14
     b20:	53960300 	orrspl	r0, r6, #0, 6
     b24:	04000000 	streq	r0, [r0], #-0
     b28:	06000601 	streq	r0, [r0], -r1, lsl #12
     b2c:	00000cb4 			; <UNDEFINED> instruction: 0x00000cb4
     b30:	00539703 	subseq	r9, r3, r3, lsl #14
     b34:	01040000 	mrseq	r0, (UNDEF: 4)
     b38:	8a060005 	bhi	180b54 <__bss_end+0x17d9d8>
     b3c:	0300000e 	movweq	r0, #14
     b40:	00005398 	muleq	r0, r8, r3
     b44:	04010400 	streq	r0, [r1], #-1024	; 0xfffffc00
     b48:	0c0b0600 	stceq	6, cr0, [fp], {-0}
     b4c:	99030000 	stmdbls	r3, {}	; <UNPREDICTABLE>
     b50:	00000053 	andeq	r0, r0, r3, asr r0
     b54:	00030104 	andeq	r0, r3, r4, lsl #2
     b58:	000d6c06 	andeq	r6, sp, r6, lsl #24
     b5c:	539a0300 	orrspl	r0, sl, #0, 6
     b60:	04000000 	streq	r0, [r0], #-0
     b64:	06000102 	streq	r0, [r0], -r2, lsl #2
     b68:	00000cba 			; <UNDEFINED> instruction: 0x00000cba
     b6c:	00539b03 	subseq	r9, r3, r3, lsl #22
     b70:	01040000 	mrseq	r0, (UNDEF: 4)
     b74:	03000000 	movweq	r0, #0
     b78:	0000049b 	muleq	r0, fp, r4
     b7c:	04c69c03 	strbeq	r9, [r6], #3075	; 0xc03
     b80:	04050000 	streq	r0, [r5], #-0
     b84:	065ea403 	ldrbeq	sl, [lr], -r3, lsl #8
     b88:	fa060000 	blx	180b90 <__bss_end+0x17da14>
     b8c:	0300000f 	movweq	r0, #15
     b90:	000053a6 	andeq	r5, r0, r6, lsr #7
     b94:	1e020400 	cfcpysne	mvf0, mvf2
     b98:	0d440600 	stcleq	6, cr0, [r4, #-0]
     b9c:	a7030000 	strge	r0, [r3, -r0]
     ba0:	00000053 	andeq	r0, r0, r3, asr r0
     ba4:	00180604 	andseq	r0, r8, r4, lsl #12
     ba8:	000cf506 	andeq	pc, ip, r6, lsl #10
     bac:	53a80300 			; <UNDEFINED> instruction: 0x53a80300
     bb0:	04000000 	streq	r0, [r0], #-0
     bb4:	06001602 	streq	r1, [r0], -r2, lsl #12
     bb8:	00000d4e 	andeq	r0, r0, lr, asr #26
     bbc:	0053a903 	subseq	sl, r3, r3, lsl #18
     bc0:	06040000 	streq	r0, [r4], -r0
     bc4:	db060010 	blle	180c0c <__bss_end+0x17da90>
     bc8:	03000008 	movweq	r0, #8
     bcc:	000053aa 	andeq	r5, r0, sl, lsr #7
     bd0:	0e020400 	cfcpyseq	mvf0, mvf2
     bd4:	0d580600 	ldcleq	6, cr0, [r8, #-0]
     bd8:	ab030000 	blge	c0be0 <__bss_end+0xbda64>
     bdc:	00000053 	andeq	r0, r0, r3, asr r0
     be0:	00000e04 	andeq	r0, r0, r4, lsl #28
     be4:	03040700 	movweq	r0, #18176	; 0x4700
     be8:	00067da2 	andeq	r7, r6, r2, lsr #27
     bec:	04eb0800 	strbteq	r0, [fp], #2048	; 0x800
     bf0:	a3030000 	movwge	r0, #12288	; 0x3000
     bf4:	00000053 	andeq	r0, r0, r3, asr r0
     bf8:	000ae008 	andeq	lr, sl, r8
     bfc:	fbac0300 	blx	feb01806 <__bss_end+0xfeafe68a>
     c00:	00000005 	andeq	r0, r0, r5
     c04:	00060a03 	andeq	r0, r6, r3, lsl #20
     c08:	5ead0300 	cdppl	3, 10, cr0, cr13, cr0, {0}
     c0c:	09000006 	stmdbeq	r0, {r1, r2}
     c10:	0000046b 	andeq	r0, r0, fp, ror #8
     c14:	feb40304 	cdp2	3, 11, cr0, cr4, cr4, {0}
     c18:	06000006 	streq	r0, [r0], -r6
     c1c:	00000d44 	andeq	r0, r0, r4, asr #26
     c20:	0053b603 	subseq	fp, r3, r3, lsl #12
     c24:	04040000 	streq	r0, [r4], #-0
     c28:	3806001c 	stmdacc	r6, {r2, r3, r4}
     c2c:	0300000b 	movweq	r0, #11
     c30:	000053b7 			; <UNDEFINED> instruction: 0x000053b7
     c34:	1a020400 	bne	81c3c <__bss_end+0x7eac0>
     c38:	0fbd0600 	svceq	0x00bd0600
     c3c:	b8030000 	stmdalt	r3, {}	; <UNPREDICTABLE>
     c40:	00000053 	andeq	r0, r0, r3, asr r0
     c44:	00180204 	andseq	r0, r8, r4, lsl #4
     c48:	000c6706 	andeq	r6, ip, r6, lsl #14
     c4c:	53b90300 			; <UNDEFINED> instruction: 0x53b90300
     c50:	04000000 	streq	r0, [r0], #-0
     c54:	06001602 	streq	r1, [r0], -r2, lsl #12
     c58:	00000d4e 	andeq	r0, r0, lr, asr #26
     c5c:	0053ba03 	subseq	fp, r3, r3, lsl #20
     c60:	02040000 	andeq	r0, r4, #0
     c64:	52060014 	andpl	r0, r6, #20
     c68:	0300000c 	movweq	r0, #12
     c6c:	000053bb 			; <UNDEFINED> instruction: 0x000053bb
     c70:	12020400 	andne	r0, r2, #0, 8
     c74:	0d580600 	ldcleq	6, cr0, [r8, #-0]
     c78:	bc030000 	stclt	0, cr0, [r3], {-0}
     c7c:	00000053 	andeq	r0, r0, r3, asr r0
     c80:	00001204 	andeq	r1, r0, r4, lsl #4
     c84:	0f010300 	svceq	0x00010300
     c88:	bd030000 	stclt	0, cr0, [r3, #-0]
     c8c:	00000688 	andeq	r0, r0, r8, lsl #13
     c90:	c5030405 	strgt	r0, [r3, #-1029]	; 0xfffffbfb
     c94:	0000076c 	andeq	r0, r0, ip, ror #14
     c98:	00080006 	andeq	r0, r8, r6
     c9c:	53c70300 	bicpl	r0, r7, #0, 6
     ca0:	04000000 	streq	r0, [r0], #-0
     ca4:	06001b05 	streq	r1, [r0], -r5, lsl #22
     ca8:	00000ff1 	strdeq	r0, [r0], -r1
     cac:	0053c803 	subseq	ip, r3, r3, lsl #16
     cb0:	0b040000 	bleq	100cb8 <__bss_end+0xfdb3c>
     cb4:	05060010 	streq	r0, [r6, #-16]
     cb8:	03000008 	movweq	r0, #8
     cbc:	000053c9 	andeq	r5, r0, r9, asr #7
     cc0:	0e020400 	cfcpyseq	mvf0, mvf2
     cc4:	0d4e0600 	stcleq	6, cr0, [lr, #-0]
     cc8:	ca030000 	bgt	c0cd0 <__bss_end+0xbdb54>
     ccc:	00000053 	andeq	r0, r0, r3, asr r0
     cd0:	00080604 	andeq	r0, r8, r4, lsl #12
     cd4:	000c5606 	andeq	r5, ip, r6, lsl #12
     cd8:	53cb0300 	bicpl	r0, fp, #0, 6
     cdc:	04000000 	streq	r0, [r0], #-0
     ce0:	06000602 	streq	r0, [r0], -r2, lsl #12
     ce4:	00000d58 	andeq	r0, r0, r8, asr sp
     ce8:	0053cc03 	subseq	ip, r3, r3, lsl #24
     cec:	06040000 	streq	r0, [r4], -r0
     cf0:	07000000 	streq	r0, [r0, -r0]
     cf4:	8bc30304 	blhi	ff0c190c <__bss_end+0xff0be790>
     cf8:	08000007 	stmdaeq	r0, {r0, r1, r2}
     cfc:	000004eb 	andeq	r0, r0, fp, ror #9
     d00:	0053c403 	subseq	ip, r3, r3, lsl #8
     d04:	e0080000 	and	r0, r8, r0
     d08:	0300000a 	movweq	r0, #10
     d0c:	000709cd 	andeq	r0, r7, sp, asr #19
     d10:	75030000 	strvc	r0, [r3, #-0]
     d14:	0300000b 	movweq	r0, #11
     d18:	00076cce 	andeq	r6, r7, lr, asr #25
     d1c:	09ee0900 	stmibeq	lr!, {r8, fp}^
     d20:	03040000 	movweq	r0, #16384	; 0x4000
     d24:	0007c1d0 	ldrdeq	ip, [r7], -r0
     d28:	0fb40600 	svceq	0x00b40600
     d2c:	d2030000 	andle	r0, r3, #0
     d30:	00000053 	andeq	r0, r0, r3, asr r0
     d34:	00101004 	andseq	r1, r0, r4
     d38:	000ff106 	andeq	pc, pc, r6, lsl #2
     d3c:	53d30300 	bicspl	r0, r3, #0, 6
     d40:	04000000 	streq	r0, [r0], #-0
     d44:	00000010 	andeq	r0, r0, r0, lsl r0
     d48:	000e4703 	andeq	r4, lr, r3, lsl #14
     d4c:	96d40300 	ldrbls	r0, [r4], r0, lsl #6
     d50:	0a000007 	beq	d74 <jump_to_resume0_nommu+0x74>
     d54:	00001067 	andeq	r1, r0, r7, rrx
     d58:	d60302dc 			; <UNDEFINED> instruction: 0xd60302dc
     d5c:	00000e99 	muleq	r0, r9, lr
     d60:	0009860b 	andeq	r8, r9, fp, lsl #12
     d64:	99d80300 	ldmibls	r8, {r8, r9}^
     d68:	0000000e 	andeq	r0, r0, lr
     d6c:	000d440b 	andeq	r4, sp, fp, lsl #8
     d70:	9ed90300 	cdpls	3, 13, cr0, cr9, cr0, {0}
     d74:	0400000e 	streq	r0, [r0], #-14
     d78:	00105f0b 	andseq	r5, r0, fp, lsl #30
     d7c:	a3da0300 	bicsge	r0, sl, #0, 6
     d80:	0800000e 	stmdaeq	r0, {r1, r2, r3}
     d84:	000d4e0b 	andeq	r4, sp, fp, lsl #28
     d88:	9edb0300 	cdpls	3, 13, cr0, cr11, cr0, {0}
     d8c:	0c00000e 	stceq	0, cr0, [r0], {14}
     d90:	000b570b 	andeq	r5, fp, fp, lsl #14
     d94:	9edc0300 	cdpls	3, 13, cr0, cr12, cr0, {0}
     d98:	1000000e 	andne	r0, r0, lr
     d9c:	000d580b 	andeq	r5, sp, fp, lsl #16
     da0:	9edd0300 	cdpls	3, 13, cr0, cr13, cr0, {0}
     da4:	1400000e 	strne	r0, [r0], #-14
     da8:	0005be0b 	andeq	fp, r5, fp, lsl #28
     dac:	9ede0300 	cdpls	3, 13, cr0, cr14, cr0, {0}
     db0:	1800000e 	stmdane	r0, {r1, r2, r3}
     db4:	000d620b 	andeq	r6, sp, fp, lsl #4
     db8:	9edf0300 	cdpls	3, 13, cr0, cr15, cr0, {0}
     dbc:	1c00000e 	stcne	0, cr0, [r0], {14}
     dc0:	000c8e0b 	andeq	r8, ip, fp, lsl #28
     dc4:	a8e00300 	stmiage	r0!, {r8, r9}^
     dc8:	2000000e 	andcs	r0, r0, lr
     dcc:	000d6c0b 	andeq	r6, sp, fp, lsl #24
     dd0:	9ee10300 	cdpls	3, 14, cr0, cr1, cr0, {0}
     dd4:	2400000e 	strcs	r0, [r0], #-14
     dd8:	0005550b 	andeq	r5, r5, fp, lsl #10
     ddc:	ade20300 	stclge	3, cr0, [r2]
     de0:	2800000e 	stmdacs	r0, {r1, r2, r3}
     de4:	000d760b 	andeq	r7, sp, fp, lsl #12
     de8:	9ee30300 	cdpls	3, 14, cr0, cr3, cr0, {0}
     dec:	2c00000e 	stccs	0, cr0, [r0], {14}
     df0:	000c830b 	andeq	r8, ip, fp, lsl #6
     df4:	9ee40300 	cdpls	3, 14, cr0, cr4, cr0, {0}
     df8:	3000000e 	andcc	r0, r0, lr
     dfc:	000d800b 	andeq	r8, sp, fp
     e00:	9ee50300 	cdpls	3, 14, cr0, cr5, cr0, {0}
     e04:	3400000e 	strcc	r0, [r0], #-14
     e08:	0009db0b 	andeq	sp, r9, fp, lsl #22
     e0c:	b2e60300 	rsclt	r0, r6, #0, 6
     e10:	3800000e 	stmdacc	r0, {r1, r2, r3}
     e14:	000d8a0b 	andeq	r8, sp, fp, lsl #20
     e18:	9ee70300 	cdpls	3, 14, cr0, cr7, cr0, {0}
     e1c:	3c00000e 	stccc	0, cr0, [r0], {14}
     e20:	0007460b 	andeq	r4, r7, fp, lsl #12
     e24:	b7e80300 	strblt	r0, [r8, r0, lsl #6]!
     e28:	4000000e 	andmi	r0, r0, lr
     e2c:	0010d10b 	andseq	sp, r0, fp, lsl #2
     e30:	9ee90300 	cdpls	3, 14, cr0, cr9, cr0, {0}
     e34:	4400000e 	strmi	r0, [r0], #-14
     e38:	0005b50b 	andeq	fp, r5, fp, lsl #10
     e3c:	9eea0300 	cdpls	3, 14, cr0, cr10, cr0, {0}
     e40:	4800000e 	stmdami	r0, {r1, r2, r3}
     e44:	000cd60b 	andeq	sp, ip, fp, lsl #12
     e48:	9eeb0300 	cdpls	3, 14, cr0, cr11, cr0, {0}
     e4c:	4c00000e 	stcmi	0, cr0, [r0], {14}
     e50:	000b5f0b 	andeq	r5, fp, fp, lsl #30
     e54:	bcec0300 	stcllt	3, cr0, [ip]
     e58:	5000000e 	andpl	r0, r0, lr
     e5c:	000b380b 	andeq	r3, fp, fp, lsl #16
     e60:	c1ed0300 	mvngt	r0, r0, lsl #6
     e64:	5400000e 	strpl	r0, [r0], #-14
     e68:	0007690b 	andeq	r6, r7, fp, lsl #18
     e6c:	c6ee0300 	strbtgt	r0, [lr], r0, lsl #6
     e70:	5800000e 	stmdapl	r0, {r1, r2, r3}
     e74:	000f400b 	andeq	r4, pc, fp
     e78:	9eef0300 	cdpls	3, 14, cr0, cr15, cr0, {0}
     e7c:	5c00000e 	stcpl	0, cr0, [r0], {14}
     e80:	000e210b 	andeq	r2, lr, fp, lsl #2
     e84:	9ef00300 	cdpls	3, 15, cr0, cr0, cr0, {0}
     e88:	6000000e 	andvs	r0, r0, lr
     e8c:	000e370b 	andeq	r3, lr, fp, lsl #14
     e90:	9ef10300 	cdpls	3, 15, cr0, cr1, cr0, {0}
     e94:	6400000e 	strvs	r0, [r0], #-14
     e98:	0010040b 	andseq	r0, r0, fp, lsl #8
     e9c:	9ef20300 	cdpls	3, 15, cr0, cr2, cr0, {0}
     ea0:	6800000e 	stmdavs	r0, {r1, r2, r3}
     ea4:	000be60b 	andeq	lr, fp, fp, lsl #12
     ea8:	9ef30300 	cdpls	3, 15, cr0, cr3, cr0, {0}
     eac:	6c00000e 	stcvs	0, cr0, [r0], {14}
     eb0:	000d940b 	andeq	r9, sp, fp, lsl #8
     eb4:	e2f40300 	rscs	r0, r4, #0, 6
     eb8:	7000000e 	andvc	r0, r0, lr
     ebc:	00108f0b 	andseq	r8, r0, fp, lsl #30
     ec0:	9ef50300 	cdpls	3, 15, cr0, cr5, cr0, {0}
     ec4:	8000000e 	andhi	r0, r0, lr
     ec8:	00100d0b 	andseq	r0, r0, fp, lsl #26
     ecc:	9ef60300 	cdpls	3, 15, cr0, cr6, cr0, {0}
     ed0:	8400000e 	strhi	r0, [r0], #-14
     ed4:	3064530c 	rsbcc	r5, r4, ip, lsl #6
     ed8:	9ef70300 	cdpls	3, 15, cr0, cr7, cr0, {0}
     edc:	8800000e 	stmdahi	r0, {r1, r2, r3}
     ee0:	3164530c 	cmncc	r4, ip, lsl #6
     ee4:	9ef80300 	cdpls	3, 15, cr0, cr8, cr0, {0}
     ee8:	8c00000e 	stchi	0, cr0, [r0], {14}
     eec:	3264530c 	rsbcc	r5, r4, #12, 6	; 0x30000000
     ef0:	9ef90300 	cdpls	3, 15, cr0, cr9, cr0, {0}
     ef4:	9000000e 	andls	r0, r0, lr
     ef8:	0010180b 	andseq	r1, r0, fp, lsl #16
     efc:	f7fa0300 			; <UNDEFINED> instruction: 0xf7fa0300
     f00:	9400000e 	strls	r0, [r0], #-14
     f04:	0073530c 	rsbseq	r5, r3, ip, lsl #6
     f08:	0e9efb03 	vfnmseq.f64	d15, d14, d3
     f0c:	0b9c0000 	bleq	fe700f14 <__bss_end+0xfe6fdd98>
     f10:	00000e17 	andeq	r0, r0, r7, lsl lr
     f14:	0e9efc03 	cdpeq	12, 9, cr15, cr14, cr3, {0}
     f18:	0ba00000 	bleq	fe800f20 <__bss_end+0xfe7fdda4>
     f1c:	00000e1c 	andeq	r0, r0, ip, lsl lr
     f20:	0e9efd03 	cdpeq	13, 9, cr15, cr14, cr3, {0}
     f24:	0ba40000 	bleq	fe900f2c <__bss_end+0xfe8fddb0>
     f28:	00001023 	andeq	r1, r0, r3, lsr #32
     f2c:	0efcfe03 	cdpeq	14, 15, cr15, cr12, cr3, {0}
     f30:	0ba80000 	bleq	fea00f38 <__bss_end+0xfe9fddbc>
     f34:	000005ab 	andeq	r0, r0, fp, lsr #11
     f38:	0e9eff03 	cdpeq	15, 9, cr15, cr14, cr3, {0}
     f3c:	0db00000 	ldceq	0, cr0, [r0]
     f40:	000005b0 			; <UNDEFINED> instruction: 0x000005b0
     f44:	9e010003 	cdpls	0, 0, cr0, cr1, cr3, {0}
     f48:	b400000e 	strlt	r0, [r0], #-14
     f4c:	0009e30d 	andeq	lr, r9, sp, lsl #6
     f50:	01010300 	mrseq	r0, SP_irq
     f54:	00000f01 	andeq	r0, r0, r1, lsl #30
     f58:	0e7e0db8 	mrceq	13, 3, r0, cr14, cr8, {5}
     f5c:	02030000 	andeq	r0, r3, #0
     f60:	000e9e01 	andeq	r9, lr, r1, lsl #28
     f64:	140dc000 	strne	ip, [sp], #-0
     f68:	0300000b 	movweq	r0, #11
     f6c:	0f060103 	svceq	0x00060103
     f70:	0ec40000 	cdpeq	0, 12, cr0, cr4, cr0, {0}
     f74:	00627355 	rsbeq	r7, r2, r5, asr r3
     f78:	9e010403 	cdpls	4, 0, cr0, cr1, cr3, {0}
     f7c:	cc00000e 	stcgt	0, cr0, [r0], {14}
     f80:	000f6b0d 	andeq	r6, pc, sp, lsl #22
     f84:	01050300 	mrseq	r0, SP_abt
     f88:	00000e9e 	muleq	r0, lr, lr
     f8c:	0a050dd0 	beq	1446d4 <__bss_end+0x141558>
     f90:	06030000 	streq	r0, [r3], -r0
     f94:	000f1b01 	andeq	r1, pc, r1, lsl #22
     f98:	530dd400 	movwpl	sp, #54272	; 0xd400
     f9c:	03000010 	movweq	r0, #16
     fa0:	0e9e0107 	fmleqe	f0, f6, f7
     fa4:	0df00000 	ldcleq	0, cr0, [r0]
     fa8:	00000ef9 	strdeq	r0, [r0], -r9
     fac:	9e010803 	cdpls	8, 0, cr0, cr1, cr3, {0}
     fb0:	f400000e 	vst4.8	{d0-d3}, [r0], lr
     fb4:	000a420d 	andeq	r4, sl, sp, lsl #4
     fb8:	01090300 	mrseq	r0, (UNDEF: 57)
     fbc:	00000e9e 	muleq	r0, lr, lr
     fc0:	0b910df8 	bleq	fe4447a8 <__bss_end+0xfe44162c>
     fc4:	0a030000 	beq	c0fcc <__bss_end+0xbde50>
     fc8:	000e9e01 	andeq	r9, lr, r1, lsl #28
     fcc:	490ffc00 	stmdbmi	pc, {sl, fp, ip, sp, lr, pc}	; <UNPREDICTABLE>
     fd0:	0300000c 	movweq	r0, #12
     fd4:	0e9e010b 	fmleqe	f0, f6, #3.0
     fd8:	01000000 	mrseq	r0, (UNDEF: 0)
     fdc:	30654210 	rsbcc	r4, r5, r0, lsl r2
     fe0:	010c0300 	mrseq	r0, LR_mon
     fe4:	00000e9e 	muleq	r0, lr, lr
     fe8:	4b0f0104 	blmi	3c1400 <__bss_end+0x3be284>
     fec:	0300000b 	movweq	r0, #11
     ff0:	0e9e010d 	fmleqe	f0, f6, #5.0
     ff4:	01080000 	mrseq	r0, (UNDEF: 8)
     ff8:	30654610 	rsbcc	r4, r5, r0, lsl r6
     ffc:	010e0300 	mrseq	r0, ELR_hyp
    1000:	00000e9e 	muleq	r0, lr, lr
    1004:	b50f010c 	strlt	r0, [pc, #-268]	; f00 <__save_processor_state+0x150>
    1008:	03000004 	movweq	r0, #4
    100c:	0e9e010f 	fmleqe	f0, f6, #10.0
    1010:	01100000 	tsteq	r0, r0
    1014:	0004c10f 	andeq	ip, r4, pc, lsl #2
    1018:	01100300 	tsteq	r0, r0, lsl #6
    101c:	00000e9e 	muleq	r0, lr, lr
    1020:	2a0f0114 	bcs	3c1478 <__bss_end+0x3be2fc>
    1024:	03000005 	movweq	r0, #5
    1028:	0e9e0111 	mrceq	1, 4, r0, cr14, cr1, {0}
    102c:	01180000 	tsteq	r8, r0
    1030:	0004cd0f 	andeq	ip, r4, pc, lsl #26
    1034:	01120300 	tsteq	r2, r0, lsl #6
    1038:	00000e9e 	muleq	r0, lr, lr
    103c:	160f011c 			; <UNDEFINED> instruction: 0x160f011c
    1040:	0300000a 	movweq	r0, #10
    1044:	0f300113 	svceq	0x00300113
    1048:	01200000 			; <UNDEFINED> instruction: 0x01200000
    104c:	0005320f 	andeq	r3, r5, pc, lsl #4
    1050:	01140300 	tsteq	r4, r0, lsl #6
    1054:	00000e9e 	muleq	r0, lr, lr
    1058:	6a0f012c 	bvs	3c1510 <__bss_end+0x3be394>
    105c:	03000005 	movweq	r0, #5
    1060:	0e9e0115 	mrceq	1, 4, r0, cr14, cr5, {0}
    1064:	01300000 	teqeq	r0, r0
    1068:	000dc40f 	andeq	ip, sp, pc, lsl #8
    106c:	01160300 	tsteq	r6, r0, lsl #6
    1070:	00000e9e 	muleq	r0, lr, lr
    1074:	760f0134 			; <UNDEFINED> instruction: 0x760f0134
    1078:	03000005 	movweq	r0, #5
    107c:	0e9e0117 	mrceq	1, 4, r0, cr14, cr7, {0}
    1080:	01380000 	teqeq	r8, r0
    1084:	00655610 	rsbeq	r5, r5, r0, lsl r6
    1088:	9e011803 	cdpls	8, 0, cr1, cr1, cr3, {0}
    108c:	3c00000e 	stccc	0, cr0, [r0], {14}
    1090:	098e0f01 	stmibeq	lr, {r0, r8, r9, sl, fp}
    1094:	19030000 	stmdbne	r3, {}	; <UNPREDICTABLE>
    1098:	000e9e01 	andeq	r9, lr, r1, lsl #28
    109c:	10014000 	andne	r4, r1, r0
    10a0:	00737641 	rsbseq	r7, r3, r1, asr #12
    10a4:	9e011a03 	vmlals.f32	s2, s2, s6
    10a8:	4400000e 	strmi	r0, [r0], #-14
    10ac:	05820f01 	streq	r0, [r2, #3841]	; 0xf01
    10b0:	1b030000 	blne	c10b8 <__bss_end+0xbdf3c>
    10b4:	000e9e01 	andeq	r9, lr, r1, lsl #28
    10b8:	0f014800 	svceq	0x00014800
    10bc:	00000a21 	andeq	r0, r0, r1, lsr #20
    10c0:	9e011c03 	cdpls	12, 0, cr1, cr1, cr3, {0}
    10c4:	4c00000e 	stcmi	0, cr0, [r0], {14}
    10c8:	06650f01 	strbteq	r0, [r5], -r1, lsl #30
    10cc:	1d030000 	stcne	0, cr0, [r3, #-0]
    10d0:	000e9e01 	andeq	r9, lr, r1, lsl #28
    10d4:	0f015000 	svceq	0x00015000
    10d8:	00000671 	andeq	r0, r0, r1, ror r6
    10dc:	9e011e03 	cdpls	14, 0, cr1, cr1, cr3, {0}
    10e0:	5400000e 	strpl	r0, [r0], #-14
    10e4:	067d0f01 	ldrbteq	r0, [sp], -r1, lsl #30
    10e8:	1f030000 	svcne	0x00030000
    10ec:	000e9e01 	andeq	r9, lr, r1, lsl #28
    10f0:	0f015800 	svceq	0x00015800
    10f4:	000006e5 	andeq	r0, r0, r5, ror #13
    10f8:	9e012003 	cdpls	0, 0, cr2, cr1, cr3, {0}
    10fc:	5c00000e 	stcpl	0, cr0, [r0], {14}
    1100:	06890f01 	streq	r0, [r9], r1, lsl #30
    1104:	21030000 	mrscs	r0, (UNDEF: 3)
    1108:	000e9e01 	andeq	r9, lr, r1, lsl #28
    110c:	0f016000 	svceq	0x00016000
    1110:	00000a2c 	andeq	r0, r0, ip, lsr #20
    1114:	9e012203 	cdpls	2, 0, cr2, cr1, cr3, {0}
    1118:	6400000e 	strvs	r0, [r0], #-14
    111c:	05f30f01 	ldrbeq	r0, [r3, #3841]!	; 0xf01
    1120:	23030000 	movwcs	r0, #12288	; 0x3000
    1124:	000e9e01 	andeq	r9, lr, r1, lsl #28
    1128:	0f016800 	svceq	0x00016800
    112c:	00000fa8 	andeq	r0, r0, r8, lsr #31
    1130:	9e012403 	cdpls	4, 0, cr2, cr1, cr3, {0}
    1134:	6c00000e 	stcvs	0, cr0, [r0], {14}
    1138:	0a370f01 	beq	dc4d44 <__bss_end+0xdc1bc8>
    113c:	25030000 	strcs	r0, [r3, #-0]
    1140:	000f3501 	andeq	r3, pc, r1, lsl #10
    1144:	0f017000 	svceq	0x00017000
    1148:	000008bc 			; <UNDEFINED> instruction: 0x000008bc
    114c:	9e012603 	cfmadd32ls	mvax0, mvfx2, mvfx1, mvfx3
    1150:	8000000e 	andhi	r0, r0, lr
    1154:	086b0f01 	stmdaeq	fp!, {r0, r8, r9, sl, fp}^
    1158:	27030000 	strcs	r0, [r3, -r0]
    115c:	000e9e01 	andeq	r9, lr, r1, lsl #28
    1160:	0f018400 	svceq	0x00018400
    1164:	00000877 	andeq	r0, r0, r7, ror r8
    1168:	9e012803 	cdpls	8, 0, cr2, cr1, cr3, {0}
    116c:	8800000e 	stmdahi	r0, {r1, r2, r3}
    1170:	08830f01 	stmeq	r3, {r0, r8, r9, sl, fp}
    1174:	29030000 	stmdbcs	r3, {}	; <UNPREDICTABLE>
    1178:	000e9e01 	andeq	r9, lr, r1, lsl #28
    117c:	0f018c00 	svceq	0x00018c00
    1180:	00000b40 	andeq	r0, r0, r0, asr #22
    1184:	3a012a03 	bcc	4b998 <__bss_end+0x4881c>
    1188:	9000000f 	andls	r0, r0, pc
    118c:	08b40f01 	ldmeq	r4!, {r0, r8, r9, sl, fp}
    1190:	2b030000 	blcs	c1198 <__bss_end+0xbe01c>
    1194:	000e9e01 	andeq	r9, lr, r1, lsl #28
    1198:	0f01a000 	svceq	0x0001a000
    119c:	000007e3 	andeq	r0, r0, r3, ror #15
    11a0:	9e012c03 	cdpls	12, 0, cr2, cr1, cr3, {0}
    11a4:	a400000e 	strge	r0, [r0], #-14
    11a8:	0b9e0f01 	bleq	fe784db4 <__bss_end+0xfe781c38>
    11ac:	2d030000 	stccs	0, cr0, [r3, #-0]
    11b0:	000e9e01 	andeq	r9, lr, r1, lsl #28
    11b4:	0f01a800 	svceq	0x0001a800
    11b8:	0000090c 	andeq	r0, r0, ip, lsl #18
    11bc:	9e012e03 	cdpls	14, 0, cr2, cr1, cr3, {0}
    11c0:	ac00000e 	stcge	0, cr0, [r0], {14}
    11c4:	74411001 	strbvc	r1, [r1], #-1
    11c8:	2f030073 	svccs	0x00030073
    11cc:	000e9e01 	andeq	r9, lr, r1, lsl #28
    11d0:	0f01b000 	svceq	0x0001b000
    11d4:	00000a4c 	andeq	r0, r0, ip, asr #20
    11d8:	4f013003 	svcmi	0x00013003
    11dc:	b400000f 	strlt	r0, [r0], #-15
    11e0:	088f0f01 	stmeq	pc, {r0, r8, r9, sl, fp}	; <UNPREDICTABLE>
    11e4:	31030000 	mrscc	r0, (UNDEF: 3)
    11e8:	000f5401 	andeq	r5, pc, r1, lsl #8
    11ec:	0f020000 	svceq	0x00020000
    11f0:	00000c07 	andeq	r0, r0, r7, lsl #24
    11f4:	9e013203 	cdpls	2, 0, cr3, cr1, cr3, {0}
    11f8:	0400000e 	streq	r0, [r0], #-14
    11fc:	0fe50f02 	svceq	0x00e50f02
    1200:	33030000 	movwcc	r0, #12288	; 0x3000
    1204:	000f6901 	andeq	r6, pc, r1, lsl #18
    1208:	0f020800 	svceq	0x00020800
    120c:	00000ab4 			; <UNDEFINED> instruction: 0x00000ab4
    1210:	7e013403 	cdpvc	4, 0, cr3, cr1, cr3, {0}
    1214:	2000000f 	andcs	r0, r0, pc
    1218:	06400f02 	strbeq	r0, [r0], -r2, lsl #30
    121c:	35030000 	strcc	r0, [r3, #-0]
    1220:	000e9e01 	andeq	r9, lr, r1, lsl #28
    1224:	0f022400 	svceq	0x00022400
    1228:	00000970 	andeq	r0, r0, r0, ror r9
    122c:	9e013603 	cfmadd32ls	mvax0, mvfx3, mvfx1, mvfx3
    1230:	2800000e 	stmdacs	r0, {r1, r2, r3}
    1234:	0afb0f02 	beq	ffec4e44 <__bss_end+0xffec1cc8>
    1238:	37030000 	strcc	r0, [r3, -r0]
    123c:	000e9e01 	andeq	r9, lr, r1, lsl #28
    1240:	0f022c00 	svceq	0x00022c00
    1244:	00000c10 	andeq	r0, r0, r0, lsl ip
    1248:	9e013803 	cdpls	8, 0, cr3, cr1, cr3, {0}
    124c:	3000000e 	andcc	r0, r0, lr
    1250:	0e600f02 	cdpeq	15, 6, cr0, cr0, cr2, {0}
    1254:	39030000 	stmdbcc	r3, {}	; <UNPREDICTABLE>
    1258:	000e9e01 	andeq	r9, lr, r1, lsl #28
    125c:	0f023400 	svceq	0x00023400
    1260:	00000779 	andeq	r0, r0, r9, ror r7
    1264:	9e013a03 	vmlals.f32	s6, s2, s6
    1268:	3800000e 	stmdacc	r0, {r1, r2, r3}
    126c:	07b50f02 	ldreq	r0, [r5, r2, lsl #30]!
    1270:	3b030000 	blcc	c1278 <__bss_end+0xbe0fc>
    1274:	000e9e01 	andeq	r9, lr, r1, lsl #28
    1278:	0f023c00 	svceq	0x00023c00
    127c:	00000abd 			; <UNDEFINED> instruction: 0x00000abd
    1280:	9e013c03 	cdpls	12, 0, cr3, cr1, cr3, {0}
    1284:	4000000e 	andmi	r0, r0, lr
    1288:	06bb0f02 	ldrteq	r0, [fp], r2, lsl #30
    128c:	3d030000 	stccc	0, cr0, [r3, #-0]
    1290:	000e9e01 	andeq	r9, lr, r1, lsl #28
    1294:	0f024400 	svceq	0x00024400
    1298:	00000c5d 	andeq	r0, r0, sp, asr ip
    129c:	9e013e03 	cdpls	14, 0, cr3, cr1, cr3, {0}
    12a0:	4800000e 	stmdami	r0, {r1, r2, r3}
    12a4:	0eca0f02 	cdpeq	15, 12, cr0, cr10, cr2, {0}
    12a8:	3f030000 	svccc	0x00030000
    12ac:	000e9e01 	andeq	r9, lr, r1, lsl #28
    12b0:	0f024c00 	svceq	0x00024c00
    12b4:	000006dd 	ldrdeq	r0, [r0], -sp
    12b8:	9e014003 	cdpls	0, 0, cr4, cr1, cr3, {0}
    12bc:	5000000e 	andpl	r0, r0, lr
    12c0:	07850f02 	streq	r0, [r5, r2, lsl #30]
    12c4:	41030000 	mrsmi	r0, (UNDEF: 3)
    12c8:	000f8301 	andeq	r8, pc, r1, lsl #6
    12cc:	0f025400 	svceq	0x00025400
    12d0:	00000b05 	andeq	r0, r0, r5, lsl #22
    12d4:	9e014203 	cdpls	2, 0, cr4, cr1, cr3, {0}
    12d8:	6000000e 	andvs	r0, r0, lr
    12dc:	07910f02 	ldreq	r0, [r1, r2, lsl #30]
    12e0:	43030000 	movwmi	r0, #12288	; 0x3000
    12e4:	000f8801 	andeq	r8, pc, r1, lsl #16
    12e8:	0f026400 	svceq	0x00026400
    12ec:	00000ad5 	ldrdeq	r0, [r0], -r5
    12f0:	9e014403 	cdpls	4, 0, cr4, cr1, cr3, {0}
    12f4:	7000000e 	andvc	r0, r0, lr
    12f8:	079d0f02 	ldreq	r0, [sp, r2, lsl #30]
    12fc:	45030000 	strmi	r0, [r3, #-0]
    1300:	000f8d01 	andeq	r8, pc, r1, lsl #26
    1304:	0f027400 	svceq	0x00027400
    1308:	00000ac9 	andeq	r0, r0, r9, asr #21
    130c:	9e014603 	cfmadd32ls	mvax0, mvfx4, mvfx1, mvfx3
    1310:	8000000e 	andhi	r0, r0, lr
    1314:	0e000f02 	cdpeq	15, 0, cr0, cr0, cr2, {0}
    1318:	47030000 	strmi	r0, [r3, -r0]
    131c:	000e9e01 	andeq	r9, lr, r1, lsl #28
    1320:	0f028400 	svceq	0x00028400
    1324:	00000fc8 	andeq	r0, r0, r8, asr #31
    1328:	9e014803 	cdpls	8, 0, cr4, cr1, cr3, {0}
    132c:	8800000e 	stmdahi	r0, {r1, r2, r3}
    1330:	0fd80f02 	svceq	0x00d80f02
    1334:	49030000 	stmdbmi	r3, {}	; <UNPREDICTABLE>
    1338:	000e9e01 	andeq	r9, lr, r1, lsl #28
    133c:	0f028c00 	svceq	0x00028c00
    1340:	0000045b 	andeq	r0, r0, fp, asr r4
    1344:	9e014a03 	vmlals.f32	s8, s2, s6
    1348:	9000000e 	andls	r0, r0, lr
    134c:	0e2a0f02 	cdpeq	15, 2, cr0, cr10, cr2, {0}
    1350:	4b030000 	blmi	c1358 <__bss_end+0xbe1dc>
    1354:	000f9201 	andeq	r9, pc, r1, lsl #4
    1358:	0f029400 	svceq	0x00029400
    135c:	000007ea 	andeq	r0, r0, sl, ror #15
    1360:	9e014c03 	cdpls	12, 0, cr4, cr1, cr3, {0}
    1364:	9c00000e 	stcls	0, cr0, [r0], {14}
    1368:	0a600f02 	beq	1804f78 <__bss_end+0x1801dfc>
    136c:	4d030000 	stcmi	0, cr0, [r3, #-0]
    1370:	000e9e01 	andeq	r9, lr, r1, lsl #28
    1374:	0f02a000 	svceq	0x0002a000
    1378:	00000695 	muleq	r0, r5, r6
    137c:	9e014e03 	cdpls	14, 0, cr4, cr1, cr3, {0}
    1380:	a400000e 	strge	r0, [r0], #-14
    1384:	0daa0f02 	stceq	15, cr0, [sl, #8]!
    1388:	4f030000 	svcmi	0x00030000
    138c:	000e9e01 	andeq	r9, lr, r1, lsl #28
    1390:	0f02a800 	svceq	0x0002a800
    1394:	00000f80 	andeq	r0, r0, r0, lsl #31
    1398:	9e015003 	cdpls	0, 0, cr5, cr1, cr3, {0}
    139c:	ac00000e 	stcge	0, cr0, [r0], {14}
    13a0:	0f940f02 	svceq	0x00940f02
    13a4:	51030000 	mrspl	r0, (UNDEF: 3)
    13a8:	000e9e01 	andeq	r9, lr, r1, lsl #28
    13ac:	0f02b000 	svceq	0x0002b000
    13b0:	000007a9 	andeq	r0, r0, r9, lsr #15
    13b4:	97015203 	strls	r5, [r1, -r3, lsl #4]
    13b8:	b400000f 	strlt	r0, [r0], #-15
    13bc:	0bac0f02 	bleq	feb04fcc <__bss_end+0xfeb01e50>
    13c0:	53030000 	movwpl	r0, #12288	; 0x3000
    13c4:	000e9e01 	andeq	r9, lr, r1, lsl #28
    13c8:	0f02c000 	svceq	0x0002c000
    13cc:	00000bb6 			; <UNDEFINED> instruction: 0x00000bb6
    13d0:	9e015403 	cdpls	4, 0, cr5, cr1, cr3, {0}
    13d4:	c400000e 	strgt	r0, [r0], #-14
    13d8:	0bc00f02 	bleq	ff004fe8 <__bss_end+0xff001e6c>
    13dc:	55030000 	strpl	r0, [r3, #-0]
    13e0:	000e9e01 	andeq	r9, lr, r1, lsl #28
    13e4:	0f02c800 	svceq	0x0002c800
    13e8:	00000ae5 	andeq	r0, r0, r5, ror #21
    13ec:	9e015603 	cfmadd32ls	mvax0, mvfx5, mvfx1, mvfx3
    13f0:	cc00000e 	stcgt	0, cr0, [r0], {14}
    13f4:	0d200f02 	stceq	15, cr0, [r0, #-8]!
    13f8:	57030000 	strpl	r0, [r3, -r0]
    13fc:	000e9e01 	andeq	r9, lr, r1, lsl #28
    1400:	0f02d000 	svceq	0x0002d000
    1404:	00000af0 	strdeq	r0, [r0], -r0	; <UNPREDICTABLE>
    1408:	9e015803 	cdpls	8, 0, cr5, cr1, cr3, {0}
    140c:	d400000e 	strle	r0, [r0], #-14
    1410:	083a0f02 	ldmdaeq	sl!, {r1, r8, r9, sl, fp}
    1414:	59030000 	stmdbpl	r3, {}	; <UNPREDICTABLE>
    1418:	000e9e01 	andeq	r9, lr, r1, lsl #28
    141c:	0002d800 	andeq	sp, r2, r0, lsl #16
    1420:	00015e11 	andeq	r5, r1, r1, lsl lr
    1424:	00531100 	subseq	r1, r3, r0, lsl #2
    1428:	1b110000 	blne	441430 <__bss_end+0x43e2b4>
    142c:	11000002 	tstne	r0, r2
    1430:	000002f6 	strdeq	r0, [r0], -r6
    1434:	0003ef11 	andeq	lr, r3, r1, lsl pc
    1438:	04bb1100 	ldrteq	r1, [fp], #256	; 0x100
    143c:	f0110000 			; <UNDEFINED> instruction: 0xf0110000
    1440:	11000005 	tstne	r0, r5
    1444:	0000067d 	andeq	r0, r0, sp, ror r6
    1448:	0006fe11 	andeq	pc, r6, r1, lsl lr	; <UNPREDICTABLE>
    144c:	078b1100 	streq	r1, [fp, r0, lsl #2]
    1450:	53120000 	tstpl	r2, #0
    1454:	db000000 	blle	145c <__restore_processor_state+0x2a8>
    1458:	1300000e 	movwne	r0, #14
    145c:	00000edb 	ldrdeq	r0, [r0], -fp
    1460:	04020003 	streq	r0, [r2], #-3
    1464:	00023807 	andeq	r3, r2, r7, lsl #16
    1468:	0ecb1100 	poleqe	f1, f3, f0
    146c:	53120000 	tstpl	r2, #0
    1470:	f7000000 			; <UNDEFINED> instruction: 0xf7000000
    1474:	1300000e 	movwne	r0, #14
    1478:	00000edb 	ldrdeq	r0, [r0], -fp
    147c:	e7110001 	ldr	r0, [r1, -r1]
    1480:	1100000e 	tstne	r0, lr
    1484:	00000ee7 	andeq	r0, r0, r7, ror #29
    1488:	000ee711 	andeq	lr, lr, r1, lsl r7
    148c:	0ee71100 	cdpeq	1, 14, cr1, cr7, cr0, {0}
    1490:	53120000 	tstpl	r2, #0
    1494:	1b000000 	blne	149c <set_copro_default+0xc>
    1498:	1300000f 	movwne	r0, #15
    149c:	00000edb 	ldrdeq	r0, [r0], -fp
    14a0:	0b110006 	bleq	4414c0 <__bss_end+0x43e344>
    14a4:	1200000f 	andne	r0, r0, #15
    14a8:	00000053 	andeq	r0, r0, r3, asr r0
    14ac:	00000f30 	andeq	r0, r0, r0, lsr pc
    14b0:	000edb13 	andeq	sp, lr, r3, lsl fp
    14b4:	11000200 	mrsne	r0, R8_usr
    14b8:	00000f20 	andeq	r0, r0, r0, lsr #30
    14bc:	000ecb11 	andeq	ip, lr, r1, lsl fp
    14c0:	0ecb1100 	poleqe	f1, f3, f0
    14c4:	53120000 	tstpl	r2, #0
    14c8:	4f000000 	svcmi	0x00000000
    14cc:	1300000f 	movwne	r0, #15
    14d0:	00000edb 	ldrdeq	r0, [r0], -fp
    14d4:	3f110012 	svccc	0x00110012
    14d8:	1100000f 	tstne	r0, pc
    14dc:	000007c1 	andeq	r0, r0, r1, asr #15
    14e0:	00005312 	andeq	r5, r0, r2, lsl r3
    14e4:	000f6900 	andeq	r6, pc, r0, lsl #18
    14e8:	0edb1300 	cdpeq	3, 13, cr1, cr11, cr0, {0}
    14ec:	00050000 	andeq	r0, r5, r0
    14f0:	000f5911 	andeq	r5, pc, r1, lsl r9	; <UNPREDICTABLE>
    14f4:	00531200 	subseq	r1, r3, r0, lsl #4
    14f8:	0f7e0000 	svceq	0x007e0000
    14fc:	db130000 	blle	4c1504 <__bss_end+0x4be388>
    1500:	0000000e 	andeq	r0, r0, lr
    1504:	0f6e1100 	svceq	0x006e1100
    1508:	20110000 	andscs	r0, r1, r0
    150c:	1100000f 	tstne	r0, pc
    1510:	00000f20 	andeq	r0, r0, r0, lsr #30
    1514:	000f2011 	andeq	r2, pc, r1, lsl r0	; <UNPREDICTABLE>
    1518:	0ee71100 	cdpeq	1, 14, cr1, cr7, cr0, {0}
    151c:	20110000 	andscs	r0, r1, r0
    1520:	1400000f 	strne	r0, [r0], #-15
    1524:	00000ead 	andeq	r0, r0, sp, lsr #29
    1528:	cc015a03 	stcgt	10, cr5, [r1], {3}
    152c:	15000007 	strne	r0, [r0, #-7]
    1530:	000f9c04 	andeq	r9, pc, r4, lsl #24
    1534:	0c960900 	ldceq	9, cr0, [r6], {0}
    1538:	04080000 	streq	r0, [r8], #-0
    153c:	000fd318 	andeq	sp, pc, r8, lsl r3	; <UNPREDICTABLE>
    1540:	053a0b00 	ldreq	r0, [sl, #-2816]!	; 0xfffff500
    1544:	19040000 	stmdbne	r4, {}	; <UNPREDICTABLE>
    1548:	00000053 	andeq	r0, r0, r3, asr r0
    154c:	08440b00 	stmdaeq	r4, {r8, r9, fp}^
    1550:	1a040000 	bne	101558 <__bss_end+0xfe3dc>
    1554:	00000053 	andeq	r0, r0, r3, asr r0
    1558:	bf090004 	svclt	0x00090004
    155c:	2400000e 	strcs	r0, [r0], #-14
    1560:	104c1d04 	subne	r1, ip, r4, lsl #26
    1564:	1d0b0000 	stcne	0, cr0, [fp, #-0]
    1568:	0400000f 	streq	r0, [r0], #-15
    156c:	0000531e 	andeq	r5, r0, lr, lsl r3
    1570:	e40b0000 	str	r0, [fp], #-0
    1574:	0400000e 	streq	r0, [r0], #-14
    1578:	0000531f 	andeq	r5, r0, pc, lsl r3
    157c:	970b0400 	strls	r0, [fp, -r0, lsl #8]
    1580:	04000008 	streq	r0, [r0], #-8
    1584:	00005320 	andeq	r5, r0, r0, lsr #6
    1588:	570b0800 	strpl	r0, [fp, -r0, lsl #16]
    158c:	0400000b 	streq	r0, [r0], #-11
    1590:	00005322 	andeq	r5, r0, r2, lsr #6
    1594:	be0b0c00 	cdplt	12, 0, cr0, cr11, cr0, {0}
    1598:	04000005 	streq	r0, [r0], #-5
    159c:	00005323 	andeq	r5, r0, r3, lsr #6
    15a0:	700b1000 	andvc	r1, fp, r0
    15a4:	04000009 	streq	r0, [r0], #-9
    15a8:	00005324 	andeq	r5, r0, r4, lsr #6
    15ac:	fb0b1400 	blx	2c65b6 <__bss_end+0x2c343a>
    15b0:	0400000a 	streq	r0, [r0], #-10
    15b4:	00005325 	andeq	r5, r0, r5, lsr #6
    15b8:	c80b1800 	stmdagt	fp, {fp, ip}
    15bc:	0400000f 	streq	r0, [r0], #-15
    15c0:	00005326 	andeq	r5, r0, r6, lsr #6
    15c4:	d80b1c00 	stmdale	fp, {sl, fp, ip}
    15c8:	0400000f 	streq	r0, [r0], #-15
    15cc:	00005327 	andeq	r5, r0, r7, lsr #6
    15d0:	09002000 	stmdbeq	r0, {sp}
    15d4:	00000658 	andeq	r0, r0, r8, asr r6
    15d8:	954a0408 	strbls	r0, [sl, #-1032]	; 0xfffffbf8
    15dc:	0b000010 	bleq	1624 <serial_exit+0x1c>
    15e0:	00000761 	andeq	r0, r0, r1, ror #14
    15e4:	002c4b04 	eoreq	r4, ip, r4, lsl #22
    15e8:	0b000000 	bleq	15f0 <set_serial_clk+0x94>
    15ec:	00000751 	andeq	r0, r0, r1, asr r7
    15f0:	002c4c04 	eoreq	r4, ip, r4, lsl #24
    15f4:	0b010000 	bleq	415fc <__bss_end+0x3e480>
    15f8:	00000759 	andeq	r0, r0, r9, asr r7
    15fc:	002c4d04 	eoreq	r4, ip, r4, lsl #26
    1600:	0b020000 	bleq	81608 <__bss_end+0x7e48c>
    1604:	00000771 	andeq	r0, r0, r1, ror r7
    1608:	002c4e04 	eoreq	r4, ip, r4, lsl #28
    160c:	0c030000 	stceq	0, cr0, [r3], {-0}
    1610:	006c6c50 	rsbeq	r6, ip, r0, asr ip
    1614:	00534f04 	subseq	r4, r3, r4, lsl #30
    1618:	00040000 	andeq	r0, r4, r0
    161c:	0001da16 	andeq	sp, r1, r6, lsl sl
    1620:	005e0400 	subseq	r0, lr, r0, lsl #8
    1624:	890c0000 	stmdbhi	ip, {}	; <UNPREDICTABLE>
    1628:	00001124 	andeq	r1, r0, r4, lsr #2
    162c:	0000d417 	andeq	sp, r0, r7, lsl r4
    1630:	29170000 	ldmdbcs	r7, {}	; <UNPREDICTABLE>
    1634:	01000001 	tsteq	r0, r1
    1638:	0000e117 	andeq	lr, r0, r7, lsl r1
    163c:	06170200 	ldreq	r0, [r7], -r0, lsl #4
    1640:	03000001 	movweq	r0, #1
    1644:	00025c17 	andeq	r5, r2, r7, lsl ip
    1648:	a1170400 	tstge	r7, r0, lsl #8
    164c:	05000001 	streq	r0, [r0, #-1]
    1650:	00018917 	andeq	r8, r1, r7, lsl r9
    1654:	c4170600 	ldrgt	r0, [r7], #-1536	; 0xfffffa00
    1658:	07000001 	streq	r0, [r0, -r1]
    165c:	0000c817 	andeq	ip, r0, r7, lsl r8
    1660:	fb170800 	blx	5c366a <__bss_end+0x5c04ee>
    1664:	09000000 	stmdbeq	r0, {}	; <UNPREDICTABLE>
    1668:	00019617 	andeq	r9, r1, r7, lsl r6
    166c:	76170a00 	ldrvc	r0, [r7], -r0, lsl #20
    1670:	0b000002 	bleq	1680 <serial_init_nommu+0x44>
    1674:	0001d417 	andeq	sp, r1, r7, lsl r4
    1678:	e6170c00 	ldr	r0, [r7], -r0, lsl #24
    167c:	0d000002 	stceq	0, cr0, [r0, #-8]
    1680:	00033117 	andeq	r3, r3, r7, lsl r1
    1684:	68170e00 	ldmdavs	r7, {r9, sl, fp}
    1688:	0f000002 	svceq	0x00000002
    168c:	00030117 	andeq	r0, r3, r7, lsl r1
    1690:	4f171000 	svcmi	0x00171000
    1694:	11000002 	tstne	r0, r2
    1698:	00031b17 	andeq	r1, r3, r7, lsl fp
    169c:	ee171200 	cdp	2, 1, cr1, cr7, cr0, {0}
    16a0:	13000000 	movwne	r0, #0
    16a4:	0002d817 	andeq	sp, r2, r7, lsl r8
    16a8:	02001400 	andeq	r1, r0, #0, 8
    16ac:	011b0801 	tsteq	fp, r1, lsl #16
    16b0:	04020000 	streq	r0, [r2], #-0
    16b4:	0001b207 	andeq	fp, r1, r7, lsl #4
    16b8:	5e041500 	cfsh32pl	mvfx1, mvfx4, #0
    16bc:	18000000 	stmdane	r0, {}	; <UNPREDICTABLE>
    16c0:	00005e04 	andeq	r5, r0, r4, lsl #28
    16c4:	98280500 	stmdals	r8!, {r8, sl}
    16c8:	17000011 	smladne	r0, r1, r0, r0
    16cc:	00000821 	andeq	r0, r0, r1, lsr #16
    16d0:	10771701 	rsbsne	r1, r7, r1, lsl #14
    16d4:	17020000 	strne	r0, [r2, -r0]
    16d8:	000005c6 	andeq	r0, r0, r6, asr #11
    16dc:	070e1704 	streq	r1, [lr, -r4, lsl #14]
    16e0:	17080000 	strne	r0, [r8, -r0]
    16e4:	00000850 	andeq	r0, r0, r0, asr r8
    16e8:	0f4b1710 	svceq	0x004b1710
    16ec:	17200000 	strne	r0, [r0, -r0]!
    16f0:	000006f2 	strdeq	r0, [r0], -r2
    16f4:	10951740 	addsne	r1, r5, r0, asr #14
    16f8:	19800000 	stmibne	r0, {}	; <UNPREDICTABLE>
    16fc:	00001033 	andeq	r1, r0, r3, lsr r0
    1700:	da190100 	ble	641b08 <__bss_end+0x63e98c>
    1704:	0000000d 	andeq	r0, r0, sp
    1708:	09551902 	ldmdbeq	r5, {r1, r8, fp, ip}^
    170c:	04000000 	streq	r0, [r0], #-0
    1710:	000e6e19 	andeq	r6, lr, r9, lsl lr
    1714:	19080000 	stmdbne	r8, {}	; <UNPREDICTABLE>
    1718:	00000724 	andeq	r0, r0, r4, lsr #14
    171c:	09001000 	stmdbeq	r0, {ip}
    1720:	000005a1 	andeq	r0, r0, r1, lsr #11
    1724:	104c0524 	subne	r0, ip, r4, lsr #10
    1728:	0b000012 	bleq	1778 <serial_puts_nommu+0x9c>
    172c:	0000102e 	andeq	r1, r0, lr, lsr #32
    1730:	00534e05 	subseq	r4, r3, r5, lsl #28
    1734:	0c000000 	stceq	0, cr0, [r0], {-0}
    1738:	05007263 	streq	r7, [r0, #-611]	; 0xfffffd9d
    173c:	00005350 	andeq	r5, r0, r0, asr r3
    1740:	b70b0400 	strlt	r0, [fp, -r0, lsl #8]
    1744:	0500000d 	streq	r0, [r0, #-13]
    1748:	00005351 	andeq	r5, r0, r1, asr r3
    174c:	100b0800 	andne	r0, fp, r0, lsl #16
    1750:	0500000e 	streq	r0, [r0, #-14]
    1754:	00005353 	andeq	r5, r0, r3, asr r3
    1758:	270b0c00 	strcs	r0, [fp, -r0, lsl #24]
    175c:	0500000f 	streq	r0, [r0, #-15]
    1760:	00005354 	andeq	r5, r0, r4, asr r3
    1764:	8a0b1000 	bhi	2c576c <__bss_end+0x2c25f0>
    1768:	0500000a 	streq	r0, [r0, #-10]
    176c:	00005355 	andeq	r5, r0, r5, asr r3
    1770:	070b1400 	streq	r1, [fp, -r0, lsl #8]
    1774:	05000009 	streq	r0, [r0, #-9]
    1778:	00005358 	andeq	r5, r0, r8, asr r3
    177c:	fb0b1800 	blx	2c7786 <__bss_end+0x2c460a>
    1780:	0500000d 	streq	r0, [r0, #-13]
    1784:	0000535b 	andeq	r5, r0, fp, asr r3
    1788:	930b1c00 	movwls	r1, #48128	; 0xbc00
    178c:	0500000e 	streq	r0, [r0, #-14]
    1790:	0000535c 	andeq	r5, r0, ip, asr r3
    1794:	09002000 	stmdbeq	r0, {sp}
    1798:	000010b1 	strheq	r1, [r0], -r1	; <UNPREDICTABLE>
    179c:	b96205d0 	stmdblt	r2!, {r4, r6, r7, r8, sl}^
    17a0:	0b000012 	bleq	17f0 <serial_gets_nommu+0x6c>
    17a4:	00000b29 	andeq	r0, r0, r9, lsr #22
    17a8:	12b96305 	adcsne	r6, r9, #335544320	; 0x14000000
    17ac:	0b000000 	bleq	17b4 <serial_gets_nommu+0x30>
    17b0:	0000097d 	andeq	r0, r0, sp, ror r9
    17b4:	0e9e6405 	cdpeq	4, 9, cr6, cr14, cr5, {0}
    17b8:	0b040000 	bleq	1017c0 <__bss_end+0xfe644>
    17bc:	000005fb 	strdeq	r0, [r0], -fp
    17c0:	00536505 	subseq	r6, r3, r5, lsl #10
    17c4:	0b080000 	bleq	2017cc <__bss_end+0x1fe650>
    17c8:	00000c1d 	andeq	r0, r0, sp, lsl ip
    17cc:	00536605 	subseq	r6, r3, r5, lsl #12
    17d0:	0b0c0000 	bleq	3017d8 <__bss_end+0x2fe65c>
    17d4:	00000eda 	ldrdeq	r0, [r0], -sl
    17d8:	00536705 	subseq	r6, r3, r5, lsl #14
    17dc:	0b100000 	bleq	4017e4 <__bss_end+0x3fe668>
    17e0:	00000490 	muleq	r0, r0, r4
    17e4:	00536805 	subseq	r6, r3, r5, lsl #16
    17e8:	0b140000 	bleq	5017f0 <__bss_end+0x4fe674>
    17ec:	000007c0 	andeq	r0, r0, r0, asr #15
    17f0:	00536905 	subseq	r6, r3, r5, lsl #18
    17f4:	0b180000 	bleq	6017fc <__bss_end+0x5fe680>
    17f8:	000004f1 	strdeq	r0, [r0], -r1
    17fc:	12c16a05 	sbcne	r6, r1, #20480	; 0x5000
    1800:	0b1c0000 	bleq	701808 <__bss_end+0x6fe68c>
    1804:	000007f8 	strdeq	r0, [r0], -r8
    1808:	0fae6b05 	svceq	0x00ae6b05
    180c:	0b540000 	bleq	1501814 <__bss_end+0x14fe698>
    1810:	00000a57 	andeq	r0, r0, r7, asr sl
    1814:	0fd36c05 	svceq	0x00d36c05
    1818:	0b5c0000 	bleq	1701820 <__bss_end+0x16fe6a4>
    181c:	00001f0a 	andeq	r1, r0, sl, lsl #30
    1820:	104c6d05 	subne	r6, ip, r5, lsl #26
    1824:	0b800000 	bleq	fe00182c <__bss_end+0xfdffe6b0>
    1828:	0000059b 	muleq	r0, fp, r5
    182c:	11986e05 	orrsne	r6, r8, r5, lsl #28
    1830:	0b880000 	bleq	fe201838 <__bss_end+0xfe1fe6bc>
    1834:	0000080a 	andeq	r0, r0, sl, lsl #16
    1838:	11986f05 	orrsne	r6, r8, r5, lsl #30
    183c:	00ac0000 	adceq	r0, ip, r0
    1840:	12bf0415 	adcsne	r0, pc, #352321536	; 0x15000000
    1844:	041a0000 	ldreq	r0, [sl], #-0
    1848:	00005312 	andeq	r5, r0, r2, lsl r3
    184c:	0012d100 	andseq	sp, r2, r0, lsl #2
    1850:	0edb1300 	cdpeq	3, 13, cr1, cr11, cr0, {0}
    1854:	000d0000 	andeq	r0, sp, r0
    1858:	12d70415 	sbcsne	r0, r7, #352321536	; 0x15000000
    185c:	4c1b0000 	ldcmi	0, cr0, [fp], {-0}
    1860:	1c000000 	stcne	0, cr0, [r0], {-0}
    1864:	00000aa5 	andeq	r0, r0, r5, lsr #21
    1868:	004c3d01 	subeq	r3, ip, r1, lsl #26
    186c:	01340000 	teqeq	r4, r0
    1870:	014c0000 	mrseq	r0, (UNDEF: 76)
    1874:	9c010000 	stcls	0, cr0, [r1], {-0}
    1878:	000014a3 	andeq	r1, r0, r3, lsr #9
    187c:	0001401d 	andeq	r4, r1, sp, lsl r0
    1880:	0016cd00 	andseq	ip, r6, r0, lsl #26
    1884:	00130900 	andseq	r0, r3, r0, lsl #18
    1888:	50011e00 	andpl	r1, r1, r0, lsl #28
    188c:	00470802 	subeq	r0, r7, r2, lsl #16
    1890:	0001481f 	andeq	r4, r1, pc, lsl r8
    1894:	0016d800 	andseq	sp, r6, r0, lsl #16
    1898:	01541d00 	cmpeq	r4, r0, lsl #26
    189c:	16cd0000 	strbne	r0, [sp], r0
    18a0:	13260000 			; <UNDEFINED> instruction: 0x13260000
    18a4:	011e0000 	tsteq	lr, r0
    18a8:	48080250 	stmdami	r8, {r4, r6, r9}
    18ac:	015c1d00 	cmpeq	ip, r0, lsl #26
    18b0:	16e30000 	strbtne	r0, [r3], r0
    18b4:	133b0000 	teqne	fp, #0
    18b8:	011e0000 	tsteq	lr, r0
    18bc:	d4740350 	ldrbtle	r0, [r4], #-848	; 0xfffffcb0
    18c0:	641d0000 	ldrvs	r0, [sp], #-0
    18c4:	ee000001 	cdp	0, 0, cr0, cr0, cr1, {0}
    18c8:	50000016 	andpl	r0, r0, r6, lsl r0
    18cc:	1e000013 	mcrne	0, 0, r0, cr0, cr3, {0}
    18d0:	74035001 	strvc	r5, [r3], #-1
    18d4:	1f000180 	svcne	0x00000180
    18d8:	00000168 	andeq	r0, r0, r8, ror #2
    18dc:	000016f9 	strdeq	r1, [r0], -r9
    18e0:	0001701f 	andeq	r7, r1, pc, lsl r0
    18e4:	00170400 	andseq	r0, r7, r0, lsl #8
    18e8:	01881d00 	orreq	r1, r8, r0, lsl #26
    18ec:	16cd0000 	strbne	r0, [sp], r0
    18f0:	13760000 	cmnne	r6, #0
    18f4:	011e0000 	tsteq	lr, r0
    18f8:	49080250 	stmdbmi	r8, {r4, r6, r9}
    18fc:	01901d00 	orrseq	r1, r0, r0, lsl #26
    1900:	170f0000 	strne	r0, [pc, -r0]
    1904:	138d0000 	orrne	r0, sp, #0
    1908:	011e0000 	tsteq	lr, r0
    190c:	18030550 	stmdane	r3, {r4, r6, r8, sl}
    1910:	00000030 	andeq	r0, r0, r0, lsr r0
    1914:	0001981d 	andeq	r9, r1, sp, lsl r8
    1918:	00171a00 	andseq	r1, r7, r0, lsl #20
    191c:	0013a100 	andseq	sl, r3, r0, lsl #2
    1920:	50011e00 	andpl	r1, r1, r0, lsl #28
    1924:	004a0802 	subeq	r0, sl, r2, lsl #16
    1928:	0001a01d 	andeq	sl, r1, sp, lsl r0
    192c:	00171a00 	andseq	r1, r7, r0, lsl #20
    1930:	0013b500 	andseq	fp, r3, r0, lsl #10
    1934:	50011e00 	andpl	r1, r1, r0, lsl #28
    1938:	004b0802 	subeq	r0, fp, r2, lsl #16
    193c:	0001a81f 	andeq	sl, r1, pc, lsl r8
    1940:	00172500 	andseq	r2, r7, r0, lsl #10
    1944:	01b01d00 	lslseq	r1, r0, #26
    1948:	17300000 	ldrne	r0, [r0, -r0]!
    194c:	13d10000 	bicsne	r0, r1, #0
    1950:	011e0000 	tsteq	lr, r0
    1954:	00310150 	eorseq	r0, r1, r0, asr r1
    1958:	0001c41d 	andeq	ip, r1, sp, lsl r4
    195c:	00171a00 	andseq	r1, r7, r0, lsl #20
    1960:	0013e500 	andseq	lr, r3, r0, lsl #10
    1964:	50011e00 	andpl	r1, r1, r0, lsl #28
    1968:	004e0802 	subeq	r0, lr, r2, lsl #16
    196c:	0001d01d 	andeq	sp, r1, sp, lsl r0
    1970:	00173b00 	andseq	r3, r7, r0, lsl #22
    1974:	0013fc00 	andseq	pc, r3, r0, lsl #24
    1978:	51011e00 	tstpl	r1, r0, lsl #28
    197c:	2fac0305 	svccs	0x00ac0305
    1980:	1d000000 	stcne	0, cr0, [r0, #-0]
    1984:	000001e4 	andeq	r0, r0, r4, ror #3
    1988:	00001746 	andeq	r1, r0, r6, asr #14
    198c:	00001413 	andeq	r1, r0, r3, lsl r4
    1990:	0550011e 	ldrbeq	r0, [r0, #-286]	; 0xfffffee2
    1994:	002c2803 	eoreq	r2, ip, r3, lsl #16
    1998:	f41d0000 			; <UNDEFINED> instruction: 0xf41d0000
    199c:	51000001 	tstpl	r0, r1
    19a0:	2a000017 	bcs	1a04 <serial_gets+0x74>
    19a4:	1e000014 	mcrne	0, 0, r0, cr0, cr4, {0}
    19a8:	03055001 	movweq	r5, #20481	; 0x5001
    19ac:	00002c4c 	andeq	r2, r0, ip, asr #24
    19b0:	01f81f00 	mvnseq	r1, r0, lsl #30
    19b4:	175c0000 	ldrbne	r0, [ip, -r0]
    19b8:	081d0000 	ldmdaeq	sp, {}	; <UNPREDICTABLE>
    19bc:	67000002 	strvs	r0, [r0, -r2]
    19c0:	4a000017 	bmi	1a24 <utoa>
    19c4:	1e000014 	mcrne	0, 0, r0, cr0, cr4, {0}
    19c8:	03055001 	movweq	r5, #20481	; 0x5001
    19cc:	00002c7c 	andeq	r2, r0, ip, ror ip
    19d0:	02181d00 	andseq	r1, r8, #0, 26
    19d4:	17670000 	strbne	r0, [r7, -r0]!
    19d8:	14610000 	strbtne	r0, [r1], #-0
    19dc:	011e0000 	tsteq	lr, r0
    19e0:	98030550 	stmdals	r3, {r4, r6, r8, sl}
    19e4:	0000002c 	andeq	r0, r0, ip, lsr #32
    19e8:	0002281d 	andeq	r2, r2, sp, lsl r8
    19ec:	00176700 	andseq	r6, r7, r0, lsl #14
    19f0:	00147800 	andseq	r7, r4, r0, lsl #16
    19f4:	50011e00 	andpl	r1, r1, r0, lsl #28
    19f8:	2cbc0305 	ldccs	3, cr0, [ip], #20
    19fc:	1d000000 	stcne	0, cr0, [r0, #-0]
    1a00:	00000254 	andeq	r0, r0, r4, asr r2
    1a04:	00001767 	andeq	r1, r0, r7, ror #14
    1a08:	0000148f 	andeq	r1, r0, pc, lsl #9
    1a0c:	0550011e 	ldrbeq	r0, [r0, #-286]	; 0xfffffee2
    1a10:	002cec03 	eoreq	lr, ip, r3, lsl #24
    1a14:	74200000 	strtvc	r0, [r0], #-0
    1a18:	67000002 	strvs	r0, [r0, -r2]
    1a1c:	1e000017 	mcrne	0, 0, r0, cr0, cr7, {0}
    1a20:	03055001 	movweq	r5, #20481	; 0x5001
    1a24:	00002d04 	andeq	r2, r0, r4, lsl #26
    1a28:	02210000 	eoreq	r0, r1, #0
    1a2c:	0100000d 	tsteq	r0, sp
    1a30:	00028087 	andeq	r8, r2, r7, lsl #1
    1a34:	00016c00 	andeq	r6, r1, r0, lsl #24
    1a38:	519c0100 	orrspl	r0, ip, r0, lsl #2
    1a3c:	22000016 	andcs	r0, r0, #22
    1a40:	00000e40 	andeq	r0, r0, r0, asr #28
    1a44:	0fa88901 	svceq	0x00a88901
    1a48:	00d50000 	sbcseq	r0, r5, r0
    1a4c:	a5220000 	strge	r0, [r2, #-0]!
    1a50:	0100000b 	tsteq	r0, fp
    1a54:	00005e8a 	andeq	r5, r0, sl, lsl #29
    1a58:	0000fe00 	andeq	pc, r0, r0, lsl #28
    1a5c:	04852300 	streq	r2, [r5], #768	; 0x300
    1a60:	8b010000 	blhi	41a68 <__bss_end+0x3e8ec>
    1a64:	0000005e 	andeq	r0, r0, lr, asr r0
    1a68:	0bca2300 	bleq	ff28a670 <__bss_end+0xff2874f4>
    1a6c:	8c010000 	stchi	0, cr0, [r1], {-0}
    1a70:	0000005e 	andeq	r0, r0, lr, asr r0
    1a74:	064d2300 	strbeq	r2, [sp], -r0, lsl #6
    1a78:	8d010000 	stchi	0, cr0, [r1, #-0]
    1a7c:	0000005e 	andeq	r0, r0, lr, asr r0
    1a80:	0dbc2300 	ldceq	3, cr2, [ip]
    1a84:	8e010000 	cdphi	0, 0, cr0, cr1, cr0, {0}
    1a88:	0000005e 	andeq	r0, r0, lr, asr r0
    1a8c:	0dc92300 	stcleq	3, cr2, [r9]
    1a90:	8f010000 	svchi	0x00010000
    1a94:	0000005e 	andeq	r0, r0, lr, asr r0
    1a98:	058e2300 	streq	r2, [lr, #768]	; 0x300
    1a9c:	90010000 	andls	r0, r1, r0
    1aa0:	0000005e 	andeq	r0, r0, lr, asr r0
    1aa4:	02bc1d00 	adcseq	r1, ip, #0, 26
    1aa8:	17300000 	ldrne	r0, [r0, -r0]!
    1aac:	15310000 	ldrne	r0, [r1, #-0]!
    1ab0:	011e0000 	tsteq	lr, r0
    1ab4:	00300150 	eorseq	r0, r0, r0, asr r1
    1ab8:	0002cc1f 	andeq	ip, r2, pc, lsl ip
    1abc:	00177200 	andseq	r7, r7, r0, lsl #4
    1ac0:	02d41d00 	sbcseq	r1, r4, #0, 26
    1ac4:	16cd0000 	strbne	r0, [sp], r0
    1ac8:	154e0000 	strbne	r0, [lr, #-0]
    1acc:	011e0000 	tsteq	lr, r0
    1ad0:	20080250 	andcs	r0, r8, r0, asr r2
    1ad4:	02f01d00 	rscseq	r1, r0, #0, 26
    1ad8:	177d0000 	ldrbne	r0, [sp, -r0]!
    1adc:	15680000 	strbne	r0, [r8, #-0]!
    1ae0:	011e0000 	tsteq	lr, r0
    1ae4:	00750250 	rsbseq	r0, r5, r0, asr r2
    1ae8:	0252011e 	subseq	r0, r2, #-2147483641	; 0x80000007
    1aec:	1d00d008 	stcne	0, cr13, [r0, #-32]	; 0xffffffe0
    1af0:	000002f8 	strdeq	r0, [r0], -r8
    1af4:	000016cd 	andeq	r1, r0, sp, asr #13
    1af8:	0000157c 	andeq	r1, r0, ip, ror r5
    1afc:	0250011e 	subseq	r0, r0, #-2147483641	; 0x80000007
    1b00:	1d002108 	stfnes	f2, [r0, #-32]	; 0xffffffe0
    1b04:	0000030c 	andeq	r0, r0, ip, lsl #6
    1b08:	00001788 	andeq	r1, r0, r8, lsl #15
    1b0c:	00001593 	muleq	r0, r3, r5
    1b10:	0550011e 	ldrbeq	r0, [r0, #-286]	; 0xfffffee2
    1b14:	002fec03 	eoreq	lr, pc, r3, lsl #24
    1b18:	141d0000 	ldrne	r0, [sp], #-0
    1b1c:	cd000003 	stcgt	0, cr0, [r0, #-12]
    1b20:	a7000016 	smladge	r0, r6, r0, r0
    1b24:	1e000015 	mcrne	0, 0, r0, cr0, cr5, {0}
    1b28:	08025001 	stmdaeq	r2, {r0, ip, lr}
    1b2c:	281d0023 	ldmdacs	sp, {r0, r1, r5}
    1b30:	cd000003 	stcgt	0, cr0, [r0, #-12]
    1b34:	bb000016 	bllt	1b94 <itoa.constprop.0+0xc>
    1b38:	1e000015 	mcrne	0, 0, r0, cr0, cr5, {0}
    1b3c:	08025001 	stmdaeq	r2, {r0, ip, lr}
    1b40:	341d0024 	ldrcc	r0, [sp], #-36	; 0xffffffdc
    1b44:	93000003 	movwls	r0, #3
    1b48:	d3000017 	movwle	r0, #23
    1b4c:	1e000015 	mcrne	0, 0, r0, cr0, cr5, {0}
    1b50:	31015001 	tstcc	r1, r1
    1b54:	0151011e 	cmpeq	r1, lr, lsl r1
    1b58:	381f0030 	ldmdacc	pc, {r4, r5}	; <UNPREDICTABLE>
    1b5c:	f9000003 			; <UNDEFINED> instruction: 0xf9000003
    1b60:	1d000016 	stcne	0, cr0, [r0, #-88]	; 0xffffffa8
    1b64:	00000340 	andeq	r0, r0, r0, asr #6
    1b68:	00001704 	andeq	r1, r0, r4, lsl #14
    1b6c:	000015ef 	andeq	r1, r0, pc, ror #11
    1b70:	0150011e 	cmpeq	r0, lr, lsl r1
    1b74:	541d003a 	ldrpl	r0, [sp], #-58	; 0xffffffc6
    1b78:	cd000003 	stcgt	0, cr0, [r0, #-12]
    1b7c:	03000016 	movweq	r0, #22
    1b80:	1e000016 	mcrne	0, 0, r0, cr0, cr6, {0}
    1b84:	08025001 	stmdaeq	r2, {r0, ip, lr}
    1b88:	6c1d0026 	ldcvs	0, cr0, [sp], {38}	; 0x26
    1b8c:	cd000003 	stcgt	0, cr0, [r0, #-12]
    1b90:	17000016 	smladne	r0, r6, r0, r0
    1b94:	1e000016 	mcrne	0, 0, r0, cr0, cr6, {0}
    1b98:	08025001 	stmdaeq	r2, {r0, ip, lr}
    1b9c:	701f0027 	andsvc	r0, pc, r7, lsr #32
    1ba0:	f9000003 			; <UNDEFINED> instruction: 0xf9000003
    1ba4:	24000016 	strcs	r0, [r0], #-22	; 0xffffffea
    1ba8:	0000037c 	andeq	r0, r0, ip, ror r3
    1bac:	0000179e 	muleq	r0, lr, r7
    1bb0:	00001634 	andeq	r1, r0, r4, lsr r6
    1bb4:	0250011e 	subseq	r0, r0, #-2147483641	; 0x80000007
    1bb8:	1f006408 	svcne	0x00006408
    1bbc:	000003b0 			; <UNDEFINED> instruction: 0x000003b0
    1bc0:	000017a9 	andeq	r1, r0, r9, lsr #15
    1bc4:	0003bc20 	andeq	fp, r3, r0, lsr #24
    1bc8:	00174600 	andseq	r4, r7, r0, lsl #12
    1bcc:	50011e00 	andpl	r1, r1, r0, lsl #28
    1bd0:	2d1c0305 	ldccs	3, cr0, [ip, #-20]	; 0xffffffec
    1bd4:	00000000 	andeq	r0, r0, r0
    1bd8:	000a1025 	andeq	r1, sl, r5, lsr #32
    1bdc:	4c190100 	ldfmis	f0, [r9], {-0}
    1be0:	25000000 	strcs	r0, [r0, #-0]
    1be4:	00000a84 	andeq	r0, r0, r4, lsl #21
    1be8:	004c1901 	subeq	r1, ip, r1, lsl #18
    1bec:	d9250000 	stmdble	r5!, {}	; <UNPREDICTABLE>
    1bf0:	01000010 	tsteq	r0, r0, lsl r0
    1bf4:	00005e1a 	andeq	r5, r0, sl, lsl lr
    1bf8:	0e982600 	cdpeq	6, 9, cr2, cr8, cr0, {0}
    1bfc:	1b010000 	blne	41c04 <__bss_end+0x3ea88>
    1c00:	00001132 	andeq	r1, r0, r2, lsr r1
    1c04:	2da80305 	stccs	3, cr0, [r8, #20]!
    1c08:	23230000 			; <UNDEFINED> instruction: 0x23230000
    1c0c:	01000005 	tsteq	r0, r5
    1c10:	00005e1c 	andeq	r5, r0, ip, lsl lr
    1c14:	9f270000 	svcls	0x00270000
    1c18:	0100000e 	tsteq	r0, lr
    1c1c:	00121010 	andseq	r1, r2, r0, lsl r0
    1c20:	90030500 	andls	r0, r3, r0, lsl #10
    1c24:	2800002f 	stmdacs	r0, {r0, r1, r2, r3, r5}
    1c28:	000008fb 	strdeq	r0, [r0], -fp
    1c2c:	16ab1201 	strtne	r1, [fp], r1, lsl #4
    1c30:	04150000 	ldreq	r0, [r5], #-0
    1c34:	00001124 	andeq	r1, r0, r4, lsr #2
    1c38:	0006a428 	andeq	sl, r6, r8, lsr #8
    1c3c:	ab130100 	blge	4c2044 <__bss_end+0x4beec8>
    1c40:	27000016 	smladcs	r0, r6, r0, r0
    1c44:	00000bd5 	ldrdeq	r0, [r0], -r5
    1c48:	12d11801 	sbcsne	r1, r1, #65536	; 0x10000
    1c4c:	03050000 	movweq	r0, #20480	; 0x5000
    1c50:	00003060 	andeq	r3, r0, r0, rrx
    1c54:	000d0a29 	andeq	r0, sp, r9, lsr #20
    1c58:	000d0a00 	andeq	r0, sp, r0, lsl #20
    1c5c:	29540600 	ldmdbcs	r4, {r9, sl}^
    1c60:	00000f2e 	andeq	r0, r0, lr, lsr #30
    1c64:	00000f2e 	andeq	r0, r0, lr, lsr #30
    1c68:	96298907 	strtls	r8, [r9], -r7, lsl #18
    1c6c:	9600000a 	strls	r0, [r0], -sl
    1c70:	0400000a 	streq	r0, [r0], #-10
    1c74:	08c42983 	stmiaeq	r4, {r0, r1, r7, r8, fp, sp}^
    1c78:	08c40000 	stmiaeq	r4, {}^	; <UNPREDICTABLE>
    1c7c:	85040000 	strhi	r0, [r4, #-0]
    1c80:	000d2a29 	andeq	r2, sp, r9, lsr #20
    1c84:	000d2a00 	andeq	r2, sp, r0, lsl #20
    1c88:	291a0800 	ldmdbcs	sl, {fp}
    1c8c:	000007c8 	andeq	r0, r0, r8, asr #15
    1c90:	000007c8 	andeq	r0, r0, r8, asr #15
    1c94:	d9291c08 	stmdble	r9!, {r3, sl, fp, ip}
    1c98:	d9000004 	stmdble	r0, {r2}
    1c9c:	05000004 	streq	r0, [r0, #-4]
    1ca0:	051a2996 	ldreq	r2, [sl, #-2454]	; 0xfffff66a
    1ca4:	051a0000 	ldreq	r0, [sl, #-0]
    1ca8:	53060000 	movwpl	r0, #24576	; 0x6000
    1cac:	00099329 	andeq	r9, r9, r9, lsr #6
    1cb0:	00099300 	andeq	r9, r9, r0, lsl #6
    1cb4:	29890500 	stmibcs	r9, {r8, sl}
    1cb8:	0000055d 	andeq	r0, r0, sp, asr r5
    1cbc:	0000055d 	andeq	r0, r0, sp, asr r5
    1cc0:	0b298104 	bleq	a620d8 <__bss_end+0xa5ef5c>
    1cc4:	0b000005 	bleq	1ce0 <printk+0x64>
    1cc8:	05000005 	streq	r0, [r0, #-5]
    1ccc:	07d1298f 	ldrbeq	r2, [r1, pc, lsl #19]
    1cd0:	07d10000 	ldrbeq	r0, [r1, r0]
    1cd4:	39090000 	stmdbcc	r9, {}	; <UNPREDICTABLE>
    1cd8:	000d9e29 	andeq	r9, sp, r9, lsr #28
    1cdc:	000d9e00 	andeq	r9, sp, r0, lsl #28
    1ce0:	29360900 	ldmdbcs	r6!, {r8, fp}
    1ce4:	00000542 	andeq	r0, r0, r2, asr #10
    1ce8:	00000542 	andeq	r0, r0, r2, asr #10
    1cec:	0d298f07 	stceq	15, cr8, [r9, #-28]!	; 0xffffffe4
    1cf0:	0d00000b 	stceq	0, cr0, [r0, #-44]	; 0xffffffd4
    1cf4:	0a00000b 	beq	1d28 <printk+0xac>
    1cf8:	08e52918 	stmiaeq	r5!, {r3, r4, r8, fp, sp}^
    1cfc:	08e50000 	stmiaeq	r5!, {}^	; <UNPREDICTABLE>
    1d00:	4e060000 	cdpmi	0, 0, cr0, cr6, cr0, {0}
    1d04:	00037b29 	andeq	r7, r3, r9, lsr #22
    1d08:	00037b00 	andeq	r7, r3, r0, lsl #22
    1d0c:	293b0b00 	ldmdbcs	fp!, {r8, r9, fp}
    1d10:	0000062f 	andeq	r0, r0, pc, lsr #12
    1d14:	0000062f 	andeq	r0, r0, pc, lsr #12
    1d18:	a1298904 			; <UNDEFINED> instruction: 0xa1298904
    1d1c:	a1000009 	tstge	r0, r9
    1d20:	08000009 	stmdaeq	r0, {r0, r3}
    1d24:	0f772917 	svceq	0x00772917
    1d28:	0f770000 	svceq	0x00770000
    1d2c:	1b080000 	blne	201d34 <__bss_end+0x1febb8>
    1d30:	0009c929 	andeq	ip, r9, r9, lsr #18
    1d34:	0009c900 	andeq	ip, r9, r0, lsl #18
    1d38:	00380900 	eorseq	r0, r8, r0, lsl #18
    1d3c:	000002f4 	strdeq	r0, [r0], -r4
    1d40:	04120004 	ldreq	r0, [r2], #-4
    1d44:	01040000 	mrseq	r0, (UNDEF: 4)
    1d48:	00000000 	andeq	r0, r0, r0
    1d4c:	00114a0c 	andseq	r4, r1, ip, lsl #20
    1d50:	0001f000 	andeq	pc, r1, r0
    1d54:	0003ec00 	andeq	lr, r3, r0, lsl #24
    1d58:	00017800 	andeq	r7, r1, r0, lsl #16
    1d5c:	0004ba00 	andeq	fp, r4, r0, lsl #20
    1d60:	06010200 	streq	r0, [r1], -r0, lsl #4
    1d64:	00000114 	andeq	r0, r0, r4, lsl r1
    1d68:	12080102 	andne	r0, r8, #-2147483648	; 0x80000000
    1d6c:	02000001 	andeq	r0, r0, #1
    1d70:	02810502 	addeq	r0, r1, #8388608	; 0x800000
    1d74:	02020000 	andeq	r0, r2, #0
    1d78:	00013607 	andeq	r3, r1, r7, lsl #12
    1d7c:	05040300 	streq	r0, [r4, #-768]	; 0xfffffd00
    1d80:	00746e69 	rsbseq	r6, r4, r9, ror #28
    1d84:	000a9004 	andeq	r9, sl, r4
    1d88:	53130400 	tstpl	r3, #0, 8
    1d8c:	02000000 	andeq	r0, r0, #0
    1d90:	01b70704 			; <UNDEFINED> instruction: 0x01b70704
    1d94:	08020000 	stmdaeq	r2, {}	; <UNPREDICTABLE>
    1d98:	00024105 	andeq	r4, r2, r5, lsl #2
    1d9c:	07080200 	streq	r0, [r8, -r0, lsl #4]
    1da0:	000001ad 	andeq	r0, r0, sp, lsr #3
    1da4:	00004805 	andeq	r4, r0, r5, lsl #16
    1da8:	07040200 	streq	r0, [r4, -r0, lsl #4]
    1dac:	00000238 	andeq	r0, r0, r8, lsr r2
    1db0:	0001da06 	andeq	sp, r1, r6, lsl #20
    1db4:	00530400 	subseq	r0, r3, r0, lsl #8
    1db8:	89050000 	stmdbhi	r5, {}	; <UNPREDICTABLE>
    1dbc:	00000103 	andeq	r0, r0, r3, lsl #2
    1dc0:	0000d407 	andeq	sp, r0, r7, lsl #8
    1dc4:	29070000 	stmdbcs	r7, {}	; <UNPREDICTABLE>
    1dc8:	01000001 	tsteq	r0, r1
    1dcc:	0000e107 	andeq	lr, r0, r7, lsl #2
    1dd0:	06070200 	streq	r0, [r7], -r0, lsl #4
    1dd4:	03000001 	movweq	r0, #1
    1dd8:	00025c07 	andeq	r5, r2, r7, lsl #24
    1ddc:	a1070400 	tstge	r7, r0, lsl #8
    1de0:	05000001 	streq	r0, [r0, #-1]
    1de4:	00018907 	andeq	r8, r1, r7, lsl #18
    1de8:	c4070600 	strgt	r0, [r7], #-1536	; 0xfffffa00
    1dec:	07000001 	streq	r0, [r0, -r1]
    1df0:	0000c807 	andeq	ip, r0, r7, lsl #16
    1df4:	fb070800 	blx	1c3dfe <__bss_end+0x1c0c82>
    1df8:	09000000 	stmdbeq	r0, {}	; <UNPREDICTABLE>
    1dfc:	00019607 	andeq	r9, r1, r7, lsl #12
    1e00:	76070a00 	strvc	r0, [r7], -r0, lsl #20
    1e04:	0b000002 	bleq	1e14 <printk+0x198>
    1e08:	0001d407 	andeq	sp, r1, r7, lsl #8
    1e0c:	e6070c00 	str	r0, [r7], -r0, lsl #24
    1e10:	0d000002 	stceq	0, cr0, [r0, #-8]
    1e14:	00033107 	andeq	r3, r3, r7, lsl #2
    1e18:	68070e00 	stmdavs	r7, {r9, sl, fp}
    1e1c:	0f000002 	svceq	0x00000002
    1e20:	00030107 	andeq	r0, r3, r7, lsl #2
    1e24:	4f071000 	svcmi	0x00071000
    1e28:	11000002 	tstne	r0, r2
    1e2c:	00031b07 	andeq	r1, r3, r7, lsl #22
    1e30:	ee071200 	cdp	2, 0, cr1, cr7, cr0, {0}
    1e34:	13000000 	movwne	r0, #0
    1e38:	0002d807 	andeq	sp, r2, r7, lsl #16
    1e3c:	02001400 	andeq	r1, r0, #0, 8
    1e40:	011b0801 	tsteq	fp, r1, lsl #16
    1e44:	04020000 	streq	r0, [r2], #-0
    1e48:	0001b207 	andeq	fp, r1, r7, lsl #4
    1e4c:	10fd0800 	rscsne	r0, sp, r0, lsl #16
    1e50:	15010000 	strne	r0, [r1, #-0]
    1e54:	000003ec 	andeq	r0, r0, ip, ror #7
    1e58:	00000020 	andeq	r0, r0, r0, lsr #32
    1e5c:	01359c01 	teqeq	r5, r1, lsl #24
    1e60:	e3090000 	movw	r0, #36864	; 0x9000
    1e64:	01000010 	tsteq	r0, r0, lsl r0
    1e68:	00006818 	andeq	r6, r0, r8, lsl r8
    1e6c:	7c910200 	lfmvc	f0, 4, [r1], {0}
    1e70:	11860800 	orrne	r0, r6, r0, lsl #16
    1e74:	c6010000 	strgt	r0, [r1], -r0
    1e78:	0000041c 	andeq	r0, r0, ip, lsl r4
    1e7c:	00000020 	andeq	r0, r0, r0, lsr #32
    1e80:	01589c01 	cmpeq	r8, r1, lsl #24
    1e84:	690a0000 	stmdbvs	sl, {}	; <UNPREDICTABLE>
    1e88:	41c80100 	bicmi	r0, r8, r0, lsl #2
    1e8c:	57000000 	strpl	r0, [r0, -r0]
    1e90:	00000001 	andeq	r0, r0, r1
    1e94:	0011320b 	andseq	r3, r1, fp, lsl #4
    1e98:	01d20100 	bicseq	r0, r2, r0, lsl #2
    1e9c:	0001580c 	andeq	r5, r1, ip, lsl #16
    1ea0:	00043c00 	andeq	r3, r4, r0, lsl #24
    1ea4:	00000400 	andeq	r0, r0, r0, lsl #8
    1ea8:	089c0100 	ldmeq	ip, {r8}
    1eac:	0000051a 	andeq	r0, r0, sl, lsl r5
    1eb0:	0440d701 	strbeq	sp, [r0], #-1793	; 0xfffff8ff
    1eb4:	00280000 	eoreq	r0, r8, r0
    1eb8:	9c010000 	stcls	0, cr0, [r1], {-0}
    1ebc:	00000192 	muleq	r0, r2, r1
    1ec0:	6c61760d 	stclvs	6, cr7, [r1], #-52	; 0xffffffcc
    1ec4:	68d70100 	ldmvs	r7, {r8}^
    1ec8:	01000000 	mrseq	r0, (UNDEF: 0)
    1ecc:	770e0050 	smlsdvc	lr, r0, r0, r0
    1ed0:	01000011 	tsteq	r0, r1, lsl r0
    1ed4:	000048df 	ldrdeq	r4, [r0], -pc	; <UNPREDICTABLE>
    1ed8:	00046800 	andeq	r6, r4, r0, lsl #16
    1edc:	00001000 	andeq	r1, r0, r0
    1ee0:	089c0100 	ldmeq	ip, {r8}
    1ee4:	000010ed 	andeq	r1, r0, sp, ror #1
    1ee8:	0478e401 	ldrbteq	lr, [r8], #-1025	; 0xfffffbff
    1eec:	00380000 	eorseq	r0, r8, r0
    1ef0:	9c010000 	stcls	0, cr0, [r1], {-0}
    1ef4:	000001e3 	andeq	r0, r0, r3, ror #3
    1ef8:	0100690a 	tsteq	r0, sl, lsl #18
    1efc:	000041e6 	andeq	r4, r0, r6, ror #3
    1f00:	00019b00 	andeq	r9, r1, r0, lsl #22
    1f04:	04a40f00 	strteq	r0, [r4], #3840	; 0xf00
    1f08:	02e10000 	rsceq	r0, r1, #0
    1f0c:	01100000 	tsteq	r0, r0
    1f10:	30030550 	andcc	r0, r3, r0, asr r5
    1f14:	1000002d 	andne	r0, r0, sp, lsr #32
    1f18:	74025101 	strvc	r5, [r2], #-257	; 0xfffffeff
    1f1c:	0800007c 	stmdaeq	r0, {r2, r3, r4, r5, r6}
    1f20:	00000d0a 	andeq	r0, r0, sl, lsl #26
    1f24:	04b0ef01 	ldrteq	lr, [r0], #3841	; 0xf01
    1f28:	001c0000 	andseq	r0, ip, r0
    1f2c:	9c010000 	stcls	0, cr0, [r1], {-0}
    1f30:	00000206 	andeq	r0, r0, r6, lsl #4
    1f34:	6c61760d 	stclvs	6, cr7, [r1], #-52	; 0xffffffcc
    1f38:	68ef0100 	stmiavs	pc!, {r8}^	; <UNPREDICTABLE>
    1f3c:	01000000 	mrseq	r0, (UNDEF: 0)
    1f40:	17080050 	smlsdne	r8, r0, r0, r0
    1f44:	01000011 	tsteq	r0, r1, lsl r0
    1f48:	0004ccf5 	strdeq	ip, [r4], -r5
    1f4c:	00001c00 	andeq	r1, r0, r0, lsl #24
    1f50:	299c0100 	ldmibcs	ip, {r8}
    1f54:	0d000002 	stceq	0, cr0, [r0, #-8]
    1f58:	006c6176 	rsbeq	r6, ip, r6, ror r1
    1f5c:	0068f501 	rsbeq	pc, r8, r1, lsl #10
    1f60:	50010000 	andpl	r0, r1, r0
    1f64:	11421100 	mrsne	r1, (UNDEF: 82)
    1f68:	01010000 	mrseq	r0, (UNDEF: 1)
    1f6c:	0004e801 	andeq	lr, r4, r1, lsl #16
    1f70:	00001800 	andeq	r1, r0, r0, lsl #16
    1f74:	129c0100 	addsne	r0, ip, #0, 2
    1f78:	000011ae 	andeq	r1, r0, lr, lsr #3
    1f7c:	00010901 	andeq	r0, r1, r1, lsl #18
    1f80:	18000005 	stmdane	r0, {r0, r2}
    1f84:	01000000 	mrseq	r0, (UNDEF: 0)
    1f88:	0002609c 	muleq	r2, ip, r0
    1f8c:	110a1300 	mrsne	r1, (UNDEF: 58)
    1f90:	0b010000 	bleq	41f98 <__bss_end+0x3ee1c>
    1f94:	00004801 	andeq	r4, r0, r1, lsl #16
    1f98:	00520100 	subseq	r0, r2, r0, lsl #2
    1f9c:	0011a212 	andseq	sl, r1, r2, lsl r2
    1fa0:	01150100 	tsteq	r5, r0, lsl #2
    1fa4:	00000518 	andeq	r0, r0, r8, lsl r5
    1fa8:	00000018 	andeq	r0, r0, r8, lsl r0
    1fac:	02859c01 	addeq	r9, r5, #256	; 0x100
    1fb0:	0a130000 	beq	4c1fb8 <__bss_end+0x4bee3c>
    1fb4:	01000011 	tsteq	r0, r1, lsl r0
    1fb8:	00480117 	subeq	r0, r8, r7, lsl r1
    1fbc:	52010000 	andpl	r0, r1, #0
    1fc0:	110f1200 	mrsne	r1, (UNDEF: 47)
    1fc4:	24010000 	strcs	r0, [r1], #-0
    1fc8:	00053001 	andeq	r3, r5, r1
    1fcc:	00003400 	andeq	r3, r0, r0, lsl #8
    1fd0:	cb9c0100 	blgt	fe7023d8 <__bss_end+0xfe6ff25c>
    1fd4:	14000002 	strne	r0, [r0], #-2
    1fd8:	006d756e 	rsbeq	r7, sp, lr, ror #10
    1fdc:	41012401 	tstmi	r1, r1, lsl #8
    1fe0:	af000000 	svcge	0x00000000
    1fe4:	13000001 	movwne	r0, #1
    1fe8:	0000110a 	andeq	r1, r0, sl, lsl #2
    1fec:	48012601 	stmdami	r1, {r0, r9, sl, sp}
    1ff0:	01000000 	mrseq	r0, (UNDEF: 0)
    1ff4:	05580f54 	ldrbeq	r0, [r8, #-3924]	; 0xfffff0ac
    1ff8:	02ec0000 	rsceq	r0, ip, #0
    1ffc:	01100000 	tsteq	r0, r0
    2000:	100a0350 	andne	r0, sl, r0, asr r3
    2004:	15000027 	strne	r0, [r0, #-39]	; 0xffffffd9
    2008:	00001197 	muleq	r0, r7, r1
    200c:	02dc1301 	sbcseq	r1, ip, #67108864	; 0x4000000
    2010:	03050000 	movweq	r0, #20480	; 0x5000
    2014:	00002dac 	andeq	r2, r0, ip, lsr #27
    2018:	00004105 	andeq	r4, r0, r5, lsl #2
    201c:	0b0d1600 	bleq	347824 <__bss_end+0x3446a8>
    2020:	0b0d0000 	bleq	342028 <__bss_end+0x33eeac>
    2024:	18020000 	stmdane	r2, {}	; <UNPREDICTABLE>
    2028:	000f7716 	andeq	r7, pc, r6, lsl r7	; <UNPREDICTABLE>
    202c:	000f7700 	andeq	r7, pc, r0, lsl #14
    2030:	001b0300 	andseq	r0, fp, r0, lsl #6
    2034:	0000051d 	andeq	r0, r0, sp, lsl r5
    2038:	05750004 	ldrbeq	r0, [r5, #-4]!
    203c:	01040000 	mrseq	r0, (UNDEF: 4)
    2040:	00000000 	andeq	r0, r0, r0
    2044:	0012aa0c 	andseq	sl, r2, ip, lsl #20
    2048:	0001f000 	andeq	pc, r1, r0
    204c:	00056400 	andeq	r6, r5, r0, lsl #8
    2050:	00020000 	andeq	r0, r2, r0
    2054:	0005aa00 	andeq	sl, r5, r0, lsl #20
    2058:	06010200 	streq	r0, [r1], -r0, lsl #4
    205c:	00000114 	andeq	r0, r0, r4, lsl r1
    2060:	12080102 	andne	r0, r8, #-2147483648	; 0x80000000
    2064:	02000001 	andeq	r0, r0, #1
    2068:	02810502 	addeq	r0, r1, #8388608	; 0x800000
    206c:	02020000 	andeq	r0, r2, #0
    2070:	00013607 	andeq	r3, r1, r7, lsl #12
    2074:	127d0300 	rsbsne	r0, sp, #0, 6
    2078:	12020000 	andne	r0, r2, #0
    207c:	0000004c 	andeq	r0, r0, ip, asr #32
    2080:	69050404 	stmdbvs	r5, {r2, sl}
    2084:	0300746e 	movweq	r7, #1134	; 0x46e
    2088:	00000a90 	muleq	r0, r0, sl
    208c:	005e1302 	subseq	r1, lr, r2, lsl #6
    2090:	04020000 	streq	r0, [r2], #-0
    2094:	0001b707 	andeq	fp, r1, r7, lsl #14
    2098:	05080200 	streq	r0, [r8, #-512]	; 0xfffffe00
    209c:	00000241 	andeq	r0, r0, r1, asr #4
    20a0:	ad070802 	stcge	8, cr0, [r7, #-8]
    20a4:	05000001 	streq	r0, [r0, #-1]
    20a8:	0000131a 	andeq	r1, r0, sl, lsl r3
    20ac:	00005e04 	andeq	r5, r0, r4, lsl #28
    20b0:	9c140300 	ldcls	3, cr0, [r4], {-0}
    20b4:	06000000 	streq	r0, [r0], -r0
    20b8:	0000123c 	andeq	r1, r0, ip, lsr r2
    20bc:	133d0601 	teqne	sp, #1048576	; 0x100000
    20c0:	06020000 	streq	r0, [r2], -r0
    20c4:	000012d9 	ldrdeq	r1, [r0], -r9
    20c8:	125f0603 	subsne	r0, pc, #3145728	; 0x300000
    20cc:	00050000 	andeq	r0, r5, r0
    20d0:	38070402 	stmdacc	r7, {r1, sl}
    20d4:	05000002 	streq	r0, [r0, #-2]
    20d8:	000001da 	ldrdeq	r0, [r0], -sl
    20dc:	00005e04 	andeq	r5, r0, r4, lsl #28
    20e0:	32890400 	addcc	r0, r9, #0, 8
    20e4:	06000001 	streq	r0, [r0], -r1
    20e8:	000000d4 	ldrdeq	r0, [r0], -r4
    20ec:	01290600 			; <UNDEFINED> instruction: 0x01290600
    20f0:	06010000 	streq	r0, [r1], -r0
    20f4:	000000e1 	andeq	r0, r0, r1, ror #1
    20f8:	01060602 	tsteq	r6, r2, lsl #12
    20fc:	06030000 	streq	r0, [r3], -r0
    2100:	0000025c 	andeq	r0, r0, ip, asr r2
    2104:	01a10604 			; <UNDEFINED> instruction: 0x01a10604
    2108:	06050000 	streq	r0, [r5], -r0
    210c:	00000189 	andeq	r0, r0, r9, lsl #3
    2110:	01c40606 	biceq	r0, r4, r6, lsl #12
    2114:	06070000 	streq	r0, [r7], -r0
    2118:	000000c8 	andeq	r0, r0, r8, asr #1
    211c:	00fb0608 	rscseq	r0, fp, r8, lsl #12
    2120:	06090000 	streq	r0, [r9], -r0
    2124:	00000196 	muleq	r0, r6, r1
    2128:	0276060a 	rsbseq	r0, r6, #10485760	; 0xa00000
    212c:	060b0000 	streq	r0, [fp], -r0
    2130:	000001d4 	ldrdeq	r0, [r0], -r4
    2134:	02e6060c 	rsceq	r0, r6, #12, 12	; 0xc00000
    2138:	060d0000 	streq	r0, [sp], -r0
    213c:	00000331 	andeq	r0, r0, r1, lsr r3
    2140:	0268060e 	rsbeq	r0, r8, #14680064	; 0xe00000
    2144:	060f0000 	streq	r0, [pc], -r0
    2148:	00000301 	andeq	r0, r0, r1, lsl #6
    214c:	024f0610 	subeq	r0, pc, #16, 12	; 0x1000000
    2150:	06110000 	ldreq	r0, [r1], -r0
    2154:	0000031b 	andeq	r0, r0, fp, lsl r3
    2158:	00ee0612 	rsceq	r0, lr, r2, lsl r6
    215c:	06130000 	ldreq	r0, [r3], -r0
    2160:	000002d8 	ldrdeq	r0, [r0], -r8
    2164:	01020014 	tsteq	r2, r4, lsl r0
    2168:	00011b08 	andeq	r1, r1, r8, lsl #22
    216c:	07040200 	streq	r0, [r4, -r0, lsl #4]
    2170:	000001b2 			; <UNDEFINED> instruction: 0x000001b2
    2174:	0012e607 	andseq	lr, r2, r7, lsl #12
    2178:	534b0100 	movtpl	r0, #45312	; 0xb100
    217c:	01000000 	mrseq	r0, (UNDEF: 0)
    2180:	0000015c 	andeq	r0, r0, ip, asr r1
    2184:	0015b208 	andseq	fp, r5, r8, lsl #4
    2188:	534d0100 	movtpl	r0, #53504	; 0xd100
    218c:	00000000 	andeq	r0, r0, r0
    2190:	0009a109 	andeq	sl, r9, r9, lsl #2
    2194:	01160100 	tsteq	r6, r0, lsl #2
    2198:	0000018a 	andeq	r0, r0, sl, lsl #3
    219c:	0012560a 	andseq	r5, r2, sl, lsl #12
    21a0:	53160100 	tstpl	r6, #0, 2
    21a4:	0a000000 	beq	21ac <printk_nommu+0x234>
    21a8:	00001200 	andeq	r1, r0, r0, lsl #4
    21ac:	00531601 	subseq	r1, r3, r1, lsl #12
    21b0:	b2080000 	andlt	r0, r8, #0
    21b4:	01000015 	tsteq	r0, r5, lsl r0
    21b8:	00005319 	andeq	r5, r0, r9, lsl r3
    21bc:	290b0000 	stmdbcs	fp, {}	; <UNPREDICTABLE>
    21c0:	01000013 	tsteq	r0, r3, lsl r0
    21c4:	000053bf 			; <UNDEFINED> instruction: 0x000053bf
    21c8:	01b10100 			; <UNDEFINED> instruction: 0x01b10100
    21cc:	3c0a0000 	stccc	0, cr0, [sl], {-0}
    21d0:	01000002 	tsteq	r0, r2
    21d4:	000073bf 			; <UNDEFINED> instruction: 0x000073bf
    21d8:	12500800 	subsne	r0, r0, #0, 16
    21dc:	c1010000 	mrsgt	r0, (UNDEF: 1)
    21e0:	0000004c 	andeq	r0, r0, ip, asr #32
    21e4:	015c0c00 	cmpeq	ip, r0, lsl #24
    21e8:	05640000 	strbeq	r0, [r4, #-0]!
    21ec:	00340000 	eorseq	r0, r4, r0
    21f0:	9c010000 	stcls	0, cr0, [r1], {-0}
    21f4:	000001dc 	ldrdeq	r0, [r0], -ip
    21f8:	0001680d 	andeq	r6, r1, sp, lsl #16
    21fc:	0d500100 	ldfeqe	f0, [r0, #-0]
    2200:	00000173 	andeq	r0, r0, r3, ror r1
    2204:	7e0e5101 	adfvce	f5, f6, f1
    2208:	d0000001 	andle	r0, r0, r1
    220c:	00000001 	andeq	r0, r0, r1
    2210:	00126a0f 	andseq	r6, r2, pc, lsl #20
    2214:	98360100 	ldmdals	r6!, {r8}
    2218:	1c000005 	stcne	0, cr0, [r0], {5}
    221c:	01000000 	mrseq	r0, (UNDEF: 0)
    2220:	11d10f9c 			; <UNDEFINED> instruction: 0x11d10f9c
    2224:	40010000 	andmi	r0, r1, r0
    2228:	000005b4 			; <UNDEFINED> instruction: 0x000005b4
    222c:	0000001c 	andeq	r0, r0, ip, lsl r0
    2230:	400c9c01 	andmi	r9, ip, r1, lsl #24
    2234:	d0000001 	andle	r0, r0, r1
    2238:	08000005 	stmdaeq	r0, {r0, r2}
    223c:	01000000 	mrseq	r0, (UNDEF: 0)
    2240:	0002199c 	muleq	r2, ip, r9
    2244:	01501000 	cmpeq	r0, r0
    2248:	50010000 	andpl	r0, r1, r0
    224c:	120f1100 	andne	r1, pc, #0, 2
    2250:	53010000 	movwpl	r0, #4096	; 0x1000
    2254:	000005d8 	ldrdeq	r0, [r0], -r8
    2258:	00000010 	andeq	r0, r0, r0, lsl r0
    225c:	023e9c01 	eorseq	r9, lr, #256	; 0x100
    2260:	b2120000 	andslt	r0, r2, #0
    2264:	01000015 	tsteq	r0, r5, lsl r0
    2268:	00005355 	andeq	r5, r0, r5, asr r3
    226c:	00021900 	andeq	r1, r2, r0, lsl #18
    2270:	2a110000 	bcs	442278 <__bss_end+0x43f0fc>
    2274:	0100000d 	tsteq	r0, sp
    2278:	0005e85e 	andeq	lr, r5, lr, asr r8
    227c:	00003000 	andeq	r3, r0, r0
    2280:	c99c0100 	ldmibgt	ip, {r8}
    2284:	12000002 	andne	r0, r0, #2
    2288:	00000901 	andeq	r0, r0, r1, lsl #18
    228c:	00536001 	subseq	r6, r3, r1
    2290:	02470000 	subeq	r0, r7, #0
    2294:	65130000 	ldrvs	r0, [r3, #-0]
    2298:	0100646e 	tsteq	r0, lr, ror #8
    229c:	00005361 	andeq	r5, r0, r1, ror #6
    22a0:	00025b00 	andeq	r5, r2, r0, lsl #22
    22a4:	01401400 	cmpeq	r0, r0, lsl #8
    22a8:	05ec0000 	strbeq	r0, [ip, #0]!
    22ac:	00040000 	andeq	r0, r4, r0
    22b0:	66010000 	strvs	r0, [r1], -r0
    22b4:	00000298 	muleq	r0, r8, r2
    22b8:	0005ec15 	andeq	lr, r5, r5, lsl ip
    22bc:	00000400 	andeq	r0, r0, r0, lsl #8
    22c0:	01500e00 	cmpeq	r0, r0, lsl #28
    22c4:	026f0000 	rsbeq	r0, pc, #0
    22c8:	00000000 	andeq	r0, r0, r0
    22cc:	00014014 	andeq	r4, r1, r4, lsl r0
    22d0:	0005f000 	andeq	pc, r5, r0
    22d4:	00000400 	andeq	r0, r0, r0, lsl #8
    22d8:	bf670100 	svclt	0x00670100
    22dc:	15000002 	strne	r0, [r0, #-2]
    22e0:	000005f0 	strdeq	r0, [r0], -r0	; <UNPREDICTABLE>
    22e4:	00000004 	andeq	r0, r0, r4
    22e8:	0001500e 	andeq	r5, r1, lr
    22ec:	00028200 	andeq	r8, r2, r0, lsl #4
    22f0:	16000000 	strne	r0, [r0], -r0
    22f4:	00000610 	andeq	r0, r0, r0, lsl r6
    22f8:	0000050a 	andeq	r0, r0, sl, lsl #10
    22fc:	0f771100 	svceq	0x00771100
    2300:	70010000 	andvc	r0, r1, r0
    2304:	00000618 	andeq	r0, r0, r8, lsl r6
    2308:	00000094 	muleq	r0, r4, r0
    230c:	03c89c01 	biceq	r9, r8, #256	; 0x100
    2310:	75170000 	ldrvc	r0, [r7, #-0]
    2314:	70010073 	andvc	r0, r1, r3, ror r0
    2318:	00000053 	andeq	r0, r0, r3, asr r0
    231c:	00000295 	muleq	r0, r5, r2
    2320:	00124912 	andseq	r4, r2, r2, lsl r9
    2324:	53720100 	cmnpl	r2, #0, 2
    2328:	cc000000 	stcgt	0, cr0, [r0], {-0}
    232c:	13000002 	movwne	r0, #2
    2330:	00727563 	rsbseq	r7, r2, r3, ror #10
    2334:	00537301 	subseq	r7, r3, r1, lsl #6
    2338:	02fc0000 	rscseq	r0, ip, #0
    233c:	ca120000 	bgt	482344 <__bss_end+0x47f1c8>
    2340:	01000011 	tsteq	r0, r1, lsl r0
    2344:	00005374 	andeq	r5, r0, r4, ror r3
    2348:	00032700 	andeq	r2, r3, r0, lsl #14
    234c:	11bb1200 			; <UNDEFINED> instruction: 0x11bb1200
    2350:	75010000 	strvc	r0, [r1, #-0]
    2354:	00000053 	andeq	r0, r0, r3, asr r0
    2358:	00000352 	andeq	r0, r0, r2, asr r3
    235c:	74756f18 	ldrbtvc	r6, [r5], #-3864	; 0xfffff0e8
    2360:	30a90100 	adccc	r0, r9, r0, lsl #2
    2364:	14000006 	strne	r0, [r0], #-6
    2368:	00000140 	andeq	r0, r0, r0, asr #2
    236c:	0000064c 	andeq	r0, r0, ip, asr #12
    2370:	00000004 	andeq	r0, r0, r4
    2374:	03568001 	cmpeq	r6, #1
    2378:	4c150000 	ldcmi	0, cr0, [r5], {-0}
    237c:	04000006 	streq	r0, [r0], #-6
    2380:	19000000 	stmdbne	r0, {}	; <UNPREDICTABLE>
    2384:	00000150 	andeq	r0, r0, r0, asr r1
    2388:	5c140000 	ldcpl	0, cr0, [r4], {-0}
    238c:	70000001 	andvc	r0, r0, r1
    2390:	1c000006 	stcne	0, cr0, [r0], {6}
    2394:	01000000 	mrseq	r0, (UNDEF: 0)
    2398:	00038f86 	andeq	r8, r3, r6, lsl #31
    239c:	01731a00 	cmneq	r3, r0, lsl #20
    23a0:	037d0000 	cmneq	sp, #0
    23a4:	681a0000 	ldmdavs	sl, {}	; <UNPREDICTABLE>
    23a8:	91000001 	tstls	r0, r1
    23ac:	15000003 	strne	r0, [r0, #-3]
    23b0:	00000670 	andeq	r0, r0, r0, ror r6
    23b4:	0000001c 	andeq	r0, r0, ip, lsl r0
    23b8:	00017e0e 	andeq	r7, r1, lr, lsl #28
    23bc:	0003a500 	andeq	sl, r3, r0, lsl #10
    23c0:	14000000 	strne	r0, [r0], #-0
    23c4:	00000140 	andeq	r0, r0, r0, asr #2
    23c8:	00000698 	muleq	r0, r8, r6
    23cc:	00000004 	andeq	r0, r0, r4
    23d0:	03b68a01 			; <UNDEFINED> instruction: 0x03b68a01
    23d4:	98150000 	ldmdals	r5, {}	; <UNPREDICTABLE>
    23d8:	04000006 	streq	r0, [r0], #-6
    23dc:	0e000000 	cdpeq	0, 0, cr0, cr0, cr0, {0}
    23e0:	00000150 	andeq	r0, r0, r0, asr r1
    23e4:	000003c9 	andeq	r0, r0, r9, asr #7
    23e8:	4c1b0000 	ldcmi	0, cr0, [fp], {-0}
    23ec:	15000006 	strne	r0, [r0, #-6]
    23f0:	1c000005 	stcne	0, cr0, [r0], {5}
    23f4:	0a035101 	beq	d6800 <__bss_end+0xd3684>
    23f8:	000003e8 	andeq	r0, r0, r8, ror #7
    23fc:	0007c811 	andeq	ip, r7, r1, lsl r8
    2400:	acb30100 	ldfges	f0, [r3]
    2404:	34000006 	strcc	r0, [r0], #-6
    2408:	01000000 	mrseq	r0, (UNDEF: 0)
    240c:	00040a9c 	muleq	r4, ip, sl
    2410:	736d1700 	cmnvc	sp, #0, 14
    2414:	53b30100 			; <UNDEFINED> instruction: 0x53b30100
    2418:	dc000000 	stcle	0, cr0, [r0], {-0}
    241c:	1d000003 	stcne	0, cr0, [r0, #-12]
    2420:	000006c8 	andeq	r0, r0, r8, asr #13
    2424:	000002c9 	andeq	r0, r0, r9, asr #5
    2428:	00000400 	andeq	r0, r0, r0, lsl #8
    242c:	0350011c 	cmpeq	r0, #28, 2
    2430:	0027100a 	eoreq	r1, r7, sl
    2434:	0006e01e 	andeq	lr, r6, lr, lsl r0
    2438:	0002c900 	andeq	ip, r2, r0, lsl #18
    243c:	07110000 	ldreq	r0, [r1, -r0]
    2440:	01000013 	tsteq	r0, r3, lsl r0
    2444:	0006e0d9 	ldrdeq	lr, [r6], -r9
    2448:	00002c00 	andeq	r2, r0, r0, lsl #24
    244c:	499c0100 	ldmibmi	ip, {r8}
    2450:	1f000004 	svcne	0x00000004
    2454:	00001256 	andeq	r1, r0, r6, asr r2
    2458:	0053d901 	subseq	sp, r3, r1, lsl #18
    245c:	50010000 	andpl	r0, r1, r0
    2460:	0012001f 	andseq	r0, r2, pc, lsl r0
    2464:	53d90100 	bicspl	r0, r9, #0, 2
    2468:	01000000 	mrseq	r0, (UNDEF: 0)
    246c:	15b21251 	ldrne	r1, [r2, #593]!	; 0x251
    2470:	dc010000 	stcle	0, cr0, [r1], {-0}
    2474:	00000053 	andeq	r0, r0, r3, asr r0
    2478:	00000412 	andeq	r0, r0, r2, lsl r4
    247c:	12f51100 	rscsne	r1, r5, #0, 2
    2480:	f7010000 			; <UNDEFINED> instruction: 0xf7010000
    2484:	0000070c 	andeq	r0, r0, ip, lsl #14
    2488:	0000002c 	andeq	r0, r0, ip, lsr #32
    248c:	047b9c01 	ldrbteq	r9, [fp], #-3073	; 0xfffff3ff
    2490:	3c1f0000 	ldccc	0, cr0, [pc], {-0}
    2494:	01000002 	tsteq	r0, r2
    2498:	000073f7 	strdeq	r7, [r0], -r7	; <UNPREDICTABLE>
    249c:	12500100 	subsne	r0, r0, #0, 2
    24a0:	00001250 	andeq	r1, r0, r0, asr r2
    24a4:	0053fa01 	subseq	pc, r3, r1, lsl #20
    24a8:	045b0000 	ldrbeq	r0, [fp], #-0
    24ac:	20000000 	andcs	r0, r0, r0
    24b0:	000011ee 	andeq	r1, r0, lr, ror #3
    24b4:	4c010a01 	stcmi	10, cr0, [r1], {1}
    24b8:	38000000 	stmdacc	r0, {}	; <UNPREDICTABLE>
    24bc:	2c000007 	stccs	0, cr0, [r0], {7}
    24c0:	01000000 	mrseq	r0, (UNDEF: 0)
    24c4:	0004c69c 	muleq	r4, ip, r6
    24c8:	023c2100 	eorseq	r2, ip, #0, 2
    24cc:	0a010000 	beq	424d4 <__bss_end+0x3f358>
    24d0:	00007301 	andeq	r7, r0, r1, lsl #6
    24d4:	00046f00 	andeq	r6, r4, r0, lsl #30
    24d8:	12502200 	subsne	r2, r0, #0, 4
    24dc:	0c010000 	stceq	0, cr0, [r1], {-0}
    24e0:	00004c01 	andeq	r4, r0, r1, lsl #24
    24e4:	00049d00 	andeq	r9, r4, r0, lsl #26
    24e8:	12832200 	addne	r2, r3, #0, 4
    24ec:	0d010000 	stceq	0, cr0, [r1, #-0]
    24f0:	00004c01 	andeq	r4, r0, r1, lsl #24
    24f4:	0004bc00 	andeq	fp, r4, r0, lsl #24
    24f8:	54230000 	strtpl	r0, [r3], #-0
    24fc:	01000013 	tsteq	r0, r3, lsl r0
    2500:	0000530f 	andeq	r5, r0, pc, lsl #6
    2504:	bc030500 	cfstr32lt	mvfx0, [r3], {-0}
    2508:	2300002d 	movwcs	r0, #45	; 0x2d
    250c:	000011e5 	andeq	r1, r0, r5, ror #3
    2510:	00531001 	subseq	r1, r3, r1
    2514:	03050000 	movweq	r0, #20480	; 0x5000
    2518:	00002db8 			; <UNDEFINED> instruction: 0x00002db8
    251c:	00128d23 	andseq	r8, r2, r3, lsr #26
    2520:	53110100 	tstpl	r1, #0, 2
    2524:	05000000 	streq	r0, [r0, #-0]
    2528:	002db003 	eoreq	fp, sp, r3
    252c:	121d2300 	andsne	r2, sp, #0, 6
    2530:	12010000 	andne	r0, r1, #0
    2534:	00000053 	andeq	r0, r0, r3, asr r0
    2538:	2db40305 	ldccs	3, cr0, [r4, #20]!
    253c:	48240000 	stmdami	r4!, {}	; <UNPREDICTABLE>
    2540:	48000013 	stmdami	r0, {r0, r1, r4}
    2544:	05000013 	streq	r0, [r0, #-19]	; 0xffffffed
    2548:	135d2493 	cmpne	sp, #-1828716544	; 0x93000000
    254c:	135d0000 	cmpne	sp, #0
    2550:	0f060000 	svceq	0x00060000
    2554:	00015d00 	andeq	r5, r1, r0, lsl #26
    2558:	84000400 	strhi	r0, [r0], #-1024	; 0xfffffc00
    255c:	04000007 	streq	r0, [r0], #-7
    2560:	00000001 	andeq	r0, r0, r1
    2564:	136a0c00 	cmnne	sl, #0, 24
    2568:	01f00000 	mvnseq	r0, r0
    256c:	07800000 	streq	r0, [r0, r0]
    2570:	00e00000 	rsceq	r0, r0, r0
    2574:	06ed0000 	strbteq	r0, [sp], r0
    2578:	04020000 	streq	r0, [r2], #-0
    257c:	0001b707 	andeq	fp, r1, r7, lsl #14
    2580:	07040200 	streq	r0, [r4, -r0, lsl #4]
    2584:	00000238 	andeq	r0, r0, r8, lsr r2
    2588:	1b080102 	blne	202998 <__bss_end+0x1ff81c>
    258c:	02000001 	andeq	r0, r0, #1
    2590:	01b20704 			; <UNDEFINED> instruction: 0x01b20704
    2594:	04030000 	streq	r0, [r3], #-0
    2598:	746e6905 	strbtvc	r6, [lr], #-2309	; 0xfffff6fb
    259c:	08010200 	stmdaeq	r1, {r9}
    25a0:	00000112 	andeq	r0, r0, r2, lsl r1
    25a4:	14060102 	strne	r0, [r6], #-258	; 0xfffffefe
    25a8:	02000001 	andeq	r0, r0, #1
    25ac:	02810502 	addeq	r0, r1, #8388608	; 0x800000
    25b0:	02020000 	andeq	r0, r2, #0
    25b4:	00013607 	andeq	r3, r1, r7, lsl #12
    25b8:	0a900400 	beq	fe4035c0 <__bss_end+0xfe400444>
    25bc:	13030000 	movwne	r0, #12288	; 0x3000
    25c0:	00000025 	andeq	r0, r0, r5, lsr #32
    25c4:	41050802 	tstmi	r5, r2, lsl #16
    25c8:	02000002 	andeq	r0, r0, #2
    25cc:	01ad0708 			; <UNDEFINED> instruction: 0x01ad0708
    25d0:	a1050000 	mrsge	r0, (UNDEF: 5)
    25d4:	24000005 	strcs	r0, [r0], #-5
    25d8:	00f54c02 	rscseq	r4, r5, r2, lsl #24
    25dc:	2e060000 	cdpcs	0, 0, cr0, cr6, cr0, {0}
    25e0:	02000010 	andeq	r0, r0, #16
    25e4:	0000644e 	andeq	r6, r0, lr, asr #8
    25e8:	63070000 	movwvs	r0, #28672	; 0x7000
    25ec:	50020072 	andpl	r0, r2, r2, ror r0
    25f0:	00000064 	andeq	r0, r0, r4, rrx
    25f4:	0db70604 	ldceq	6, cr0, [r7, #16]!
    25f8:	51020000 	mrspl	r0, (UNDEF: 2)
    25fc:	00000064 	andeq	r0, r0, r4, rrx
    2600:	0e100608 	cfmsub32eq	mvax0, mvfx0, mvfx0, mvfx8
    2604:	53020000 	movwpl	r0, #8192	; 0x2000
    2608:	00000064 	andeq	r0, r0, r4, rrx
    260c:	0f27060c 	svceq	0x0027060c
    2610:	54020000 	strpl	r0, [r2], #-0
    2614:	00000064 	andeq	r0, r0, r4, rrx
    2618:	0a8a0610 	beq	fe283e60 <__bss_end+0xfe280ce4>
    261c:	55020000 	strpl	r0, [r2, #-0]
    2620:	00000064 	andeq	r0, r0, r4, rrx
    2624:	09070614 	stmdbeq	r7, {r2, r4, r9, sl}
    2628:	58020000 	stmdapl	r2, {}	; <UNPREDICTABLE>
    262c:	00000064 	andeq	r0, r0, r4, rrx
    2630:	0dfb0618 	ldcleq	6, cr0, [fp, #96]!	; 0x60
    2634:	5b020000 	blpl	8263c <__bss_end+0x7f4c0>
    2638:	00000064 	andeq	r0, r0, r4, rrx
    263c:	0e93061c 	mrceq	6, 4, r0, cr3, cr12, {0}
    2640:	5c020000 	stcpl	0, cr0, [r2], {-0}
    2644:	00000064 	andeq	r0, r0, r4, rrx
    2648:	99080020 	stmdbls	r8, {r5}
    264c:	01000013 	tsteq	r0, r3, lsl r0
    2650:	00078011 	andeq	r8, r7, r1, lsl r0
    2654:	00003c00 	andeq	r3, r0, r0, lsl #24
    2658:	189c0100 	ldmne	ip, {r8}
    265c:	09000001 	stmdbeq	r0, {r0}
    2660:	0000059b 	muleq	r0, fp, r5
    2664:	01181101 	tsteq	r8, r1, lsl #2
    2668:	50010000 	andpl	r0, r1, r0
    266c:	7d040a00 	vstrvc	s0, [r4, #-0]
    2670:	08000000 	stmdaeq	r0, {}	; <UNPREDICTABLE>
    2674:	000013a8 	andeq	r1, r0, r8, lsr #7
    2678:	07bc2701 	ldreq	r2, [ip, r1, lsl #14]!
    267c:	004c0000 	subeq	r0, ip, r0
    2680:	9c010000 	stcls	0, cr0, [r1], {-0}
    2684:	00000141 	andeq	r0, r0, r1, asr #2
    2688:	00059b09 	andeq	r9, r5, r9, lsl #22
    268c:	18270100 	stmdane	r7!, {r8}
    2690:	01000001 	tsteq	r0, r1
    2694:	d90b0050 	stmdble	fp, {r4, r6}
    2698:	01000004 	tsteq	r0, r4
    269c:	00080842 	andeq	r0, r8, r2, asr #16
    26a0:	00005800 	andeq	r5, r0, r0, lsl #16
    26a4:	099c0100 	ldmibeq	ip, {r8}
    26a8:	0000059b 	muleq	r0, fp, r5
    26ac:	01184201 	tsteq	r8, r1, lsl #4
    26b0:	50010000 	andpl	r0, r1, r0
    26b4:	009d0000 	addseq	r0, sp, r0
    26b8:	00020000 	andeq	r0, r2, r0
    26bc:	00000832 	andeq	r0, r0, r2, lsr r8
    26c0:	07a90104 	streq	r0, [r9, r4, lsl #2]!
    26c4:	08600000 	stmdaeq	r0!, {}^	; <UNPREDICTABLE>
    26c8:	0db00000 	ldceq	0, cr0, [r0]
    26cc:	72610000 	rsbvc	r0, r1, #0
    26d0:	612f6863 			; <UNDEFINED> instruction: 0x612f6863
    26d4:	6d2f6d72 	stcvs	13, cr6, [pc, #-456]!	; 2514 <mem_int_init+0x64>
    26d8:	2d686361 	stclcs	3, cr6, [r8, #-388]!	; 0xfffffe7c
    26dc:	786e7573 	stmdavc	lr!, {r0, r1, r4, r5, r6, r8, sl, ip, sp, lr}^
    26e0:	6d702f69 	ldclvs	15, cr2, [r0, #-420]!	; 0xfffffe5c
    26e4:	6174732f 	cmnvs	r4, pc, lsr #6
    26e8:	7962646e 	stmdbvc	r2!, {r1, r2, r3, r5, r6, sl, sp, lr}^
    26ec:	2f2e2e2f 	svccs	0x002e2e2f
    26f0:	5f6d656d 	svcpl	0x006d656d
    26f4:	5f756d6d 	svcpl	0x00756d6d
    26f8:	615f6370 	cmpvs	pc, r0, ror r3	; <UNPREDICTABLE>
    26fc:	532e6d73 			; <UNDEFINED> instruction: 0x532e6d73
    2700:	6f682f00 	svcvs	0x00682f00
    2704:	612f656d 			; <UNDEFINED> instruction: 0x612f656d
    2708:	6f687a6f 	svcvs	0x00687a6f
    270c:	75702f75 	ldrbvc	r2, [r0, #-3957]!	; 0xfffff08b
    2710:	6f775f62 	svcvs	0x00775f62
    2714:	7a2f6b72 	bvc	bdd4e4 <__bss_end+0xbda368>
    2718:	676e6f68 	strbvs	r6, [lr, -r8, ror #30]!
    271c:	635f706c 	cmpvs	pc, #108	; 0x6c
    2720:	2f65646f 	svccs	0x0065646f
    2724:	6a6f7270 	bvs	1bdf0ec <__bss_end+0x1bdbf70>
    2728:	2f746365 	svccs	0x00746365
    272c:	5f363152 	svcpl	0x00363152
    2730:	742f3944 	strtvc	r3, [pc], #-2372	; 2738 <mem_tmr_init+0x8>
    2734:	2f616e69 	svccs	0x00616e69
    2738:	6863696c 	stmdavs	r3!, {r2, r3, r5, r6, r8, fp, sp, lr}^
    273c:	6c2f6565 	cfstr32vs	mvfx6, [pc], #-404	; 25b0 <mem_enable_int+0x20>
    2740:	78756e69 	ldmdavc	r5!, {r0, r3, r5, r6, r9, sl, fp, sp, lr}^
    2744:	342e332d 	strtcc	r3, [lr], #-813	; 0xfffffcd3
    2748:	554e4700 	strbpl	r4, [lr, #-1792]	; 0xfffff900
    274c:	20534120 	subscs	r4, r3, r0, lsr #2
    2750:	36322e32 			; <UNDEFINED> instruction: 0x36322e32
    2754:	12800100 	addne	r0, r0, #0, 2
    2758:	04000006 	streq	r0, [r0], #-6
    275c:	00084600 	andeq	r4, r8, r0, lsl #12
    2760:	00010400 	andeq	r0, r1, r0, lsl #8
    2764:	0c000000 	stceq	0, cr0, [r0], {-0}
    2768:	000014fd 	strdeq	r1, [r0], -sp
    276c:	000001f0 	strdeq	r0, [r0], -r0	; <UNPREDICTABLE>
    2770:	00000db0 			; <UNDEFINED> instruction: 0x00000db0
    2774:	000007ac 	andeq	r0, r0, ip, lsr #15
    2778:	0000095d 	andeq	r0, r0, sp, asr r9
    277c:	14060102 	strne	r0, [r6], #-258	; 0xfffffefe
    2780:	02000001 	andeq	r0, r0, #1
    2784:	01120801 	tsteq	r2, r1, lsl #16
    2788:	02020000 	andeq	r0, r2, #0
    278c:	00028105 	andeq	r8, r2, r5, lsl #2
    2790:	07020200 	streq	r0, [r2, -r0, lsl #4]
    2794:	00000136 	andeq	r0, r0, r6, lsr r1
    2798:	69050403 	stmdbvs	r5, {r0, r1, sl}
    279c:	0400746e 	streq	r7, [r0], #-1134	; 0xfffffb92
    27a0:	00000a90 	muleq	r0, r0, sl
    27a4:	00531303 	subseq	r1, r3, r3, lsl #6
    27a8:	04020000 	streq	r0, [r2], #-0
    27ac:	0001b707 	andeq	fp, r1, r7, lsl #14
    27b0:	05080200 	streq	r0, [r8, #-512]	; 0xfffffe00
    27b4:	00000241 	andeq	r0, r0, r1, asr #4
    27b8:	ad070802 	stcge	8, cr0, [r7, #-8]
    27bc:	05000001 	streq	r0, [r0, #-1]
    27c0:	000014cb 	andeq	r1, r0, fp, asr #9
    27c4:	541202a0 	ldrpl	r0, [r2], #-672	; 0xfffffd60
    27c8:	06000002 	streq	r0, [r0], -r2
    27cc:	0000102e 	andeq	r1, r0, lr, lsr #32
    27d0:	00481702 	subeq	r1, r8, r2, lsl #14
    27d4:	07000000 	streq	r0, [r0, -r0]
    27d8:	02007263 	andeq	r7, r0, #805306374	; 0x30000006
    27dc:	00004827 	andeq	r4, r0, r7, lsr #16
    27e0:	61070400 	tstvs	r7, r0, lsl #8
    27e4:	02007263 	andeq	r7, r0, #805306374	; 0x30000006
    27e8:	00004828 	andeq	r4, r0, r8, lsr #16
    27ec:	b7060800 	strlt	r0, [r6, -r0, lsl #16]
    27f0:	0200000d 	andeq	r0, r0, #13
    27f4:	00004829 	andeq	r4, r0, r9, lsr #16
    27f8:	ce060c00 	cdpgt	12, 0, cr0, cr6, cr0, {0}
    27fc:	02000013 	andeq	r0, r0, #19
    2800:	0000482a 	andeq	r4, r0, sl, lsr #16
    2804:	06061000 	streq	r1, [r6], -r0
    2808:	02000014 	andeq	r0, r0, #20
    280c:	0000482b 	andeq	r4, r0, fp, lsr #16
    2810:	d9061400 	stmdble	r6, {sl, ip}
    2814:	02000014 	andeq	r0, r0, #20
    2818:	0000482c 	andeq	r4, r0, ip, lsr #16
    281c:	10061800 	andne	r1, r6, r0, lsl #16
    2820:	0200000e 	andeq	r0, r0, #14
    2824:	00004830 	andeq	r4, r0, r0, lsr r8
    2828:	27061c00 	strcs	r1, [r6, -r0, lsl #24]
    282c:	0200000f 	andeq	r0, r0, #15
    2830:	00004831 	andeq	r4, r0, r1, lsr r8
    2834:	8a062000 	bhi	18a83c <__bss_end+0x1876c0>
    2838:	0200000a 	andeq	r0, r0, #10
    283c:	00004832 	andeq	r4, r0, r2, lsr r8
    2840:	07062400 	streq	r2, [r6, -r0, lsl #8]
    2844:	02000009 	andeq	r0, r0, #9
    2848:	00004834 	andeq	r4, r0, r4, lsr r8
    284c:	da062800 	ble	18c854 <__bss_end+0x1896d8>
    2850:	02000013 	andeq	r0, r0, #19
    2854:	00004836 	andeq	r4, r0, r6, lsr r8
    2858:	b8062c00 	stmdalt	r6, {sl, fp, sp}
    285c:	02000015 	andeq	r0, r0, #21
    2860:	00004837 	andeq	r4, r0, r7, lsr r8
    2864:	c4063000 	strgt	r3, [r6], #-0
    2868:	02000014 	andeq	r0, r0, #20
    286c:	00004838 	andeq	r4, r0, r8, lsr r8
    2870:	d3063400 	movwle	r3, #25600	; 0x6400
    2874:	02000015 	andeq	r0, r0, #21
    2878:	00004839 	andeq	r4, r0, r9, lsr r8
    287c:	be063800 	cdplt	8, 0, cr3, cr6, cr0, {0}
    2880:	02000015 	andeq	r0, r0, #21
    2884:	0000483b 	andeq	r4, r0, fp, lsr r8
    2888:	c8063c00 	stmdagt	r6, {sl, fp, ip, sp}
    288c:	02000013 	andeq	r0, r0, #19
    2890:	0000483c 	andeq	r4, r0, ip, lsr r8
    2894:	70074000 	andvc	r4, r7, r0
    2898:	02007261 	andeq	r7, r0, #268435462	; 0x10000006
    289c:	0000483e 	andeq	r4, r0, lr, lsr r8
    28a0:	94064400 	strls	r4, [r6], #-1024	; 0xfffffc00
    28a4:	02000015 	andeq	r0, r0, #21
    28a8:	00004840 	andeq	r4, r0, r0, asr #16
    28ac:	9f064800 	svcls	0x00064800
    28b0:	02000015 	andeq	r0, r0, #21
    28b4:	00004841 	andeq	r4, r0, r1, asr #16
    28b8:	e6064c00 	str	r4, [r6], -r0, lsl #24
    28bc:	02000014 	andeq	r0, r0, #20
    28c0:	00004842 	andeq	r4, r0, r2, asr #16
    28c4:	8f065000 	svchi	0x00065000
    28c8:	02000015 	andeq	r0, r0, #21
    28cc:	00004843 	andeq	r4, r0, r3, asr #16
    28d0:	73075400 	movwvc	r5, #29696	; 0x7400
    28d4:	02007269 	andeq	r7, r0, #-1879048186	; 0x90000006
    28d8:	00004847 	andeq	r4, r0, r7, asr #16
    28dc:	ab065800 	blge	1988e4 <__bss_end+0x195768>
    28e0:	02000014 	andeq	r0, r0, #20
    28e4:	00004849 	andeq	r4, r0, r9, asr #16
    28e8:	63075c00 	movwvs	r5, #31744	; 0x7c00
    28ec:	02007263 	andeq	r7, r0, #805306374	; 0x30000006
    28f0:	0000484a 	andeq	r4, r0, sl, asr #16
    28f4:	65076000 	strvs	r6, [r7, #-0]
    28f8:	02007273 	andeq	r7, r0, #805306375	; 0x30000007
    28fc:	0000484b 	andeq	r4, r0, fp, asr #16
    2900:	ca066400 	bgt	19b908 <__bss_end+0x19878c>
    2904:	02000015 	andeq	r0, r0, #21
    2908:	0000484c 	andeq	r4, r0, ip, asr #16
    290c:	75076800 	strvc	r6, [r7, #-2048]	; 0xfffff800
    2910:	02007265 	andeq	r7, r0, #1342177286	; 0x50000006
    2914:	0000484d 	andeq	r4, r0, sp, asr #16
    2918:	97066c00 	strls	r6, [r6, -r0, lsl #24]
    291c:	02000014 	andeq	r0, r0, #20
    2920:	0000484e 	andeq	r4, r0, lr, asr #16
    2924:	d5067000 	strle	r7, [r6, #-0]
    2928:	02000013 	andeq	r0, r0, #19
    292c:	0000484f 	andeq	r4, r0, pc, asr #16
    2930:	fb067400 	blx	19f93a <__bss_end+0x19c7be>
    2934:	0200000d 	andeq	r0, r0, #13
    2938:	0000485d 	andeq	r4, r0, sp, asr r8
    293c:	93067800 	movwls	r7, #26624	; 0x6800
    2940:	0200000e 	andeq	r0, r0, #14
    2944:	0000485e 	andeq	r4, r0, lr, asr r8
    2948:	c5067c00 	strgt	r7, [r6, #-3072]	; 0xfffff400
    294c:	02000015 	andeq	r0, r0, #21
    2950:	00004874 	andeq	r4, r0, r4, ror r8
    2954:	c4068000 	strgt	r8, [r6], #-0
    2958:	02000015 	andeq	r0, r0, #21
    295c:	00004875 	andeq	r4, r0, r5, ror r8
    2960:	69078400 	stmdbvs	r7, {sl, pc}
    2964:	02007273 	andeq	r7, r0, #805306375	; 0x30000007
    2968:	00004876 	andeq	r4, r0, r6, ror r8
    296c:	4f068800 	svcmi	0x00068800
    2970:	02000015 	andeq	r0, r0, #21
    2974:	0000487a 	andeq	r4, r0, sl, ror r8
    2978:	63078c00 	movwvs	r8, #31744	; 0x7c00
    297c:	02006469 	andeq	r6, r0, #1761607680	; 0x69000000
    2980:	0000487b 	andeq	r4, r0, fp, ror r8
    2984:	ef069000 	svc	0x00069000
    2988:	02000013 	andeq	r0, r0, #19
    298c:	0000487c 	andeq	r4, r0, ip, ror r8
    2990:	f5069400 			; <UNDEFINED> instruction: 0xf5069400
    2994:	02000014 	andeq	r0, r0, #20
    2998:	0000487d 	andeq	r4, r0, sp, ror r8
    299c:	c1069800 	tstgt	r6, r0, lsl #16
    29a0:	02000013 	andeq	r0, r0, #19
    29a4:	0000487e 	andeq	r4, r0, lr, ror r8
    29a8:	02009c00 	andeq	r9, r0, #0, 24
    29ac:	02380704 	eorseq	r0, r8, #4, 14	; 0x100000
    29b0:	da080000 	ble	2029b8 <__bss_end+0x1ff83c>
    29b4:	04000001 	streq	r0, [r0], #-1
    29b8:	00000053 	andeq	r0, r0, r3, asr r0
    29bc:	02ea8904 	rsceq	r8, sl, #4, 18	; 0x10000
    29c0:	d4090000 	strle	r0, [r9], #-0
    29c4:	00000000 	andeq	r0, r0, r0
    29c8:	00012909 	andeq	r2, r1, r9, lsl #18
    29cc:	e1090100 	mrs	r0, (UNDEF: 25)
    29d0:	02000000 	andeq	r0, r0, #0
    29d4:	00010609 	andeq	r0, r1, r9, lsl #12
    29d8:	5c090300 	stcpl	3, cr0, [r9], {-0}
    29dc:	04000002 	streq	r0, [r0], #-2
    29e0:	0001a109 	andeq	sl, r1, r9, lsl #2
    29e4:	89090500 	stmdbhi	r9, {r8, sl}
    29e8:	06000001 	streq	r0, [r0], -r1
    29ec:	0001c409 	andeq	ip, r1, r9, lsl #8
    29f0:	c8090700 	stmdagt	r9, {r8, r9, sl}
    29f4:	08000000 	stmdaeq	r0, {}	; <UNPREDICTABLE>
    29f8:	0000fb09 	andeq	pc, r0, r9, lsl #22
    29fc:	96090900 	strls	r0, [r9], -r0, lsl #18
    2a00:	0a000001 	beq	2a0c <mem_clk_set_pll_factor+0x30>
    2a04:	00027609 	andeq	r7, r2, r9, lsl #12
    2a08:	d4090b00 	strle	r0, [r9], #-2816	; 0xfffff500
    2a0c:	0c000001 	stceq	0, cr0, [r0], {1}
    2a10:	0002e609 	andeq	lr, r2, r9, lsl #12
    2a14:	31090d00 	tstcc	r9, r0, lsl #26
    2a18:	0e000003 	cdpeq	0, 0, cr0, cr0, cr3, {0}
    2a1c:	00026809 	andeq	r6, r2, r9, lsl #16
    2a20:	01090f00 	tsteq	r9, r0, lsl #30
    2a24:	10000003 	andne	r0, r0, r3
    2a28:	00024f09 	andeq	r4, r2, r9, lsl #30
    2a2c:	1b091100 	blne	246e34 <__bss_end+0x243cb8>
    2a30:	12000003 	andne	r0, r0, #3
    2a34:	0000ee09 	andeq	lr, r0, r9, lsl #28
    2a38:	d8091300 	stmdale	r9, {r8, r9, ip}
    2a3c:	14000002 	strne	r0, [r0], #-2
    2a40:	08010200 	stmdaeq	r1, {r9}
    2a44:	0000011b 	andeq	r0, r0, fp, lsl r1
    2a48:	b2070402 	andlt	r0, r7, #33554432	; 0x2000000
    2a4c:	0a000001 	beq	2a58 <mem_clk_get_pll_factor+0x10>
    2a50:	00001529 	andeq	r1, r0, r9, lsr #10
    2a54:	0db08a01 	ldceq	10, cr8, [r0, #4]!
    2a58:	04040000 	streq	r0, [r4], #-0
    2a5c:	9c010000 	stcls	0, cr0, [r1], {-0}
    2a60:	0000031b 	andeq	r0, r0, fp, lsl r3
    2a64:	0014b00b 	andseq	fp, r4, fp
    2a68:	1b8a0100 	blne	fe282e70 <__bss_end+0xfe27fcf4>
    2a6c:	01000003 	tsteq	r0, r3
    2a70:	040c0050 	streq	r0, [ip], #-80	; 0xffffffb0
    2a74:	00000068 	andeq	r0, r0, r8, rrx
    2a78:	00147d0d 	andseq	r7, r4, sp, lsl #26
    2a7c:	01180100 	tsteq	r8, r0, lsl #2
    2a80:	000011b4 			; <UNDEFINED> instruction: 0x000011b4
    2a84:	000002c4 	andeq	r0, r0, r4, asr #5
    2a88:	03469c01 	movteq	r9, #27649	; 0x6c01
    2a8c:	b00e0000 	andlt	r0, lr, r0
    2a90:	01000014 	tsteq	r0, r4, lsl r0
    2a94:	031b0118 	tsteq	fp, #24, 2
    2a98:	50010000 	andpl	r0, r1, r0
    2a9c:	14640d00 	strbtne	r0, [r4], #-3328	; 0xfffff300
    2aa0:	7b010000 	blvc	42aa8 <__bss_end+0x3f92c>
    2aa4:	00147801 	andseq	r7, r4, r1, lsl #16
    2aa8:	00001800 	andeq	r1, r0, r0, lsl #16
    2aac:	6d9c0100 	ldfvss	f0, [ip]
    2ab0:	0f000003 	svceq	0x00000003
    2ab4:	006c6176 	rsbeq	r6, ip, r6, ror r1
    2ab8:	48017e01 	stmdami	r1, {r0, r9, sl, fp, ip, sp, lr}
    2abc:	d0000000 	andle	r0, r0, r0
    2ac0:	00000004 	andeq	r0, r0, r4
    2ac4:	000f2e0d 	andeq	r2, pc, sp, lsl #28
    2ac8:	01890100 	orreq	r0, r9, r0, lsl #2
    2acc:	00001490 	muleq	r0, r0, r4
    2ad0:	00000090 	muleq	r0, r0, r0
    2ad4:	03979c01 	orrseq	r9, r7, #256	; 0x100
    2ad8:	b0100000 	andslt	r0, r0, r0
    2adc:	01000014 	tsteq	r0, r4, lsl r0
    2ae0:	031b018b 	tsteq	fp, #-1073741790	; 0xc0000022
    2ae4:	f2060000 	vhadd.s8	d0, d6, d0
    2ae8:	00002b8c 	andeq	r2, r0, ip, lsl #23
    2aec:	2b0d0000 	blcs	342af4 <__bss_end+0x33f978>
    2af0:	01000015 	tsteq	r0, r5, lsl r0
    2af4:	152001e3 	strne	r0, [r0, #-483]!	; 0xfffffe1d
    2af8:	000c0000 	andeq	r0, ip, r0
    2afc:	9c010000 	stcls	0, cr0, [r1], {-0}
    2b00:	000003c1 	andeq	r0, r0, r1, asr #7
    2b04:	00152c11 	andseq	r2, r5, r1, lsl ip
    2b08:	0002f800 	andeq	pc, r2, r0, lsl #16
    2b0c:	50011200 	andpl	r1, r1, r0, lsl #4
    2b10:	2dc00305 	stclcs	3, cr0, [r0, #20]
    2b14:	00000000 	andeq	r0, r0, r0
    2b18:	00147f0d 	andseq	r7, r4, sp, lsl #30
    2b1c:	01e90100 	mvneq	r0, r0, lsl #2
    2b20:	0000152c 	andeq	r1, r0, ip, lsr #10
    2b24:	0000000c 	andeq	r0, r0, ip
    2b28:	03eb9c01 	mvneq	r9, #256	; 0x100
    2b2c:	38110000 	ldmdacc	r1, {}	; <UNPREDICTABLE>
    2b30:	21000015 	tstcs	r0, r5, lsl r0
    2b34:	12000003 	andne	r0, r0, #3
    2b38:	03055001 	movweq	r5, #20481	; 0x5001
    2b3c:	00002dc0 	andeq	r2, r0, r0, asr #27
    2b40:	3d130000 	ldccc	0, cr0, [r3, #-0]
    2b44:	01000014 	tsteq	r0, r4, lsl r0
    2b48:	153801ee 	ldrne	r0, [r8, #-494]!	; 0xfffffe12
    2b4c:	00140000 	andseq	r0, r4, r0
    2b50:	9c010000 	stcls	0, cr0, [r1], {-0}
    2b54:	0014eb0d 	andseq	lr, r4, sp, lsl #22
    2b58:	01f40100 	mvnseq	r0, r0, lsl #2
    2b5c:	0000154c 	andeq	r1, r0, ip, asr #10
    2b60:	00000010 	andeq	r0, r0, r0, lsl r0
    2b64:	04249c01 	strteq	r9, [r4], #-3073	; 0xfffff3ff
    2b68:	740f0000 	strvc	r0, [pc], #-0	; 2b70 <mem_clk_get_misc+0x40>
    2b6c:	01006274 	tsteq	r0, r4, ror r2
    2b70:	004801f6 	strdeq	r0, [r8], #-22	; 0xffffffea
    2b74:	04f30000 	ldrbteq	r0, [r3], #0
    2b78:	14000000 	strne	r0, [r0], #-0
    2b7c:	000014cb 	andeq	r1, r0, fp, asr #9
    2b80:	00681f01 	rsbeq	r1, r8, r1, lsl #30
    2b84:	03050000 	movweq	r0, #20480	; 0x5000
    2b88:	00002dc0 	andeq	r2, r0, r0, asr #27
    2b8c:	0015a415 	andseq	sl, r5, r5, lsl r4
    2b90:	e1210100 			; <UNDEFINED> instruction: 0xe1210100
    2b94:	a0000004 	andge	r0, r0, r4
    2b98:	00000002 	andeq	r0, r0, r2
    2b9c:	00c50878 	sbceq	r0, r5, r8, ror r8
    2ba0:	00006040 	andeq	r6, r0, r0, asr #32
	...
    2c10:	000a81a4 	andeq	r8, sl, r4, lsr #3
    2c14:	44e048e0 	strbtmi	r4, [r0], #2272	; 0x8e0
	...
    2c38:	00006816 	andeq	r6, r0, r6, lsl r8
    2c3c:	02f11700 	rscseq	r1, r1, #0, 14
    2c40:	04f60000 	ldrbteq	r0, [r6], #0
    2c44:	54180000 	ldrpl	r0, [r8], #-0
    2c48:	01000002 	tsteq	r0, r2
    2c4c:	16081900 	strne	r1, [r8], -r0, lsl #18
    2c50:	0f010000 	svceq	0x00010000
    2c54:	000004e6 	andeq	r0, r0, r6, ror #9
    2c58:	315c0305 	cmpcc	ip, r5, lsl #6
    2c5c:	80190000 	andshi	r0, r9, r0
    2c60:	01000015 	tsteq	r0, r5, lsl r0
    2c64:	0002f110 	andeq	pc, r2, r0, lsl r1	; <UNPREDICTABLE>
    2c68:	58030500 	stmdapl	r3, {r8, sl}
    2c6c:	19000031 	stmdbne	r0, {r0, r4, r5}
    2c70:	0000156a 	andeq	r1, r0, sl, ror #10
    2c74:	04e61101 	strbteq	r1, [r6], #257	; 0x101
    2c78:	03050000 	movweq	r0, #20480	; 0x5000
    2c7c:	0000306c 	andeq	r3, r0, ip, rrx
    2c80:	00145519 	andseq	r5, r4, r9, lsl r5
    2c84:	f1120100 			; <UNDEFINED> instruction: 0xf1120100
    2c88:	05000002 	streq	r0, [r0, #-2]
    2c8c:	00317003 	eorseq	r7, r1, r3
    2c90:	02f11700 	rscseq	r1, r1, #0, 14
    2c94:	054a0000 	strbeq	r0, [sl, #-0]
    2c98:	54180000 	ldrpl	r0, [r8], #-0
    2c9c:	06000002 	streq	r0, [r0], -r2
    2ca0:	14111900 	ldrne	r1, [r1], #-2304	; 0xfffff700
    2ca4:	13010000 	movwne	r0, #4096	; 0x1000
    2ca8:	0000053a 	andeq	r0, r0, sl, lsr r5
    2cac:	313c0305 	teqcc	ip, r5, lsl #6
    2cb0:	9c190000 	ldcls	0, cr0, [r9], {-0}
    2cb4:	01000014 	tsteq	r0, r4, lsl r0
    2cb8:	0002f114 	andeq	pc, r2, r4, lsl r1	; <UNPREDICTABLE>
    2cbc:	74030500 	strvc	r0, [r3], #-1280	; 0xfffffb00
    2cc0:	19000030 	stmdbne	r0, {r4, r5}
    2cc4:	000015da 	ldrdeq	r1, [r0], -sl
    2cc8:	04e61501 	strbteq	r1, [r6], #1281	; 0x501
    2ccc:	03050000 	movweq	r0, #20480	; 0x5000
    2cd0:	00003080 	andeq	r3, r0, r0, lsl #1
    2cd4:	0013e019 	andseq	lr, r3, r9, lsl r0
    2cd8:	f1160100 			; <UNDEFINED> instruction: 0xf1160100
    2cdc:	05000002 	streq	r0, [r0, #-2]
    2ce0:	00316403 	eorseq	r6, r1, r3, lsl #8
    2ce4:	14271900 	strtne	r1, [r7], #-2304	; 0xfffff700
    2ce8:	17010000 	strne	r0, [r1, -r0]
    2cec:	000004e6 	andeq	r0, r0, r6, ror #9
    2cf0:	30640305 	rsbcc	r0, r4, r5, lsl #6
    2cf4:	b5190000 	ldrlt	r0, [r9, #-0]
    2cf8:	01000014 	tsteq	r0, r4, lsl r0
    2cfc:	0002f118 	andeq	pc, r2, r8, lsl r1	; <UNPREDICTABLE>
    2d00:	7c030500 	cfstr32vc	mvfx0, [r3], {-0}
    2d04:	19000030 	stmdbne	r0, {r4, r5}
    2d08:	00001554 	andeq	r1, r0, r4, asr r5
    2d0c:	04e61901 	strbteq	r1, [r6], #2305	; 0x901
    2d10:	03050000 	movweq	r0, #20480	; 0x5000
    2d14:	00003174 	andeq	r3, r0, r4, ror r1
    2d18:	00154019 	andseq	r4, r5, r9, lsl r0
    2d1c:	f11a0100 			; <UNDEFINED> instruction: 0xf11a0100
    2d20:	05000002 	streq	r0, [r0, #-2]
    2d24:	00307803 	eorseq	r7, r0, r3, lsl #16
    2d28:	161e1900 	ldrne	r1, [lr], -r0, lsl #18
    2d2c:	1b010000 	blne	42d34 <__bss_end+0x3fbb8>
    2d30:	000004e6 	andeq	r0, r0, r6, ror #9
    2d34:	31680305 	cmncc	r8, r5, lsl #6
    2d38:	f7190000 			; <UNDEFINED> instruction: 0xf7190000
    2d3c:	01000013 	tsteq	r0, r3, lsl r0
    2d40:	0002f11c 	andeq	pc, r2, ip, lsl r1	; <UNPREDICTABLE>
    2d44:	88030500 	stmdahi	r3, {r8, sl}
    2d48:	17000030 	smladxne	r0, r0, r0, r0
    2d4c:	000002f1 	strdeq	r0, [r0], -r1
    2d50:	00000604 	andeq	r0, r0, r4, lsl #12
    2d54:	00025418 	andeq	r5, r2, r8, lsl r4
    2d58:	19002b00 	stmdbne	r0, {r8, r9, fp, sp}
    2d5c:	000015f0 	strdeq	r1, [r0], -r0
    2d60:	05f41d01 	ldrbeq	r1, [r4, #3329]!	; 0xd01
    2d64:	03050000 	movweq	r0, #20480	; 0x5000
    2d68:	0000308c 	andeq	r3, r0, ip, lsl #1
    2d6c:	00160c00 	andseq	r0, r6, r0, lsl #24
    2d70:	b7000400 	strlt	r0, [r0, -r0, lsl #8]
    2d74:	04000009 	streq	r0, [r0], #-9
    2d78:	00000001 	andeq	r0, r0, r1
    2d7c:	173e0c00 	ldrne	r0, [lr, -r0, lsl #24]!
    2d80:	01f00000 	mvnseq	r0, r0
    2d84:	155c0000 	ldrbne	r0, [ip, #-0]
    2d88:	04c80000 	strbeq	r0, [r8], #0
    2d8c:	0a9c0000 	beq	fe702d94 <__bss_end+0xfe6ffc18>
    2d90:	01020000 	mrseq	r0, (UNDEF: 2)
    2d94:	00011406 	andeq	r1, r1, r6, lsl #8
    2d98:	08010200 	stmdaeq	r1, {r9}
    2d9c:	00000112 	andeq	r0, r0, r2, lsl r1
    2da0:	81050202 	tsthi	r5, r2, lsl #4
    2da4:	02000002 	andeq	r0, r0, #2
    2da8:	01360702 	teqeq	r6, r2, lsl #14
    2dac:	7d030000 	stcvc	0, cr0, [r3, #-0]
    2db0:	02000012 	andeq	r0, r0, #18
    2db4:	00004c12 	andeq	r4, r0, r2, lsl ip
    2db8:	05040400 	streq	r0, [r4, #-1024]	; 0xfffffc00
    2dbc:	00746e69 	rsbseq	r6, r4, r9, ror #28
    2dc0:	000a9003 	andeq	r9, sl, r3
    2dc4:	5e130200 	cdppl	2, 1, cr0, cr3, cr0, {0}
    2dc8:	02000000 	andeq	r0, r0, #0
    2dcc:	01b70704 			; <UNDEFINED> instruction: 0x01b70704
    2dd0:	08020000 	stmdaeq	r2, {}	; <UNPREDICTABLE>
    2dd4:	00024105 	andeq	r4, r2, r5, lsl #2
    2dd8:	07080200 	streq	r0, [r8, -r0, lsl #4]
    2ddc:	000001ad 	andeq	r0, r0, sp, lsr #3
    2de0:	1a030405 	bne	c3dfc <__bss_end+0xc0c80>
    2de4:	0000013f 	andeq	r0, r0, pc, lsr r1
    2de8:	00075906 	andeq	r5, r7, r6, lsl #18
    2dec:	531c0300 	tstpl	ip, #0, 6
    2df0:	04000000 	streq	r0, [r0], #-0
    2df4:	06001e02 	streq	r1, [r0], -r2, lsl #28
    2df8:	00000d44 	andeq	r0, r0, r4, asr #26
    2dfc:	00531d03 	subseq	r1, r3, r3, lsl #26
    2e00:	02040000 	andeq	r0, r4, #0
    2e04:	5106001c 	tstpl	r6, ip, lsl r0
    2e08:	03000007 	movweq	r0, #7
    2e0c:	0000531e 	andeq	r5, r0, lr, lsl r3
    2e10:	1a020400 	bne	83e18 <__bss_end+0x80c9c>
    2e14:	0d4e0600 	stcleq	6, cr0, [lr, #-0]
    2e18:	1f030000 	svcne	0x00030000
    2e1c:	00000053 	andeq	r0, r0, r3, asr r0
    2e20:	00180204 	andseq	r0, r8, r4, lsl #4
    2e24:	00076106 	andeq	r6, r7, r6, lsl #2
    2e28:	53200300 	noppl	{0}	; <UNPREDICTABLE>
    2e2c:	04000000 	streq	r0, [r0], #-0
    2e30:	06001305 	streq	r1, [r0], -r5, lsl #6
    2e34:	00000d58 	andeq	r0, r0, r8, asr sp
    2e38:	00532103 	subseq	r2, r3, r3, lsl #2
    2e3c:	03040000 	movweq	r0, #16384	; 0x4000
    2e40:	71060010 	tstvc	r6, r0, lsl r0
    2e44:	03000007 	movweq	r0, #7
    2e48:	00005322 	andeq	r5, r0, r2, lsr #6
    2e4c:	0e020400 	cfcpyseq	mvf0, mvf2
    2e50:	0d620600 	stcleq	6, cr0, [r2, #-0]
    2e54:	23030000 	movwcs	r0, #12288	; 0x3000
    2e58:	00000053 	andeq	r0, r0, r3, asr r0
    2e5c:	00080604 	andeq	r0, r8, r4, lsl #12
    2e60:	000a6f06 	andeq	r6, sl, r6, lsl #30
    2e64:	53240300 			; <UNDEFINED> instruction: 0x53240300
    2e68:	04000000 	streq	r0, [r0], #-0
    2e6c:	06000701 	streq	r0, [r0], -r1, lsl #14
    2e70:	00000d6c 	andeq	r0, r0, ip, ror #26
    2e74:	00532503 	subseq	r2, r3, r3, lsl #10
    2e78:	03040000 	movweq	r0, #16384	; 0x4000
    2e7c:	0b060004 	bleq	182e94 <__bss_end+0x17fd18>
    2e80:	0300000c 	movweq	r0, #12
    2e84:	00005326 	andeq	r5, r0, r6, lsr #6
    2e88:	03010400 	movweq	r0, #5120	; 0x1400
    2e8c:	0d760600 	ldcleq	6, cr0, [r6, #-0]
    2e90:	27030000 	strcs	r0, [r3, -r0]
    2e94:	00000053 	andeq	r0, r0, r3, asr r0
    2e98:	00010204 	andeq	r0, r1, r4, lsl #4
    2e9c:	000cba06 	andeq	fp, ip, r6, lsl #20
    2ea0:	53280300 			; <UNDEFINED> instruction: 0x53280300
    2ea4:	04000000 	streq	r0, [r0], #-0
    2ea8:	00000001 	andeq	r0, r0, r1
    2eac:	18030407 	stmdane	r3, {r0, r1, r2, sl}
    2eb0:	0000015e 	andeq	r0, r0, lr, asr r1
    2eb4:	0004eb08 	andeq	lr, r4, r8, lsl #22
    2eb8:	53190300 	tstpl	r9, #0, 6
    2ebc:	08000000 	stmdaeq	r0, {}	; <UNPREDICTABLE>
    2ec0:	00000ae0 	andeq	r0, r0, r0, ror #21
    2ec4:	00732a03 	rsbseq	r2, r3, r3, lsl #20
    2ec8:	03000000 	movweq	r0, #0
    2ecc:	00000cc0 	andeq	r0, r0, r0, asr #25
    2ed0:	013f2b03 	teqeq	pc, r3, lsl #22
    2ed4:	e1090000 	mrs	r0, (UNDEF: 9)
    2ed8:	0400000c 	streq	r0, [r0], #-12
    2edc:	021b2e03 	andseq	r2, fp, #3, 28	; 0x30
    2ee0:	59060000 	stmdbpl	r6, {}	; <UNPREDICTABLE>
    2ee4:	03000007 	movweq	r0, #7
    2ee8:	00005330 	andeq	r5, r0, r0, lsr r3
    2eec:	1b050400 	blne	143ef4 <__bss_end+0x140d78>
    2ef0:	0d440600 	stcleq	6, cr0, [r4, #-0]
    2ef4:	31030000 	mrscc	r0, (UNDEF: 3)
    2ef8:	00000053 	andeq	r0, r0, r3, asr r0
    2efc:	00180304 	andseq	r0, r8, r4, lsl #6
    2f00:	00076106 	andeq	r6, r7, r6, lsl #2
    2f04:	53320300 	teqpl	r2, #0, 6
    2f08:	04000000 	streq	r0, [r0], #-0
    2f0c:	06001107 	streq	r1, [r0], -r7, lsl #2
    2f10:	00000d4e 	andeq	r0, r0, lr, asr #26
    2f14:	00533303 	subseq	r3, r3, r3, lsl #6
    2f18:	01040000 	mrseq	r0, (UNDEF: 4)
    2f1c:	71060010 	tstvc	r6, r0, lsl r0
    2f20:	03000007 	movweq	r0, #7
    2f24:	00005334 	andeq	r5, r0, r4, lsr r3
    2f28:	0c040400 	cfstrseq	mvf0, [r4], {-0}
    2f2c:	0d580600 	ldcleq	6, cr0, [r8, #-0]
    2f30:	35030000 	strcc	r0, [r3, #-0]
    2f34:	00000053 	andeq	r0, r0, r3, asr r0
    2f38:	00080404 	andeq	r0, r8, r4, lsl #8
    2f3c:	000be006 	andeq	lr, fp, r6
    2f40:	53360300 	teqpl	r6, #0, 6
    2f44:	04000000 	streq	r0, [r0], #-0
    2f48:	06000701 	streq	r0, [r0], -r1, lsl #14
    2f4c:	00000d62 	andeq	r0, r0, r2, ror #26
    2f50:	00533703 	subseq	r3, r3, r3, lsl #14
    2f54:	03040000 	movweq	r0, #16384	; 0x4000
    2f58:	0b060004 	bleq	182f70 <__bss_end+0x17fdf4>
    2f5c:	0300000c 	movweq	r0, #12
    2f60:	00005338 	andeq	r5, r0, r8, lsr r3
    2f64:	03010400 	movweq	r0, #5120	; 0x1400
    2f68:	0d6c0600 	stcleq	6, cr0, [ip, #-0]
    2f6c:	39030000 	stmdbcc	r3, {}	; <UNPREDICTABLE>
    2f70:	00000053 	andeq	r0, r0, r3, asr r0
    2f74:	00010204 	andeq	r0, r1, r4, lsl #4
    2f78:	000cba06 	andeq	fp, ip, r6, lsl #20
    2f7c:	533a0300 	teqpl	sl, #0, 6
    2f80:	04000000 	streq	r0, [r0], #-0
    2f84:	00000001 	andeq	r0, r0, r1
    2f88:	000c3303 	andeq	r3, ip, r3, lsl #6
    2f8c:	693b0300 	ldmdbvs	fp!, {r8, r9}
    2f90:	09000001 	stmdbeq	r0, {r0}
    2f94:	00000ca0 	andeq	r0, r0, r0, lsr #25
    2f98:	f6500304 			; <UNDEFINED> instruction: 0xf6500304
    2f9c:	06000002 	streq	r0, [r0], -r2
    2fa0:	00000759 	andeq	r0, r0, r9, asr r7
    2fa4:	00535203 	subseq	r5, r3, r3, lsl #4
    2fa8:	02040000 	andeq	r0, r4, #0
    2fac:	4406001e 	strmi	r0, [r6], #-30	; 0xffffffe2
    2fb0:	0300000d 	movweq	r0, #13
    2fb4:	00005353 	andeq	r5, r0, r3, asr r3
    2fb8:	1c020400 	cfstrsne	mvf0, [r2], {-0}
    2fbc:	07510600 	ldrbeq	r0, [r1, -r0, lsl #12]
    2fc0:	54030000 	strpl	r0, [r3], #-0
    2fc4:	00000053 	andeq	r0, r0, r3, asr r0
    2fc8:	001a0204 	andseq	r0, sl, r4, lsl #4
    2fcc:	000d4e06 	andeq	r4, sp, r6, lsl #28
    2fd0:	53550300 	cmppl	r5, #0, 6
    2fd4:	04000000 	streq	r0, [r0], #-0
    2fd8:	06001802 	streq	r1, [r0], -r2, lsl #16
    2fdc:	00000761 	andeq	r0, r0, r1, ror #14
    2fe0:	00535603 	subseq	r5, r3, r3, lsl #12
    2fe4:	05040000 	streq	r0, [r4, #-0]
    2fe8:	58060013 	stmdapl	r6, {r0, r1, r4}
    2fec:	0300000d 	movweq	r0, #13
    2ff0:	00005357 	andeq	r5, r0, r7, asr r3
    2ff4:	0c070400 	cfstrseq	mvf0, [r7], {-0}
    2ff8:	06ae0600 	strteq	r0, [lr], r0, lsl #12
    2ffc:	58030000 	stmdapl	r3, {}	; <UNPREDICTABLE>
    3000:	00000053 	andeq	r0, r0, r3, asr r0
    3004:	000b0104 	andeq	r0, fp, r4, lsl #2
    3008:	000d6206 	andeq	r6, sp, r6, lsl #4
    300c:	53590300 	cmppl	r9, #0, 6
    3010:	04000000 	streq	r0, [r0], #-0
    3014:	06000803 	streq	r0, [r0], -r3, lsl #16
    3018:	00000a77 	andeq	r0, r0, r7, ror sl
    301c:	00535a03 	subseq	r5, r3, r3, lsl #20
    3020:	01040000 	mrseq	r0, (UNDEF: 4)
    3024:	6c060007 	stcvs	0, cr0, [r6], {7}
    3028:	0300000d 	movweq	r0, #13
    302c:	0000535b 	andeq	r5, r0, fp, asr r3
    3030:	04030400 	streq	r0, [r3], #-1024	; 0xfffffc00
    3034:	0c0b0600 	stceq	6, cr0, [fp], {-0}
    3038:	5c030000 	stcpl	0, cr0, [r3], {-0}
    303c:	00000053 	andeq	r0, r0, r3, asr r0
    3040:	00030104 	andeq	r0, r3, r4, lsl #2
    3044:	000d7606 	andeq	r7, sp, r6, lsl #12
    3048:	535d0300 	cmppl	sp, #0, 6
    304c:	04000000 	streq	r0, [r0], #-0
    3050:	06000102 	streq	r0, [r0], -r2, lsl #2
    3054:	00000cba 			; <UNDEFINED> instruction: 0x00000cba
    3058:	00535e03 	subseq	r5, r3, r3, lsl #28
    305c:	01040000 	mrseq	r0, (UNDEF: 4)
    3060:	03000000 	movweq	r0, #0
    3064:	000006c7 	andeq	r0, r0, r7, asr #13
    3068:	02265f03 	eoreq	r5, r6, #3, 30
    306c:	bd090000 	stclt	0, cr0, [r9, #-0]
    3070:	04000010 	streq	r0, [r0], #-16
    3074:	03ef6203 	mvneq	r6, #805306368	; 0x30000000
    3078:	59060000 	stmdbpl	r6, {}	; <UNPREDICTABLE>
    307c:	03000007 	movweq	r0, #7
    3080:	00005364 	andeq	r5, r0, r4, ror #6
    3084:	1e020400 	cfcpysne	mvf0, mvf2
    3088:	0d440600 	stcleq	6, cr0, [r4, #-0]
    308c:	65030000 	strvs	r0, [r3, #-0]
    3090:	00000053 	andeq	r0, r0, r3, asr r0
    3094:	001c0204 	andseq	r0, ip, r4, lsl #4
    3098:	00075106 	andeq	r5, r7, r6, lsl #2
    309c:	53660300 	cmnpl	r6, #0, 6
    30a0:	04000000 	streq	r0, [r0], #-0
    30a4:	06001a02 	streq	r1, [r0], -r2, lsl #20
    30a8:	00000d4e 	andeq	r0, r0, lr, asr #26
    30ac:	00536703 	subseq	r6, r3, r3, lsl #14
    30b0:	02040000 	andeq	r0, r4, #0
    30b4:	61060018 	tstvs	r6, r8, lsl r0
    30b8:	03000007 	movweq	r0, #7
    30bc:	00005368 	andeq	r5, r0, r8, ror #6
    30c0:	13050400 	movwne	r0, #21504	; 0x5400
    30c4:	0d580600 	ldcleq	6, cr0, [r8, #-0]
    30c8:	69030000 	stmdbvs	r3, {}	; <UNPREDICTABLE>
    30cc:	00000053 	andeq	r0, r0, r3, asr r0
    30d0:	00100304 	andseq	r0, r0, r4, lsl #6
    30d4:	000eee06 	andeq	lr, lr, r6, lsl #28
    30d8:	536a0300 	cmnpl	sl, #0, 6
    30dc:	04000000 	streq	r0, [r0], #-0
    30e0:	06000e02 	streq	r0, [r0], -r2, lsl #28
    30e4:	0000044f 	andeq	r0, r0, pc, asr #8
    30e8:	00536b03 	subseq	r6, r3, r3, lsl #22
    30ec:	01040000 	mrseq	r0, (UNDEF: 4)
    30f0:	6206000d 	andvs	r0, r6, #13
    30f4:	0300000d 	movweq	r0, #13
    30f8:	0000536c 	andeq	r5, r0, ip, ror #6
    30fc:	08050400 	stmdaeq	r5, {sl}
    3100:	0b690600 	bleq	1a44908 <__bss_end+0x1a4178c>
    3104:	6d030000 	stcvs	0, cr0, [r3, #-0]
    3108:	00000053 	andeq	r0, r0, r3, asr r0
    310c:	00070104 	andeq	r0, r7, r4, lsl #2
    3110:	000b1f06 	andeq	r1, fp, r6, lsl #30
    3114:	536e0300 	cmnpl	lr, #0, 6
    3118:	04000000 	streq	r0, [r0], #-0
    311c:	06000601 	streq	r0, [r0], -r1, lsl #12
    3120:	00000d6c 	andeq	r0, r0, ip, ror #26
    3124:	00536f03 	subseq	r6, r3, r3, lsl #30
    3128:	02040000 	andeq	r0, r4, #0
    312c:	0b060004 	bleq	183144 <__bss_end+0x17ffc8>
    3130:	0300000c 	movweq	r0, #12
    3134:	00005370 	andeq	r5, r0, r0, ror r3
    3138:	03010400 	movweq	r0, #5120	; 0x1400
    313c:	0d760600 	ldcleq	6, cr0, [r6, #-0]
    3140:	71030000 	mrsvc	r0, (UNDEF: 3)
    3144:	00000053 	andeq	r0, r0, r3, asr r0
    3148:	00010204 	andeq	r0, r1, r4, lsl #4
    314c:	000cba06 	andeq	fp, ip, r6, lsl #20
    3150:	53720300 	cmnpl	r2, #0, 6
    3154:	04000000 	streq	r0, [r0], #-0
    3158:	00000001 	andeq	r0, r0, r1
    315c:	0005dd03 	andeq	sp, r5, r3, lsl #26
    3160:	01730300 	cmneq	r3, r0, lsl #6
    3164:	09000003 	stmdbeq	r0, {r0, r1}
    3168:	000008a0 	andeq	r0, r0, r0, lsr #17
    316c:	bb750304 	bllt	1d43d84 <__bss_end+0x1d40c08>
    3170:	06000004 	streq	r0, [r0], -r4
    3174:	00000759 	andeq	r0, r0, r9, asr r7
    3178:	00537703 	subseq	r7, r3, r3, lsl #14
    317c:	04040000 	streq	r0, [r4], #-0
    3180:	4406001c 	strmi	r0, [r6], #-28	; 0xffffffe4
    3184:	0300000d 	movweq	r0, #13
    3188:	00005378 	andeq	r5, r0, r8, ror r3
    318c:	18040400 	stmdane	r4, {sl}
    3190:	07610600 	strbeq	r0, [r1, -r0, lsl #12]!
    3194:	79030000 	stmdbvc	r3, {}	; <UNPREDICTABLE>
    3198:	00000053 	andeq	r0, r0, r3, asr r0
    319c:	00110704 	andseq	r0, r1, r4, lsl #14
    31a0:	000d4e06 	andeq	r4, sp, r6, lsl #28
    31a4:	537a0300 	cmnpl	sl, #0, 6
    31a8:	04000000 	streq	r0, [r0], #-0
    31ac:	06000c05 	streq	r0, [r0], -r5, lsl #24
    31b0:	00000be0 	andeq	r0, r0, r0, ror #23
    31b4:	00537b03 	subseq	r7, r3, r3, lsl #22
    31b8:	01040000 	mrseq	r0, (UNDEF: 4)
    31bc:	5806000b 	stmdapl	r6, {r0, r1, r3}
    31c0:	0300000d 	movweq	r0, #13
    31c4:	0000537c 	andeq	r5, r0, ip, ror r3
    31c8:	08030400 	stmdaeq	r3, {sl}
    31cc:	0c6f0600 	stcleq	6, cr0, [pc], #-0	; 31d4 <__bss_end+0x58>
    31d0:	7d030000 	stcvc	0, cr0, [r3, #-0]
    31d4:	00000053 	andeq	r0, r0, r3, asr r0
    31d8:	00070104 	andeq	r0, r7, r4, lsl #2
    31dc:	000dd206 	andeq	sp, sp, r6, lsl #4
    31e0:	537e0300 	cmnpl	lr, #0, 6
    31e4:	04000000 	streq	r0, [r0], #-0
    31e8:	06000601 	streq	r0, [r0], -r1, lsl #12
    31ec:	00000d62 	andeq	r0, r0, r2, ror #26
    31f0:	00537f03 	subseq	r7, r3, r3, lsl #30
    31f4:	02040000 	andeq	r0, r4, #0
    31f8:	0b060004 	bleq	183210 <__bss_end+0x180094>
    31fc:	0300000c 	movweq	r0, #12
    3200:	00005380 	andeq	r5, r0, r0, lsl #7
    3204:	03010400 	movweq	r0, #5120	; 0x1400
    3208:	0d6c0600 	stcleq	6, cr0, [ip, #-0]
    320c:	81030000 	mrshi	r0, (UNDEF: 3)
    3210:	00000053 	andeq	r0, r0, r3, asr r0
    3214:	00010204 	andeq	r0, r1, r4, lsl #4
    3218:	000cba06 	andeq	fp, ip, r6, lsl #20
    321c:	53820300 	orrpl	r0, r2, #0, 6
    3220:	04000000 	streq	r0, [r0], #-0
    3224:	00000001 	andeq	r0, r0, r1
    3228:	0009b303 	andeq	fp, r9, r3, lsl #6
    322c:	fa830300 	blx	fe0c3e34 <__bss_end+0xfe0c0cb8>
    3230:	09000003 	stmdbeq	r0, {r0, r1}
    3234:	00000bef 	andeq	r0, r0, pc, ror #23
    3238:	f0860304 			; <UNDEFINED> instruction: 0xf0860304
    323c:	06000005 	streq	r0, [r0], -r5
    3240:	00000759 	andeq	r0, r0, r9, asr r7
    3244:	00538803 	subseq	r8, r3, r3, lsl #16
    3248:	04040000 	streq	r0, [r4], #-0
    324c:	5106001c 	tstpl	r6, ip, lsl r0
    3250:	03000007 	movweq	r0, #7
    3254:	00005389 	andeq	r5, r0, r9, lsl #7
    3258:	1a020400 	bne	84260 <__bss_end+0x810e4>
    325c:	0d440600 	stcleq	6, cr0, [r4, #-0]
    3260:	8a030000 	bhi	c3268 <__bss_end+0xc00ec>
    3264:	00000053 	andeq	r0, r0, r3, asr r0
    3268:	00180204 	andseq	r0, r8, r4, lsl #4
    326c:	00076106 	andeq	r6, r7, r6, lsl #2
    3270:	538b0300 	orrpl	r0, fp, #0, 6
    3274:	04000000 	streq	r0, [r0], #-0
    3278:	06001404 	streq	r1, [r0], -r4, lsl #8
    327c:	00000d4e 	andeq	r0, r0, lr, asr #26
    3280:	00538c03 	subseq	r8, r3, r3, lsl #24
    3284:	04040000 	streq	r0, [r4], #-0
    3288:	eb060010 	bl	1832d0 <__bss_end+0x180154>
    328c:	03000006 	movweq	r0, #6
    3290:	0000538d 	andeq	r5, r0, sp, lsl #7
    3294:	0f010400 	svceq	0x00010400
    3298:	0c770600 	ldcleq	6, cr0, [r7], #-0
    329c:	8f030000 	svchi	0x00030000
    32a0:	00000053 	andeq	r0, r0, r3, asr r0
    32a4:	000e0104 	andeq	r0, lr, r4, lsl #2
    32a8:	000d5806 	andeq	r5, sp, r6, lsl #16
    32ac:	53900300 	orrspl	r0, r0, #0, 6
    32b0:	04000000 	streq	r0, [r0], #-0
    32b4:	06000c02 	streq	r0, [r0], -r2, lsl #24
    32b8:	00000be0 	andeq	r0, r0, r0, ror #23
    32bc:	00539103 	subseq	r9, r3, r3, lsl #2
    32c0:	01040000 	mrseq	r0, (UNDEF: 4)
    32c4:	9406000b 	strls	r0, [r6], #-11
    32c8:	03000005 	movweq	r0, #5
    32cc:	00005392 	muleq	r0, r2, r3
    32d0:	0a010400 	beq	442d8 <__bss_end+0x4115c>
    32d4:	06280600 	strteq	r0, [r8], -r0, lsl #12
    32d8:	93030000 	movwls	r0, #12288	; 0x3000
    32dc:	00000053 	andeq	r0, r0, r3, asr r0
    32e0:	00090104 	andeq	r0, r9, r4, lsl #2
    32e4:	000d3d06 	andeq	r3, sp, r6, lsl #26
    32e8:	53940300 	orrspl	r0, r4, #0, 6
    32ec:	04000000 	streq	r0, [r0], #-0
    32f0:	06000801 	streq	r0, [r0], -r1, lsl #16
    32f4:	00000d62 	andeq	r0, r0, r2, ror #26
    32f8:	00539503 	subseq	r9, r3, r3, lsl #10
    32fc:	01040000 	mrseq	r0, (UNDEF: 4)
    3300:	27060007 	strcs	r0, [r6, -r7]
    3304:	0300000c 	movweq	r0, #12
    3308:	00005396 	muleq	r0, r6, r3
    330c:	06010400 	streq	r0, [r1], -r0, lsl #8
    3310:	0cb40600 	ldceq	6, cr0, [r4]
    3314:	97030000 	strls	r0, [r3, -r0]
    3318:	00000053 	andeq	r0, r0, r3, asr r0
    331c:	00050104 	andeq	r0, r5, r4, lsl #2
    3320:	000e8a06 	andeq	r8, lr, r6, lsl #20
    3324:	53980300 	orrspl	r0, r8, #0, 6
    3328:	04000000 	streq	r0, [r0], #-0
    332c:	06000401 	streq	r0, [r0], -r1, lsl #8
    3330:	00000c0b 	andeq	r0, r0, fp, lsl #24
    3334:	00539903 	subseq	r9, r3, r3, lsl #18
    3338:	01040000 	mrseq	r0, (UNDEF: 4)
    333c:	6c060003 	stcvs	0, cr0, [r6], {3}
    3340:	0300000d 	movweq	r0, #13
    3344:	0000539a 	muleq	r0, sl, r3
    3348:	01020400 	tsteq	r2, r0, lsl #8
    334c:	0cba0600 	ldceq	6, cr0, [sl]
    3350:	9b030000 	blls	c3358 <__bss_end+0xc01dc>
    3354:	00000053 	andeq	r0, r0, r3, asr r0
    3358:	00000104 	andeq	r0, r0, r4, lsl #2
    335c:	049b0300 	ldreq	r0, [fp], #768	; 0x300
    3360:	9c030000 	stcls	0, cr0, [r3], {-0}
    3364:	000004c6 	andeq	r0, r0, r6, asr #9
    3368:	a4030405 	strge	r0, [r3], #-1029	; 0xfffffbfb
    336c:	0000065e 	andeq	r0, r0, lr, asr r6
    3370:	000ffa06 	andeq	pc, pc, r6, lsl #20
    3374:	53a60300 			; <UNDEFINED> instruction: 0x53a60300
    3378:	04000000 	streq	r0, [r0], #-0
    337c:	06001e02 	streq	r1, [r0], -r2, lsl #28
    3380:	00000d44 	andeq	r0, r0, r4, asr #26
    3384:	0053a703 	subseq	sl, r3, r3, lsl #14
    3388:	06040000 	streq	r0, [r4], -r0
    338c:	f5060018 			; <UNDEFINED> instruction: 0xf5060018
    3390:	0300000c 	movweq	r0, #12
    3394:	000053a8 	andeq	r5, r0, r8, lsr #7
    3398:	16020400 	strne	r0, [r2], -r0, lsl #8
    339c:	0d4e0600 	stcleq	6, cr0, [lr, #-0]
    33a0:	a9030000 	stmdbge	r3, {}	; <UNPREDICTABLE>
    33a4:	00000053 	andeq	r0, r0, r3, asr r0
    33a8:	00100604 	andseq	r0, r0, r4, lsl #12
    33ac:	0008db06 	andeq	sp, r8, r6, lsl #22
    33b0:	53aa0300 			; <UNDEFINED> instruction: 0x53aa0300
    33b4:	04000000 	streq	r0, [r0], #-0
    33b8:	06000e02 	streq	r0, [r0], -r2, lsl #28
    33bc:	00000d58 	andeq	r0, r0, r8, asr sp
    33c0:	0053ab03 	subseq	sl, r3, r3, lsl #22
    33c4:	0e040000 	cdpeq	0, 0, cr0, cr4, cr0, {0}
    33c8:	07000000 	streq	r0, [r0, -r0]
    33cc:	7da20304 	stcvc	3, cr0, [r2, #16]!
    33d0:	08000006 	stmdaeq	r0, {r1, r2}
    33d4:	000004eb 	andeq	r0, r0, fp, ror #9
    33d8:	0053a303 	subseq	sl, r3, r3, lsl #6
    33dc:	e0080000 	and	r0, r8, r0
    33e0:	0300000a 	movweq	r0, #10
    33e4:	0005fbac 	andeq	pc, r5, ip, lsr #23
    33e8:	0a030000 	beq	c33f0 <__bss_end+0xc0274>
    33ec:	03000006 	movweq	r0, #6
    33f0:	00065ead 	andeq	r5, r6, sp, lsr #29
    33f4:	046b0900 	strbteq	r0, [fp], #-2304	; 0xfffff700
    33f8:	03040000 	movweq	r0, #16384	; 0x4000
    33fc:	0006feb4 			; <UNDEFINED> instruction: 0x0006feb4
    3400:	0d440600 	stcleq	6, cr0, [r4, #-0]
    3404:	b6030000 	strlt	r0, [r3], -r0
    3408:	00000053 	andeq	r0, r0, r3, asr r0
    340c:	001c0404 	andseq	r0, ip, r4, lsl #8
    3410:	000b3806 	andeq	r3, fp, r6, lsl #16
    3414:	53b70300 			; <UNDEFINED> instruction: 0x53b70300
    3418:	04000000 	streq	r0, [r0], #-0
    341c:	06001a02 	streq	r1, [r0], -r2, lsl #20
    3420:	00000fbd 			; <UNDEFINED> instruction: 0x00000fbd
    3424:	0053b803 	subseq	fp, r3, r3, lsl #16
    3428:	02040000 	andeq	r0, r4, #0
    342c:	67060018 	smladvs	r6, r8, r0, r0
    3430:	0300000c 	movweq	r0, #12
    3434:	000053b9 			; <UNDEFINED> instruction: 0x000053b9
    3438:	16020400 	strne	r0, [r2], -r0, lsl #8
    343c:	0d4e0600 	stcleq	6, cr0, [lr, #-0]
    3440:	ba030000 	blt	c3448 <__bss_end+0xc02cc>
    3444:	00000053 	andeq	r0, r0, r3, asr r0
    3448:	00140204 	andseq	r0, r4, r4, lsl #4
    344c:	000c5206 	andeq	r5, ip, r6, lsl #4
    3450:	53bb0300 			; <UNDEFINED> instruction: 0x53bb0300
    3454:	04000000 	streq	r0, [r0], #-0
    3458:	06001202 	streq	r1, [r0], -r2, lsl #4
    345c:	00000d58 	andeq	r0, r0, r8, asr sp
    3460:	0053bc03 	subseq	fp, r3, r3, lsl #24
    3464:	12040000 	andne	r0, r4, #0
    3468:	03000000 	movweq	r0, #0
    346c:	00000f01 	andeq	r0, r0, r1, lsl #30
    3470:	0688bd03 	streq	fp, [r8], r3, lsl #26
    3474:	04050000 	streq	r0, [r5], #-0
    3478:	076cc503 	strbeq	ip, [ip, -r3, lsl #10]!
    347c:	00060000 	andeq	r0, r6, r0
    3480:	03000008 	movweq	r0, #8
    3484:	000053c7 	andeq	r5, r0, r7, asr #7
    3488:	1b050400 	blne	144490 <__bss_end+0x141314>
    348c:	0ff10600 	svceq	0x00f10600
    3490:	c8030000 	stmdagt	r3, {}	; <UNPREDICTABLE>
    3494:	00000053 	andeq	r0, r0, r3, asr r0
    3498:	00100b04 	andseq	r0, r0, r4, lsl #22
    349c:	00080506 	andeq	r0, r8, r6, lsl #10
    34a0:	53c90300 	bicpl	r0, r9, #0, 6
    34a4:	04000000 	streq	r0, [r0], #-0
    34a8:	06000e02 	streq	r0, [r0], -r2, lsl #28
    34ac:	00000d4e 	andeq	r0, r0, lr, asr #26
    34b0:	0053ca03 	subseq	ip, r3, r3, lsl #20
    34b4:	06040000 	streq	r0, [r4], -r0
    34b8:	56060008 	strpl	r0, [r6], -r8
    34bc:	0300000c 	movweq	r0, #12
    34c0:	000053cb 	andeq	r5, r0, fp, asr #7
    34c4:	06020400 	streq	r0, [r2], -r0, lsl #8
    34c8:	0d580600 	ldcleq	6, cr0, [r8, #-0]
    34cc:	cc030000 	stcgt	0, cr0, [r3], {-0}
    34d0:	00000053 	andeq	r0, r0, r3, asr r0
    34d4:	00000604 	andeq	r0, r0, r4, lsl #12
    34d8:	03040700 	movweq	r0, #18176	; 0x4700
    34dc:	00078bc3 	andeq	r8, r7, r3, asr #23
    34e0:	04eb0800 	strbteq	r0, [fp], #2048	; 0x800
    34e4:	c4030000 	strgt	r0, [r3], #-0
    34e8:	00000053 	andeq	r0, r0, r3, asr r0
    34ec:	000ae008 	andeq	lr, sl, r8
    34f0:	09cd0300 	stmibeq	sp, {r8, r9}^
    34f4:	00000007 	andeq	r0, r0, r7
    34f8:	000b7503 	andeq	r7, fp, r3, lsl #10
    34fc:	6cce0300 	stclvs	3, cr0, [lr], {0}
    3500:	09000007 	stmdbeq	r0, {r0, r1, r2}
    3504:	000009ee 	andeq	r0, r0, lr, ror #19
    3508:	c1d00304 	bicsgt	r0, r0, r4, lsl #6
    350c:	06000007 	streq	r0, [r0], -r7
    3510:	00000fb4 			; <UNDEFINED> instruction: 0x00000fb4
    3514:	0053d203 	subseq	sp, r3, r3, lsl #4
    3518:	10040000 	andne	r0, r4, r0
    351c:	f1060010 	cps	#16
    3520:	0300000f 	movweq	r0, #15
    3524:	000053d3 	ldrdeq	r5, [r0], -r3
    3528:	00100400 	andseq	r0, r0, r0, lsl #8
    352c:	47030000 	strmi	r0, [r3, -r0]
    3530:	0300000e 	movweq	r0, #14
    3534:	000796d4 	ldrdeq	r9, [r7], -r4
    3538:	10670a00 	rsbne	r0, r7, r0, lsl #20
    353c:	02dc0000 	sbcseq	r0, ip, #0
    3540:	0e99d603 	cdpeq	6, 9, cr13, cr9, cr3, {0}
    3544:	860b0000 	strhi	r0, [fp], -r0
    3548:	03000009 	movweq	r0, #9
    354c:	000e99d8 	ldrdeq	r9, [lr], -r8
    3550:	440b0000 	strmi	r0, [fp], #-0
    3554:	0300000d 	movweq	r0, #13
    3558:	000e9ed9 	ldrdeq	r9, [lr], -r9	; <UNPREDICTABLE>
    355c:	5f0b0400 	svcpl	0x000b0400
    3560:	03000010 	movweq	r0, #16
    3564:	000ea3da 	ldrdeq	sl, [lr], -sl	; <UNPREDICTABLE>
    3568:	4e0b0800 	cdpmi	8, 0, cr0, cr11, cr0, {0}
    356c:	0300000d 	movweq	r0, #13
    3570:	000e9edb 	ldrdeq	r9, [lr], -fp
    3574:	570b0c00 	strpl	r0, [fp, -r0, lsl #24]
    3578:	0300000b 	movweq	r0, #11
    357c:	000e9edc 	ldrdeq	r9, [lr], -ip
    3580:	580b1000 	stmdapl	fp, {ip}
    3584:	0300000d 	movweq	r0, #13
    3588:	000e9edd 	ldrdeq	r9, [lr], -sp
    358c:	be0b1400 	cfcpyslt	mvf1, mvf11
    3590:	03000005 	movweq	r0, #5
    3594:	000e9ede 	ldrdeq	r9, [lr], -lr
    3598:	620b1800 	andvs	r1, fp, #0, 16
    359c:	0300000d 	movweq	r0, #13
    35a0:	000e9edf 	ldrdeq	r9, [lr], -pc	; <UNPREDICTABLE>
    35a4:	8e0b1c00 	cdphi	12, 0, cr1, cr11, cr0, {0}
    35a8:	0300000c 	movweq	r0, #12
    35ac:	000ea8e0 	andeq	sl, lr, r0, ror #17
    35b0:	6c0b2000 	stcvs	0, cr2, [fp], {-0}
    35b4:	0300000d 	movweq	r0, #13
    35b8:	000e9ee1 	andeq	r9, lr, r1, ror #29
    35bc:	550b2400 	strpl	r2, [fp, #-1024]	; 0xfffffc00
    35c0:	03000005 	movweq	r0, #5
    35c4:	000eade2 	andeq	sl, lr, r2, ror #27
    35c8:	760b2800 	strvc	r2, [fp], -r0, lsl #16
    35cc:	0300000d 	movweq	r0, #13
    35d0:	000e9ee3 	andeq	r9, lr, r3, ror #29
    35d4:	830b2c00 	movwhi	r2, #48128	; 0xbc00
    35d8:	0300000c 	movweq	r0, #12
    35dc:	000e9ee4 	andeq	r9, lr, r4, ror #29
    35e0:	800b3000 	andhi	r3, fp, r0
    35e4:	0300000d 	movweq	r0, #13
    35e8:	000e9ee5 	andeq	r9, lr, r5, ror #29
    35ec:	db0b3400 	blle	2d05f4 <__bss_end+0x2cd478>
    35f0:	03000009 	movweq	r0, #9
    35f4:	000eb2e6 	andeq	fp, lr, r6, ror #5
    35f8:	8a0b3800 	bhi	2d1600 <__bss_end+0x2ce484>
    35fc:	0300000d 	movweq	r0, #13
    3600:	000e9ee7 	andeq	r9, lr, r7, ror #29
    3604:	460b3c00 	strmi	r3, [fp], -r0, lsl #24
    3608:	03000007 	movweq	r0, #7
    360c:	000eb7e8 	andeq	fp, lr, r8, ror #15
    3610:	d10b4000 	mrsle	r4, (UNDEF: 11)
    3614:	03000010 	movweq	r0, #16
    3618:	000e9ee9 	andeq	r9, lr, r9, ror #29
    361c:	b50b4400 	strlt	r4, [fp, #-1024]	; 0xfffffc00
    3620:	03000005 	movweq	r0, #5
    3624:	000e9eea 	andeq	r9, lr, sl, ror #29
    3628:	d60b4800 	strle	r4, [fp], -r0, lsl #16
    362c:	0300000c 	movweq	r0, #12
    3630:	000e9eeb 	andeq	r9, lr, fp, ror #29
    3634:	5f0b4c00 	svcpl	0x000b4c00
    3638:	0300000b 	movweq	r0, #11
    363c:	000ebcec 	andeq	fp, lr, ip, ror #25
    3640:	380b5000 	stmdacc	fp, {ip, lr}
    3644:	0300000b 	movweq	r0, #11
    3648:	000ec1ed 	andeq	ip, lr, sp, ror #3
    364c:	690b5400 	stmdbvs	fp, {sl, ip, lr}
    3650:	03000007 	movweq	r0, #7
    3654:	000ec6ee 	andeq	ip, lr, lr, ror #13
    3658:	400b5800 	andmi	r5, fp, r0, lsl #16
    365c:	0300000f 	movweq	r0, #15
    3660:	000e9eef 	andeq	r9, lr, pc, ror #29
    3664:	210b5c00 	tstcs	fp, r0, lsl #24
    3668:	0300000e 	movweq	r0, #14
    366c:	000e9ef0 	strdeq	r9, [lr], -r0
    3670:	370b6000 	strcc	r6, [fp, -r0]
    3674:	0300000e 	movweq	r0, #14
    3678:	000e9ef1 	strdeq	r9, [lr], -r1
    367c:	040b6400 	streq	r6, [fp], #-1024	; 0xfffffc00
    3680:	03000010 	movweq	r0, #16
    3684:	000e9ef2 	strdeq	r9, [lr], -r2
    3688:	e60b6800 	str	r6, [fp], -r0, lsl #16
    368c:	0300000b 	movweq	r0, #11
    3690:	000e9ef3 	strdeq	r9, [lr], -r3
    3694:	940b6c00 	strls	r6, [fp], #-3072	; 0xfffff400
    3698:	0300000d 	movweq	r0, #13
    369c:	000ee2f4 	strdeq	lr, [lr], -r4
    36a0:	8f0b7000 	svchi	0x000b7000
    36a4:	03000010 	movweq	r0, #16
    36a8:	000e9ef5 	strdeq	r9, [lr], -r5
    36ac:	0d0b8000 	stceq	0, cr8, [fp, #-0]
    36b0:	03000010 	movweq	r0, #16
    36b4:	000e9ef6 	strdeq	r9, [lr], -r6
    36b8:	530c8400 	movwpl	r8, #50176	; 0xc400
    36bc:	03003064 	movweq	r3, #100	; 0x64
    36c0:	000e9ef7 	strdeq	r9, [lr], -r7
    36c4:	530c8800 	movwpl	r8, #51200	; 0xc800
    36c8:	03003164 	movweq	r3, #356	; 0x164
    36cc:	000e9ef8 	strdeq	r9, [lr], -r8
    36d0:	530c8c00 	movwpl	r8, #52224	; 0xcc00
    36d4:	03003264 	movweq	r3, #612	; 0x264
    36d8:	000e9ef9 	strdeq	r9, [lr], -r9	; <UNPREDICTABLE>
    36dc:	180b9000 	stmdane	fp, {ip, pc}
    36e0:	03000010 	movweq	r0, #16
    36e4:	000ef7fa 	strdeq	pc, [lr], -sl
    36e8:	530c9400 	movwpl	r9, #50176	; 0xc400
    36ec:	fb030073 	blx	c38c2 <__bss_end+0xc0746>
    36f0:	00000e9e 	muleq	r0, lr, lr
    36f4:	0e170b9c 	vmoveq.32	r0, d23[0]
    36f8:	fc030000 	stc2	0, cr0, [r3], {-0}
    36fc:	00000e9e 	muleq	r0, lr, lr
    3700:	0e1c0ba0 	vnmlseq.f64	d0, d28, d16
    3704:	fd030000 	stc2	0, cr0, [r3, #-0]
    3708:	00000e9e 	muleq	r0, lr, lr
    370c:	10230ba4 	eorne	r0, r3, r4, lsr #23
    3710:	fe030000 	cdp2	0, 0, cr0, cr3, cr0, {0}
    3714:	00000efc 	strdeq	r0, [r0], -ip
    3718:	05ab0ba8 	streq	r0, [fp, #2984]!	; 0xba8
    371c:	ff030000 			; <UNDEFINED> instruction: 0xff030000
    3720:	00000e9e 	muleq	r0, lr, lr
    3724:	05b00db0 	ldreq	r0, [r0, #3504]!	; 0xdb0
    3728:	00030000 	andeq	r0, r3, r0
    372c:	000e9e01 	andeq	r9, lr, r1, lsl #28
    3730:	e30db400 	movw	fp, #54272	; 0xd400
    3734:	03000009 	movweq	r0, #9
    3738:	0f010101 	svceq	0x00010101
    373c:	0db80000 	ldceq	0, cr0, [r8]
    3740:	00000e7e 	andeq	r0, r0, lr, ror lr
    3744:	9e010203 	cdpls	2, 0, cr0, cr1, cr3, {0}
    3748:	c000000e 	andgt	r0, r0, lr
    374c:	000b140d 	andeq	r1, fp, sp, lsl #8
    3750:	01030300 	mrseq	r0, SP_svc
    3754:	00000f06 	andeq	r0, r0, r6, lsl #30
    3758:	73550ec4 	cmpvc	r5, #196, 28	; 0xc40
    375c:	04030062 	streq	r0, [r3], #-98	; 0xffffff9e
    3760:	000e9e01 	andeq	r9, lr, r1, lsl #28
    3764:	6b0dcc00 	blvs	37676c <__bss_end+0x3735f0>
    3768:	0300000f 	movweq	r0, #15
    376c:	0e9e0105 	fmleqe	f0, f6, f5
    3770:	0dd00000 	ldcleq	0, cr0, [r0]
    3774:	00000a05 	andeq	r0, r0, r5, lsl #20
    3778:	1b010603 	blne	44f8c <__bss_end+0x41e10>
    377c:	d400000f 	strle	r0, [r0], #-15
    3780:	0010530d 	andseq	r5, r0, sp, lsl #6
    3784:	01070300 	mrseq	r0, SP_und
    3788:	00000e9e 	muleq	r0, lr, lr
    378c:	0ef90df0 	mrceq	13, 7, r0, cr9, cr0, {7}
    3790:	08030000 	stmdaeq	r3, {}	; <UNPREDICTABLE>
    3794:	000e9e01 	andeq	r9, lr, r1, lsl #28
    3798:	420df400 	andmi	pc, sp, #0, 8
    379c:	0300000a 	movweq	r0, #10
    37a0:	0e9e0109 	fmleqe	f0, f6, #1.0
    37a4:	0df80000 	ldcleq	0, cr0, [r8]
    37a8:	00000b91 	muleq	r0, r1, fp
    37ac:	9e010a03 	vmlals.f32	s0, s2, s6
    37b0:	fc00000e 	stc2	0, cr0, [r0], {14}
    37b4:	000c490f 	andeq	r4, ip, pc, lsl #18
    37b8:	010b0300 	mrseq	r0, (UNDEF: 59)
    37bc:	00000e9e 	muleq	r0, lr, lr
    37c0:	42100100 	andsmi	r0, r0, #0, 2
    37c4:	03003065 	movweq	r3, #101	; 0x65
    37c8:	0e9e010c 	fmleqe	f0, f6, #4.0
    37cc:	01040000 	mrseq	r0, (UNDEF: 4)
    37d0:	000b4b0f 	andeq	r4, fp, pc, lsl #22
    37d4:	010d0300 	mrseq	r0, SP_mon
    37d8:	00000e9e 	muleq	r0, lr, lr
    37dc:	46100108 	ldrmi	r0, [r0], -r8, lsl #2
    37e0:	03003065 	movweq	r3, #101	; 0x65
    37e4:	0e9e010e 	fmleqe	f0, f6, #0.5
    37e8:	010c0000 	mrseq	r0, (UNDEF: 12)
    37ec:	0004b50f 	andeq	fp, r4, pc, lsl #10
    37f0:	010f0300 	mrseq	r0, SP_hyp
    37f4:	00000e9e 	muleq	r0, lr, lr
    37f8:	c10f0110 	tstgt	pc, r0, lsl r1	; <UNPREDICTABLE>
    37fc:	03000004 	movweq	r0, #4
    3800:	0e9e0110 	mrceq	1, 4, r0, cr14, cr0, {0}
    3804:	01140000 	tsteq	r4, r0
    3808:	00052a0f 	andeq	r2, r5, pc, lsl #20
    380c:	01110300 	tsteq	r1, r0, lsl #6
    3810:	00000e9e 	muleq	r0, lr, lr
    3814:	cd0f0118 	stfgts	f0, [pc, #-96]	; 37bc <__bss_end+0x640>
    3818:	03000004 	movweq	r0, #4
    381c:	0e9e0112 	mrceq	1, 4, r0, cr14, cr2, {0}
    3820:	011c0000 	tsteq	ip, r0
    3824:	000a160f 	andeq	r1, sl, pc, lsl #12
    3828:	01130300 	tsteq	r3, r0, lsl #6
    382c:	00000f30 	andeq	r0, r0, r0, lsr pc
    3830:	320f0120 	andcc	r0, pc, #32, 2
    3834:	03000005 	movweq	r0, #5
    3838:	0e9e0114 	mrceq	1, 4, r0, cr14, cr4, {0}
    383c:	012c0000 			; <UNDEFINED> instruction: 0x012c0000
    3840:	00056a0f 	andeq	r6, r5, pc, lsl #20
    3844:	01150300 	tsteq	r5, r0, lsl #6
    3848:	00000e9e 	muleq	r0, lr, lr
    384c:	c40f0130 	strgt	r0, [pc], #-304	; 3854 <__bss_end+0x6d8>
    3850:	0300000d 	movweq	r0, #13
    3854:	0e9e0116 	mrceq	1, 4, r0, cr14, cr6, {0}
    3858:	01340000 	teqeq	r4, r0
    385c:	0005760f 	andeq	r7, r5, pc, lsl #12
    3860:	01170300 	tsteq	r7, r0, lsl #6
    3864:	00000e9e 	muleq	r0, lr, lr
    3868:	56100138 			; <UNDEFINED> instruction: 0x56100138
    386c:	18030065 	stmdane	r3, {r0, r2, r5, r6}
    3870:	000e9e01 	andeq	r9, lr, r1, lsl #28
    3874:	0f013c00 	svceq	0x00013c00
    3878:	0000098e 	andeq	r0, r0, lr, lsl #19
    387c:	9e011903 	cdpls	9, 0, cr1, cr1, cr3, {0}
    3880:	4000000e 	andmi	r0, r0, lr
    3884:	76411001 	strbvc	r1, [r1], -r1
    3888:	1a030073 	bne	c3a5c <__bss_end+0xc08e0>
    388c:	000e9e01 	andeq	r9, lr, r1, lsl #28
    3890:	0f014400 	svceq	0x00014400
    3894:	00000582 	andeq	r0, r0, r2, lsl #11
    3898:	9e011b03 	vmlals.f64	d1, d1, d3
    389c:	4800000e 	stmdami	r0, {r1, r2, r3}
    38a0:	0a210f01 	beq	8474ac <__bss_end+0x844330>
    38a4:	1c030000 	stcne	0, cr0, [r3], {-0}
    38a8:	000e9e01 	andeq	r9, lr, r1, lsl #28
    38ac:	0f014c00 	svceq	0x00014c00
    38b0:	00000665 	andeq	r0, r0, r5, ror #12
    38b4:	9e011d03 	cdpls	13, 0, cr1, cr1, cr3, {0}
    38b8:	5000000e 	andpl	r0, r0, lr
    38bc:	06710f01 	ldrbteq	r0, [r1], -r1, lsl #30
    38c0:	1e030000 	cdpne	0, 0, cr0, cr3, cr0, {0}
    38c4:	000e9e01 	andeq	r9, lr, r1, lsl #28
    38c8:	0f015400 	svceq	0x00015400
    38cc:	0000067d 	andeq	r0, r0, sp, ror r6
    38d0:	9e011f03 	cdpls	15, 0, cr1, cr1, cr3, {0}
    38d4:	5800000e 	stmdapl	r0, {r1, r2, r3}
    38d8:	06e50f01 	strbteq	r0, [r5], r1, lsl #30
    38dc:	20030000 	andcs	r0, r3, r0
    38e0:	000e9e01 	andeq	r9, lr, r1, lsl #28
    38e4:	0f015c00 	svceq	0x00015c00
    38e8:	00000689 	andeq	r0, r0, r9, lsl #13
    38ec:	9e012103 	adflss	f2, f1, f3
    38f0:	6000000e 	andvs	r0, r0, lr
    38f4:	0a2c0f01 	beq	b07500 <__bss_end+0xb04384>
    38f8:	22030000 	andcs	r0, r3, #0
    38fc:	000e9e01 	andeq	r9, lr, r1, lsl #28
    3900:	0f016400 	svceq	0x00016400
    3904:	000005f3 	strdeq	r0, [r0], -r3
    3908:	9e012303 	cdpls	3, 0, cr2, cr1, cr3, {0}
    390c:	6800000e 	stmdavs	r0, {r1, r2, r3}
    3910:	0fa80f01 	svceq	0x00a80f01
    3914:	24030000 	strcs	r0, [r3], #-0
    3918:	000e9e01 	andeq	r9, lr, r1, lsl #28
    391c:	0f016c00 	svceq	0x00016c00
    3920:	00000a37 	andeq	r0, r0, r7, lsr sl
    3924:	35012503 	strcc	r2, [r1, #-1283]	; 0xfffffafd
    3928:	7000000f 	andvc	r0, r0, pc
    392c:	08bc0f01 	ldmeq	ip!, {r0, r8, r9, sl, fp}
    3930:	26030000 	strcs	r0, [r3], -r0
    3934:	000e9e01 	andeq	r9, lr, r1, lsl #28
    3938:	0f018000 	svceq	0x00018000
    393c:	0000086b 	andeq	r0, r0, fp, ror #16
    3940:	9e012703 	cdpls	7, 0, cr2, cr1, cr3, {0}
    3944:	8400000e 	strhi	r0, [r0], #-14
    3948:	08770f01 	ldmdaeq	r7!, {r0, r8, r9, sl, fp}^
    394c:	28030000 	stmdacs	r3, {}	; <UNPREDICTABLE>
    3950:	000e9e01 	andeq	r9, lr, r1, lsl #28
    3954:	0f018800 	svceq	0x00018800
    3958:	00000883 	andeq	r0, r0, r3, lsl #17
    395c:	9e012903 	cdpls	9, 0, cr2, cr1, cr3, {0}
    3960:	8c00000e 	stchi	0, cr0, [r0], {14}
    3964:	0b400f01 	bleq	1007570 <__bss_end+0x10043f4>
    3968:	2a030000 	bcs	c3970 <__bss_end+0xc07f4>
    396c:	000f3a01 	andeq	r3, pc, r1, lsl #20
    3970:	0f019000 	svceq	0x00019000
    3974:	000008b4 			; <UNDEFINED> instruction: 0x000008b4
    3978:	9e012b03 	vmlals.f64	d2, d1, d3
    397c:	a000000e 	andge	r0, r0, lr
    3980:	07e30f01 	strbeq	r0, [r3, r1, lsl #30]!
    3984:	2c030000 	stccs	0, cr0, [r3], {-0}
    3988:	000e9e01 	andeq	r9, lr, r1, lsl #28
    398c:	0f01a400 	svceq	0x0001a400
    3990:	00000b9e 	muleq	r0, lr, fp
    3994:	9e012d03 	cdpls	13, 0, cr2, cr1, cr3, {0}
    3998:	a800000e 	stmdage	r0, {r1, r2, r3}
    399c:	090c0f01 	stmdbeq	ip, {r0, r8, r9, sl, fp}
    39a0:	2e030000 	cdpcs	0, 0, cr0, cr3, cr0, {0}
    39a4:	000e9e01 	andeq	r9, lr, r1, lsl #28
    39a8:	1001ac00 	andne	sl, r1, r0, lsl #24
    39ac:	00737441 	rsbseq	r7, r3, r1, asr #8
    39b0:	9e012f03 	cdpls	15, 0, cr2, cr1, cr3, {0}
    39b4:	b000000e 	andlt	r0, r0, lr
    39b8:	0a4c0f01 	beq	13075c4 <__bss_end+0x1304448>
    39bc:	30030000 	andcc	r0, r3, r0
    39c0:	000f4f01 	andeq	r4, pc, r1, lsl #30
    39c4:	0f01b400 	svceq	0x0001b400
    39c8:	0000088f 	andeq	r0, r0, pc, lsl #17
    39cc:	54013103 	strpl	r3, [r1], #-259	; 0xfffffefd
    39d0:	0000000f 	andeq	r0, r0, pc
    39d4:	0c070f02 	stceq	15, cr0, [r7], {2}
    39d8:	32030000 	andcc	r0, r3, #0
    39dc:	000e9e01 	andeq	r9, lr, r1, lsl #28
    39e0:	0f020400 	svceq	0x00020400
    39e4:	00000fe5 	andeq	r0, r0, r5, ror #31
    39e8:	69013303 	stmdbvs	r1, {r0, r1, r8, r9, ip, sp}
    39ec:	0800000f 	stmdaeq	r0, {r0, r1, r2, r3}
    39f0:	0ab40f02 	beq	fed07600 <__bss_end+0xfed04484>
    39f4:	34030000 	strcc	r0, [r3], #-0
    39f8:	000f7e01 	andeq	r7, pc, r1, lsl #28
    39fc:	0f022000 	svceq	0x00022000
    3a00:	00000640 	andeq	r0, r0, r0, asr #12
    3a04:	9e013503 	cfsh32ls	mvfx3, mvfx1, #3
    3a08:	2400000e 	strcs	r0, [r0], #-14
    3a0c:	09700f02 	ldmdbeq	r0!, {r1, r8, r9, sl, fp}^
    3a10:	36030000 	strcc	r0, [r3], -r0
    3a14:	000e9e01 	andeq	r9, lr, r1, lsl #28
    3a18:	0f022800 	svceq	0x00022800
    3a1c:	00000afb 	strdeq	r0, [r0], -fp
    3a20:	9e013703 	cdpls	7, 0, cr3, cr1, cr3, {0}
    3a24:	2c00000e 	stccs	0, cr0, [r0], {14}
    3a28:	0c100f02 	ldceq	15, cr0, [r0], {2}
    3a2c:	38030000 	stmdacc	r3, {}	; <UNPREDICTABLE>
    3a30:	000e9e01 	andeq	r9, lr, r1, lsl #28
    3a34:	0f023000 	svceq	0x00023000
    3a38:	00000e60 	andeq	r0, r0, r0, ror #28
    3a3c:	9e013903 	cdpls	9, 0, cr3, cr1, cr3, {0}
    3a40:	3400000e 	strcc	r0, [r0], #-14
    3a44:	07790f02 	ldrbeq	r0, [r9, -r2, lsl #30]!
    3a48:	3a030000 	bcc	c3a50 <__bss_end+0xc08d4>
    3a4c:	000e9e01 	andeq	r9, lr, r1, lsl #28
    3a50:	0f023800 	svceq	0x00023800
    3a54:	000007b5 			; <UNDEFINED> instruction: 0x000007b5
    3a58:	9e013b03 	vmlals.f64	d3, d1, d3
    3a5c:	3c00000e 	stccc	0, cr0, [r0], {14}
    3a60:	0abd0f02 	beq	fef47670 <__bss_end+0xfef444f4>
    3a64:	3c030000 	stccc	0, cr0, [r3], {-0}
    3a68:	000e9e01 	andeq	r9, lr, r1, lsl #28
    3a6c:	0f024000 	svceq	0x00024000
    3a70:	000006bb 			; <UNDEFINED> instruction: 0x000006bb
    3a74:	9e013d03 	cdpls	13, 0, cr3, cr1, cr3, {0}
    3a78:	4400000e 	strmi	r0, [r0], #-14
    3a7c:	0c5d0f02 	mrrceq	15, 0, r0, sp, cr2
    3a80:	3e030000 	cdpcc	0, 0, cr0, cr3, cr0, {0}
    3a84:	000e9e01 	andeq	r9, lr, r1, lsl #28
    3a88:	0f024800 	svceq	0x00024800
    3a8c:	00000eca 	andeq	r0, r0, sl, asr #29
    3a90:	9e013f03 	cdpls	15, 0, cr3, cr1, cr3, {0}
    3a94:	4c00000e 	stcmi	0, cr0, [r0], {14}
    3a98:	06dd0f02 	ldrbeq	r0, [sp], r2, lsl #30
    3a9c:	40030000 	andmi	r0, r3, r0
    3aa0:	000e9e01 	andeq	r9, lr, r1, lsl #28
    3aa4:	0f025000 	svceq	0x00025000
    3aa8:	00000785 	andeq	r0, r0, r5, lsl #15
    3aac:	83014103 	movwhi	r4, #4355	; 0x1103
    3ab0:	5400000f 	strpl	r0, [r0], #-15
    3ab4:	0b050f02 	bleq	1476c4 <__bss_end+0x144548>
    3ab8:	42030000 	andmi	r0, r3, #0
    3abc:	000e9e01 	andeq	r9, lr, r1, lsl #28
    3ac0:	0f026000 	svceq	0x00026000
    3ac4:	00000791 	muleq	r0, r1, r7
    3ac8:	88014303 	stmdahi	r1, {r0, r1, r8, r9, lr}
    3acc:	6400000f 	strvs	r0, [r0], #-15
    3ad0:	0ad50f02 	beq	ff5476e0 <__bss_end+0xff544564>
    3ad4:	44030000 	strmi	r0, [r3], #-0
    3ad8:	000e9e01 	andeq	r9, lr, r1, lsl #28
    3adc:	0f027000 	svceq	0x00027000
    3ae0:	0000079d 	muleq	r0, sp, r7
    3ae4:	8d014503 	cfstr32hi	mvfx4, [r1, #-12]
    3ae8:	7400000f 	strvc	r0, [r0], #-15
    3aec:	0ac90f02 	beq	ff2476fc <__bss_end+0xff244580>
    3af0:	46030000 	strmi	r0, [r3], -r0
    3af4:	000e9e01 	andeq	r9, lr, r1, lsl #28
    3af8:	0f028000 	svceq	0x00028000
    3afc:	00000e00 	andeq	r0, r0, r0, lsl #28
    3b00:	9e014703 	cdpls	7, 0, cr4, cr1, cr3, {0}
    3b04:	8400000e 	strhi	r0, [r0], #-14
    3b08:	0fc80f02 	svceq	0x00c80f02
    3b0c:	48030000 	stmdami	r3, {}	; <UNPREDICTABLE>
    3b10:	000e9e01 	andeq	r9, lr, r1, lsl #28
    3b14:	0f028800 	svceq	0x00028800
    3b18:	00000fd8 	ldrdeq	r0, [r0], -r8
    3b1c:	9e014903 	cdpls	9, 0, cr4, cr1, cr3, {0}
    3b20:	8c00000e 	stchi	0, cr0, [r0], {14}
    3b24:	045b0f02 	ldrbeq	r0, [fp], #-3842	; 0xfffff0fe
    3b28:	4a030000 	bmi	c3b30 <__bss_end+0xc09b4>
    3b2c:	000e9e01 	andeq	r9, lr, r1, lsl #28
    3b30:	0f029000 	svceq	0x00029000
    3b34:	00000e2a 	andeq	r0, r0, sl, lsr #28
    3b38:	92014b03 	andls	r4, r1, #3072	; 0xc00
    3b3c:	9400000f 	strls	r0, [r0], #-15
    3b40:	07ea0f02 	strbeq	r0, [sl, r2, lsl #30]!
    3b44:	4c030000 	stcmi	0, cr0, [r3], {-0}
    3b48:	000e9e01 	andeq	r9, lr, r1, lsl #28
    3b4c:	0f029c00 	svceq	0x00029c00
    3b50:	00000a60 	andeq	r0, r0, r0, ror #20
    3b54:	9e014d03 	cdpls	13, 0, cr4, cr1, cr3, {0}
    3b58:	a000000e 	andge	r0, r0, lr
    3b5c:	06950f02 	ldreq	r0, [r5], r2, lsl #30
    3b60:	4e030000 	cdpmi	0, 0, cr0, cr3, cr0, {0}
    3b64:	000e9e01 	andeq	r9, lr, r1, lsl #28
    3b68:	0f02a400 	svceq	0x0002a400
    3b6c:	00000daa 	andeq	r0, r0, sl, lsr #27
    3b70:	9e014f03 	cdpls	15, 0, cr4, cr1, cr3, {0}
    3b74:	a800000e 	stmdage	r0, {r1, r2, r3}
    3b78:	0f800f02 	svceq	0x00800f02
    3b7c:	50030000 	andpl	r0, r3, r0
    3b80:	000e9e01 	andeq	r9, lr, r1, lsl #28
    3b84:	0f02ac00 	svceq	0x0002ac00
    3b88:	00000f94 	muleq	r0, r4, pc	; <UNPREDICTABLE>
    3b8c:	9e015103 	adflss	f5, f1, f3
    3b90:	b000000e 	andlt	r0, r0, lr
    3b94:	07a90f02 	streq	r0, [r9, r2, lsl #30]!
    3b98:	52030000 	andpl	r0, r3, #0
    3b9c:	000f9701 	andeq	r9, pc, r1, lsl #14
    3ba0:	0f02b400 	svceq	0x0002b400
    3ba4:	00000bac 	andeq	r0, r0, ip, lsr #23
    3ba8:	9e015303 	cdpls	3, 0, cr5, cr1, cr3, {0}
    3bac:	c000000e 	andgt	r0, r0, lr
    3bb0:	0bb60f02 	bleq	fed877c0 <__bss_end+0xfed84644>
    3bb4:	54030000 	strpl	r0, [r3], #-0
    3bb8:	000e9e01 	andeq	r9, lr, r1, lsl #28
    3bbc:	0f02c400 	svceq	0x0002c400
    3bc0:	00000bc0 	andeq	r0, r0, r0, asr #23
    3bc4:	9e015503 	cfsh32ls	mvfx5, mvfx1, #3
    3bc8:	c800000e 	stmdagt	r0, {r1, r2, r3}
    3bcc:	0ae50f02 	beq	ff9477dc <__bss_end+0xff944660>
    3bd0:	56030000 	strpl	r0, [r3], -r0
    3bd4:	000e9e01 	andeq	r9, lr, r1, lsl #28
    3bd8:	0f02cc00 	svceq	0x0002cc00
    3bdc:	00000d20 	andeq	r0, r0, r0, lsr #26
    3be0:	9e015703 	cdpls	7, 0, cr5, cr1, cr3, {0}
    3be4:	d000000e 	andle	r0, r0, lr
    3be8:	0af00f02 	beq	ffc077f8 <__bss_end+0xffc0467c>
    3bec:	58030000 	stmdapl	r3, {}	; <UNPREDICTABLE>
    3bf0:	000e9e01 	andeq	r9, lr, r1, lsl #28
    3bf4:	0f02d400 	svceq	0x0002d400
    3bf8:	0000083a 	andeq	r0, r0, sl, lsr r8
    3bfc:	9e015903 	cdpls	9, 0, cr5, cr1, cr3, {0}
    3c00:	d800000e 	stmdale	r0, {r1, r2, r3}
    3c04:	5e110002 	cdppl	0, 1, cr0, cr1, cr2, {0}
    3c08:	11000001 	tstne	r0, r1
    3c0c:	00000053 	andeq	r0, r0, r3, asr r0
    3c10:	00021b11 	andeq	r1, r2, r1, lsl fp
    3c14:	02f61100 	rscseq	r1, r6, #0, 2
    3c18:	ef110000 	svc	0x00110000
    3c1c:	11000003 	tstne	r0, r3
    3c20:	000004bb 			; <UNDEFINED> instruction: 0x000004bb
    3c24:	0005f011 	andeq	pc, r5, r1, lsl r0	; <UNPREDICTABLE>
    3c28:	067d1100 	ldrbteq	r1, [sp], -r0, lsl #2
    3c2c:	fe110000 	cdp2	0, 1, cr0, cr1, cr0, {0}
    3c30:	11000006 	tstne	r0, r6
    3c34:	0000078b 	andeq	r0, r0, fp, lsl #15
    3c38:	00005312 	andeq	r5, r0, r2, lsl r3
    3c3c:	000edb00 	andeq	sp, lr, r0, lsl #22
    3c40:	0edb1300 	cdpeq	3, 13, cr1, cr11, cr0, {0}
    3c44:	00030000 	andeq	r0, r3, r0
    3c48:	38070402 	stmdacc	r7, {r1, sl}
    3c4c:	11000002 	tstne	r0, r2
    3c50:	00000ecb 	andeq	r0, r0, fp, asr #29
    3c54:	00005312 	andeq	r5, r0, r2, lsl r3
    3c58:	000ef700 	andeq	pc, lr, r0, lsl #14
    3c5c:	0edb1300 	cdpeq	3, 13, cr1, cr11, cr0, {0}
    3c60:	00010000 	andeq	r0, r1, r0
    3c64:	000ee711 	andeq	lr, lr, r1, lsl r7
    3c68:	0ee71100 	cdpeq	1, 14, cr1, cr7, cr0, {0}
    3c6c:	e7110000 	ldr	r0, [r1, -r0]
    3c70:	1100000e 	tstne	r0, lr
    3c74:	00000ee7 	andeq	r0, r0, r7, ror #29
    3c78:	00005312 	andeq	r5, r0, r2, lsl r3
    3c7c:	000f1b00 	andeq	r1, pc, r0, lsl #22
    3c80:	0edb1300 	cdpeq	3, 13, cr1, cr11, cr0, {0}
    3c84:	00060000 	andeq	r0, r6, r0
    3c88:	000f0b11 	andeq	r0, pc, r1, lsl fp	; <UNPREDICTABLE>
    3c8c:	00531200 	subseq	r1, r3, r0, lsl #4
    3c90:	0f300000 	svceq	0x00300000
    3c94:	db130000 	blle	4c3c9c <__bss_end+0x4c0b20>
    3c98:	0200000e 	andeq	r0, r0, #14
    3c9c:	0f201100 	svceq	0x00201100
    3ca0:	cb110000 	blgt	443ca8 <__bss_end+0x440b2c>
    3ca4:	1100000e 	tstne	r0, lr
    3ca8:	00000ecb 	andeq	r0, r0, fp, asr #29
    3cac:	00005312 	andeq	r5, r0, r2, lsl r3
    3cb0:	000f4f00 	andeq	r4, pc, r0, lsl #30
    3cb4:	0edb1300 	cdpeq	3, 13, cr1, cr11, cr0, {0}
    3cb8:	00120000 	andseq	r0, r2, r0
    3cbc:	000f3f11 	andeq	r3, pc, r1, lsl pc	; <UNPREDICTABLE>
    3cc0:	07c11100 	strbeq	r1, [r1, r0, lsl #2]
    3cc4:	53120000 	tstpl	r2, #0
    3cc8:	69000000 	stmdbvs	r0, {}	; <UNPREDICTABLE>
    3ccc:	1300000f 	movwne	r0, #15
    3cd0:	00000edb 	ldrdeq	r0, [r0], -fp
    3cd4:	59110005 	ldmdbpl	r1, {r0, r2}
    3cd8:	1200000f 	andne	r0, r0, #15
    3cdc:	00000053 	andeq	r0, r0, r3, asr r0
    3ce0:	00000f7e 	andeq	r0, r0, lr, ror pc
    3ce4:	000edb13 	andeq	sp, lr, r3, lsl fp
    3ce8:	11000000 	mrsne	r0, (UNDEF: 0)
    3cec:	00000f6e 	andeq	r0, r0, lr, ror #30
    3cf0:	000f2011 	andeq	r2, pc, r1, lsl r0	; <UNPREDICTABLE>
    3cf4:	0f201100 	svceq	0x00201100
    3cf8:	20110000 	andscs	r0, r1, r0
    3cfc:	1100000f 	tstne	r0, pc
    3d00:	00000ee7 	andeq	r0, r0, r7, ror #29
    3d04:	000f2011 	andeq	r2, pc, r1, lsl r0	; <UNPREDICTABLE>
    3d08:	0ead1400 	cdpeq	4, 10, cr1, cr13, cr0, {0}
    3d0c:	5a030000 	bpl	c3d14 <__bss_end+0xc0b98>
    3d10:	0007cc01 	andeq	ip, r7, r1, lsl #24
    3d14:	9c041500 	cfstr32ls	mvfx1, [r4], {-0}
    3d18:	1600000f 	strne	r0, [r0], -pc
    3d1c:	000001da 	ldrdeq	r0, [r0], -sl
    3d20:	00005e04 	andeq	r5, r0, r4, lsl #28
    3d24:	3d890600 	stccc	6, cr0, [r9]
    3d28:	17000010 	smladne	r0, r0, r0, r0
    3d2c:	000000d4 	ldrdeq	r0, [r0], -r4
    3d30:	01291700 			; <UNDEFINED> instruction: 0x01291700
    3d34:	17010000 	strne	r0, [r1, -r0]
    3d38:	000000e1 	andeq	r0, r0, r1, ror #1
    3d3c:	01061702 	tsteq	r6, r2, lsl #14
    3d40:	17030000 	strne	r0, [r3, -r0]
    3d44:	0000025c 	andeq	r0, r0, ip, asr r2
    3d48:	01a11704 			; <UNDEFINED> instruction: 0x01a11704
    3d4c:	17050000 	strne	r0, [r5, -r0]
    3d50:	00000189 	andeq	r0, r0, r9, lsl #3
    3d54:	01c41706 	biceq	r1, r4, r6, lsl #14
    3d58:	17070000 	strne	r0, [r7, -r0]
    3d5c:	000000c8 	andeq	r0, r0, r8, asr #1
    3d60:	00fb1708 	rscseq	r1, fp, r8, lsl #14
    3d64:	17090000 	strne	r0, [r9, -r0]
    3d68:	00000196 	muleq	r0, r6, r1
    3d6c:	0276170a 	rsbseq	r1, r6, #2621440	; 0x280000
    3d70:	170b0000 	strne	r0, [fp, -r0]
    3d74:	000001d4 	ldrdeq	r0, [r0], -r4
    3d78:	02e6170c 	rsceq	r1, r6, #12, 14	; 0x300000
    3d7c:	170d0000 	strne	r0, [sp, -r0]
    3d80:	00000331 	andeq	r0, r0, r1, lsr r3
    3d84:	0268170e 	rsbeq	r1, r8, #3670016	; 0x380000
    3d88:	170f0000 	strne	r0, [pc, -r0]
    3d8c:	00000301 	andeq	r0, r0, r1, lsl #6
    3d90:	024f1710 	subeq	r1, pc, #16, 14	; 0x400000
    3d94:	17110000 	ldrne	r0, [r1, -r0]
    3d98:	0000031b 	andeq	r0, r0, fp, lsl r3
    3d9c:	00ee1712 	rsceq	r1, lr, r2, lsl r7
    3da0:	17130000 	ldrne	r0, [r3, -r0]
    3da4:	000002d8 	ldrdeq	r0, [r0], -r8
    3da8:	01020014 	tsteq	r2, r4, lsl r0
    3dac:	00011b08 	andeq	r1, r1, r8, lsl #22
    3db0:	07040200 	streq	r0, [r4, -r0, lsl #4]
    3db4:	000001b2 			; <UNDEFINED> instruction: 0x000001b2
    3db8:	00164318 	andseq	r4, r6, r8, lsl r3
    3dbc:	01240100 			; <UNDEFINED> instruction: 0x01240100
    3dc0:	00109301 	andseq	r9, r0, r1, lsl #6
    3dc4:	16f91900 	ldrbtne	r1, [r9], r0, lsl #18
    3dc8:	24010000 	strcs	r0, [r1], #-0
    3dcc:	00005301 	andeq	r5, r0, r1, lsl #6
    3dd0:	16c21900 	strbne	r1, [r2], r0, lsl #18
    3dd4:	24010000 	strcs	r0, [r1], #-0
    3dd8:	00005301 	andeq	r5, r0, r1, lsl #6
    3ddc:	17a21a00 	strne	r1, [r2, r0, lsl #20]!
    3de0:	26010000 	strcs	r0, [r1], -r0
    3de4:	00005301 	andeq	r5, r0, r1, lsl #6
    3de8:	00691b00 	rsbeq	r1, r9, r0, lsl #22
    3dec:	53012701 	movwpl	r2, #5889	; 0x1701
    3df0:	1b000000 	blne	3df8 <__bss_end+0xc7c>
    3df4:	00676572 	rsbeq	r6, r7, r2, ror r5
    3df8:	93012801 	movwls	r2, #6145	; 0x1801
    3dfc:	00000010 	andeq	r0, r0, r0, lsl r0
    3e00:	10990415 	addsne	r0, r9, r5, lsl r4
    3e04:	5e110000 	cdppl	0, 1, cr0, cr1, cr0, {0}
    3e08:	1c000000 	stcne	0, cr0, [r0], {-0}
    3e0c:	00001634 	andeq	r1, r0, r4, lsr r6
    3e10:	00531b01 	subseq	r1, r3, r1, lsl #22
    3e14:	05010000 	streq	r0, [r1, #-0]
    3e18:	1d000011 	stcne	0, cr0, [r0, #-68]	; 0xffffffbc
    3e1c:	000016f9 	strdeq	r1, [r0], -r9
    3e20:	00531b01 	subseq	r1, r3, r1, lsl #22
    3e24:	911e0000 	tstls	lr, r0
    3e28:	01000016 	tsteq	r0, r6, lsl r0
    3e2c:	0000531d 	andeq	r5, r0, sp, lsl r3
    3e30:	16b51e00 	ldrtne	r1, [r5], r0, lsl #28
    3e34:	1e010000 	cdpne	0, 0, cr0, cr1, cr0, {0}
    3e38:	00000053 	andeq	r0, r0, r3, asr r0
    3e3c:	6765721f 			; <UNDEFINED> instruction: 0x6765721f
    3e40:	93200100 	nopls	{0}	; <UNPREDICTABLE>
    3e44:	1e000010 	mcrne	0, 0, r0, cr0, cr0, {0}
    3e48:	000016dd 	ldrdeq	r1, [r0], -sp
    3e4c:	0fa82101 	svceq	0x00a82101
    3e50:	831e0000 	tsthi	lr, #0
    3e54:	01000017 	tsteq	r0, r7, lsl r0
    3e58:	00078b22 	andeq	r8, r7, r2, lsr #22
    3e5c:	17a21e00 	strne	r1, [r2, r0, lsl #28]!
    3e60:	24010000 	strcs	r0, [r1], #-0
    3e64:	00000053 	andeq	r0, r0, r3, asr r0
    3e68:	0100691f 	tsteq	r0, pc, lsl r9
    3e6c:	00005325 	andeq	r5, r0, r5, lsr #6
    3e70:	6d180000 	ldcvs	0, cr0, [r8, #-0]
    3e74:	01000017 	tsteq	r0, r7, lsl r0
    3e78:	1d010166 	stfnes	f0, [r1, #-408]	; 0xfffffe68
    3e7c:	20000011 	andcs	r0, r0, r1, lsl r0
    3e80:	66010063 	strvs	r0, [r1], -r3, rrx
    3e84:	00103d01 	andseq	r3, r0, r1, lsl #26
    3e88:	8c210000 	stchi	0, cr0, [r1], #-0
    3e8c:	01000017 	tsteq	r0, r7, lsl r0
    3e90:	103d0172 	eorsne	r0, sp, r2, ror r1
    3e94:	3b010000 	blcc	43e9c <__bss_end+0x40d20>
    3e98:	1a000011 	bne	3ee4 <__bss_end+0xd68>
    3e9c:	0000166b 	andeq	r1, r0, fp, ror #12
    3ea0:	53017401 	movwpl	r7, #5121	; 0x1401
    3ea4:	00000000 	andeq	r0, r0, r0
    3ea8:	0016e522 	andseq	lr, r6, r2, lsr #10
    3eac:	01a30100 			; <UNDEFINED> instruction: 0x01a30100
    3eb0:	17022201 	strne	r2, [r2, -r1, lsl #4]
    3eb4:	aa010000 	bge	43ebc <__bss_end+0x40d40>
    3eb8:	a5180101 	ldrge	r0, [r8, #-257]	; 0xfffffeff
    3ebc:	01000016 	tsteq	r0, r6, lsl r0
    3ec0:	650101d0 	strvs	r0, [r1, #-464]	; 0xfffffe30
    3ec4:	20000011 	andcs	r0, r0, r1, lsl r0
    3ec8:	d0010063 	andle	r0, r1, r3, rrx
    3ecc:	00103d01 	andseq	r3, r0, r1, lsl #26
    3ed0:	81210000 			; <UNDEFINED> instruction: 0x81210000
    3ed4:	01000016 	tsteq	r0, r6, lsl r0
    3ed8:	103d01dc 	ldrsbtne	r0, [sp], -ip
    3edc:	83010000 	movwhi	r0, #4096	; 0x1000
    3ee0:	1a000011 	bne	3f2c <__bss_end+0xdb0>
    3ee4:	0000166b 	andeq	r1, r0, fp, ror #12
    3ee8:	5301de01 	movwpl	sp, #7681	; 0x1e01
    3eec:	00000000 	andeq	r0, r0, r0
    3ef0:	00109e23 	andseq	r9, r0, r3, lsr #28
    3ef4:	00155c00 	andseq	r5, r5, r0, lsl #24
    3ef8:	0000ac00 	andeq	sl, r0, r0, lsl #24
    3efc:	3c9c0100 	ldfccs	f0, [ip], {0}
    3f00:	24000012 	strcs	r0, [r0], #-18	; 0xffffffee
    3f04:	000010ae 	andeq	r1, r0, lr, lsr #1
    3f08:	00000512 	andeq	r0, r0, r2, lsl r5
    3f0c:	0010b925 	andseq	fp, r0, r5, lsr #18
    3f10:	00053e00 	andeq	r3, r5, r0, lsl #28
    3f14:	10c42500 	sbcne	r2, r4, r0, lsl #10
    3f18:	055d0000 	ldrbeq	r0, [sp, #-0]
    3f1c:	cf250000 	svcgt	0x00250000
    3f20:	87000010 	smladhi	r0, r0, r0, r0
    3f24:	25000005 	strcs	r0, [r0, #-5]
    3f28:	000010da 	ldrdeq	r1, [r0], -sl
    3f2c:	000005bb 			; <UNDEFINED> instruction: 0x000005bb
    3f30:	0010e525 	andseq	lr, r0, r5, lsr #10
    3f34:	0005da00 	andeq	sp, r5, r0, lsl #20
    3f38:	10f02600 	rscsne	r2, r0, r0, lsl #12
    3f3c:	26000000 	strcs	r0, [r0], -r0
    3f40:	000010fb 	strdeq	r1, [r0], -fp
    3f44:	00002700 	andeq	r2, r0, r0, lsl #14
    3f48:	121a0000 	andsne	r0, sl, #0
    3f4c:	ae280000 	cdpge	0, 2, cr0, cr8, cr0, {0}
    3f50:	04000010 	streq	r0, [r0], #-16
    3f54:	9f5001f3 	svcls	0x005001f3
    3f58:	00000029 	andeq	r0, r0, r9, lsr #32
    3f5c:	10b92a00 	adcsne	r2, r9, r0, lsl #20
    3f60:	c42a0000 	strtgt	r0, [sl], #-0
    3f64:	2b000010 	blcs	3fac <__bss_end+0xe30>
    3f68:	000010cf 	andeq	r1, r0, pc, asr #1
    3f6c:	8e8885d8 	mcrhi	5, 4, r8, cr8, cr8, {6}
    3f70:	10da2a7f 	sbcsne	r2, sl, pc, ror sl
    3f74:	e52a0000 	str	r0, [sl, #-0]!
    3f78:	2a000010 	bcs	3fc0 <__bss_end+0xe44>
    3f7c:	000010f0 	strdeq	r1, [r0], -r0
    3f80:	0010fb2a 	andseq	pc, r0, sl, lsr #22
    3f84:	2c000000 	stccs	0, cr0, [r0], {-0}
    3f88:	00001568 	andeq	r1, r0, r8, ror #10
    3f8c:	000015ee 	andeq	r1, r0, lr, ror #11
    3f90:	0015e02c 	andseq	lr, r5, ip, lsr #32
    3f94:	0015f900 	andseq	pc, r5, r0, lsl #18
    3f98:	15e82d00 	strbne	r2, [r8, #3328]!	; 0xd00
    3f9c:	16040000 	strne	r0, [r4], -r0
    3fa0:	012e0000 			; <UNDEFINED> instruction: 0x012e0000
    3fa4:	00310150 	eorseq	r0, r1, r0, asr r1
    3fa8:	17a72f00 	strne	r2, [r7, r0, lsl #30]!
    3fac:	3c010000 	stccc	0, cr0, [r1], {-0}
    3fb0:	00160801 	andseq	r0, r6, r1, lsl #16
    3fb4:	00003400 	andeq	r3, r0, r0, lsl #8
    3fb8:	639c0100 	orrsvs	r0, ip, #0, 2
    3fbc:	30000012 	andcc	r0, r0, r2, lsl r0
    3fc0:	00001144 	andeq	r1, r0, r4, asr #2
    3fc4:	0000161c 	andeq	r1, r0, ip, lsl r6
    3fc8:	00000020 	andeq	r0, r0, r0, lsr #32
    3fcc:	00014501 	andeq	r4, r1, r1, lsl #10
    3fd0:	0009c92f 	andeq	ip, r9, pc, lsr #18
    3fd4:	014a0100 	mrseq	r0, (UNDEF: 90)
    3fd8:	0000163c 	andeq	r1, r0, ip, lsr r6
    3fdc:	000000a0 	andeq	r0, r0, r0, lsr #1
    3fe0:	13189c01 	tstne	r8, #256	; 0x100
    3fe4:	c2310000 	eorsgt	r0, r1, #0
    3fe8:	01000016 	tsteq	r0, r6, lsl r0
    3fec:	0053014a 	subseq	r0, r3, sl, asr #2
    3ff0:	05ed0000 	strbeq	r0, [sp, #0]!
    3ff4:	64320000 	ldrtvs	r0, [r2], #-0
    3ff8:	4c010066 	stcmi	0, cr0, [r1], {102}	; 0x66
    3ffc:	00005301 	andeq	r5, r0, r1, lsl #6
    4000:	00060e00 	andeq	r0, r6, r0, lsl #28
    4004:	636c3200 	cmnvs	ip, #0, 4
    4008:	4d010072 	stcmi	0, cr0, [r1, #-456]	; 0xfffffe38
    400c:	00005301 	andeq	r5, r0, r1, lsl #6
    4010:	00063100 	andeq	r3, r6, r0, lsl #2
    4014:	16b53300 	ldrtne	r3, [r5], r0, lsl #6
    4018:	4e010000 	cdpmi	0, 0, cr0, cr1, cr0, {0}
    401c:	00005301 	andeq	r5, r0, r1, lsl #6
    4020:	00064500 	andeq	r4, r6, r0, lsl #10
    4024:	104b3400 	subne	r3, fp, r0, lsl #8
    4028:	163c0000 	ldrtne	r0, [ip], -r0
    402c:	00380000 	eorseq	r0, r8, r0
    4030:	50010000 	andpl	r0, r1, r0
    4034:	0012f701 	andseq	pc, r2, r1, lsl #14
    4038:	10642400 	rsbne	r2, r4, r0, lsl #8
    403c:	06730000 	ldrbteq	r0, [r3], -r0
    4040:	58350000 	ldmdapl	r5!, {}	; <UNPREDICTABLE>
    4044:	00000010 	andeq	r0, r0, r0, lsl r0
    4048:	00003829 	andeq	r3, r0, r9, lsr #16
    404c:	10702600 	rsbsne	r2, r0, r0, lsl #12
    4050:	26000000 	strcs	r0, [r0], -r0
    4054:	0000107c 	andeq	r1, r0, ip, ror r0
    4058:	10863600 	addne	r3, r6, r0, lsl #12
    405c:	08b40000 	ldmeq	r4!, {}	; <UNPREDICTABLE>
    4060:	000001c2 	andeq	r0, r0, r2, asr #3
    4064:	00113b30 	andseq	r3, r1, r0, lsr fp
    4068:	0016a000 	andseq	sl, r6, r0
    406c:	00006000 	andeq	r6, r0, r0
    4070:	01620100 	cmneq	r2, r0, lsl #2
    4074:	00167c2d 	andseq	r7, r6, sp, lsr #24
    4078:	00109e00 	andseq	r9, r0, r0, lsl #28
    407c:	50012e00 	andpl	r2, r1, r0, lsl #28
    4080:	00007802 	andeq	r7, r0, r2, lsl #16
    4084:	07d13700 	ldrbeq	r3, [r1, r0, lsl #14]
    4088:	7b010000 	blvc	44090 <__bss_end+0x40f14>
    408c:	00004101 	andeq	r4, r0, r1, lsl #2
    4090:	0016dc00 	andseq	sp, r6, r0, lsl #24
    4094:	0000a800 	andeq	sl, r0, r0, lsl #16
    4098:	779c0100 	ldrvc	r0, [ip, r0, lsl #2]
    409c:	31000013 	tstcc	r0, r3, lsl r0
    40a0:	0000185d 	andeq	r1, r0, sp, asr r8
    40a4:	77017b01 	strvc	r7, [r1, -r1, lsl #22]
    40a8:	94000013 	strls	r0, [r0], #-19	; 0xffffffed
    40ac:	34000006 	strcc	r0, [r0], #-6
    40b0:	00001105 	andeq	r1, r0, r5, lsl #2
    40b4:	000016fc 	strdeq	r1, [r0], -ip
    40b8:	00000080 	andeq	r0, r0, r0, lsl #1
    40bc:	5c018901 	stcpl	9, cr8, [r1], {1}
    40c0:	38000013 	stmdacc	r0, {r0, r1, r4}
    40c4:	00001112 	andeq	r1, r0, r2, lsl r1
    40c8:	11053900 	tstne	r5, r0, lsl #18
    40cc:	171c0000 	ldrne	r0, [ip, -r0]
    40d0:	00200000 	eoreq	r0, r0, r0
    40d4:	8b010000 	blhi	440dc <__bss_end+0x40f60>
    40d8:	11122401 	tstne	r2, r1, lsl #8
    40dc:	06f10000 	ldrbteq	r0, [r1], r0
    40e0:	00000000 	andeq	r0, r0, r0
    40e4:	137d0415 	cmnne	sp, #352321536	; 0x15000000
    40e8:	3d3a0000 	ldccc	0, cr0, [sl, #-0]
    40ec:	37000010 	smladcc	r0, r0, r0, r0
    40f0:	00001716 	andeq	r1, r0, r6, lsl r7
    40f4:	53019101 	movwpl	r9, #4353	; 0x1101
    40f8:	84000000 	strhi	r0, [r0], #-0
    40fc:	94000017 	strls	r0, [r0], #-23	; 0xffffffe9
    4100:	01000000 	mrseq	r0, (UNDEF: 0)
    4104:	0013f59c 	mulseq	r3, ip, r5
    4108:	75623b00 	strbvc	r3, [r2, #-2816]!	; 0xfffff500
    410c:	91010066 	tstls	r1, r6, rrx
    4110:	0013f501 	andseq	pc, r3, r1, lsl #10
    4114:	00070400 	andeq	r0, r7, r0, lsl #8
    4118:	006e3c00 	rsbeq	r3, lr, r0, lsl #24
    411c:	53019101 	movwpl	r9, #4353	; 0x1101
    4120:	01000000 	mrseq	r0, (UNDEF: 0)
    4124:	00693251 	rsbeq	r3, r9, r1, asr r2
    4128:	53019301 	movwpl	r9, #4865	; 0x1301
    412c:	57000000 	strpl	r0, [r0, -r0]
    4130:	32000007 	andcc	r0, r0, #7
    4134:	94010063 	strls	r0, [r1], #-99	; 0xffffff9d
    4138:	00103d01 	andseq	r3, r0, r1, lsl #26
    413c:	0007bf00 	andeq	fp, r7, r0, lsl #30
    4140:	111d3d00 	tstne	sp, r0, lsl #26
    4144:	17a80000 	strne	r0, [r8, r0]!
    4148:	00a00000 	adceq	r0, r0, r0
    414c:	9b010000 	blls	44154 <__bss_end+0x40fd8>
    4150:	00a02901 	adceq	r2, r0, r1, lsl #18
    4154:	2e250000 	cdpcs	0, 2, cr0, cr5, cr0, {0}
    4158:	df000011 	svcle	0x00000011
    415c:	00000007 	andeq	r0, r0, r7
    4160:	04150000 	ldreq	r0, [r5], #-0
    4164:	0000103d 	andeq	r1, r0, sp, lsr r0
    4168:	00113b3e 	andseq	r3, r1, lr, lsr fp
    416c:	00181800 	andseq	r1, r8, r0, lsl #16
    4170:	00001400 	andeq	r1, r0, r0, lsl #8
    4174:	3e9c0100 	fmlcce	f0, f4, f0
    4178:	00001144 	andeq	r1, r0, r4, asr #2
    417c:	0000182c 	andeq	r1, r0, ip, lsr #16
    4180:	00000014 	andeq	r0, r0, r4, lsl r0
    4184:	5f2f9c01 	svcpl	0x002f9c01
    4188:	01000016 	tsteq	r0, r6, lsl r0
    418c:	184001b0 	stmdane	r0, {r4, r5, r7, r8}^
    4190:	00a80000 	adceq	r0, r8, r0
    4194:	9c010000 	stcls	0, cr0, [r1], {-0}
    4198:	000014cd 	andeq	r1, r0, sp, asr #9
    419c:	0016c231 	andseq	ip, r6, r1, lsr r2
    41a0:	01b00100 	lslseq	r0, r0, #2
    41a4:	00000053 	andeq	r0, r0, r3, asr r0
    41a8:	00000815 	andeq	r0, r0, r5, lsl r8
    41ac:	0016b533 	andseq	fp, r6, r3, lsr r5
    41b0:	01b30100 			; <UNDEFINED> instruction: 0x01b30100
    41b4:	00000053 	andeq	r0, r0, r3, asr r0
    41b8:	00000836 	andeq	r0, r0, r6, lsr r8
    41bc:	00666432 	rsbeq	r6, r6, r2, lsr r4
    41c0:	5301b401 	movwpl	fp, #5121	; 0x1401
    41c4:	64000000 	strvs	r0, [r0], #-0
    41c8:	32000008 	andcc	r0, r0, #8
    41cc:	0072636c 	rsbseq	r6, r2, ip, ror #6
    41d0:	5301b501 	movwpl	fp, #5377	; 0x1501
    41d4:	87000000 	strhi	r0, [r0, -r0]
    41d8:	34000008 	strcc	r0, [r0], #-8
    41dc:	0000104b 	andeq	r1, r0, fp, asr #32
    41e0:	00001840 	andeq	r1, r0, r0, asr #16
    41e4:	000000c0 	andeq	r0, r0, r0, asr #1
    41e8:	ad01b801 	stcge	8, cr11, [r1, #-4]
    41ec:	24000014 	strcs	r0, [r0], #-20	; 0xffffffec
    41f0:	00001064 	andeq	r1, r0, r4, rrx
    41f4:	0000089b 	muleq	r0, fp, r8
    41f8:	00105835 	andseq	r5, r0, r5, lsr r8
    41fc:	c0290100 	eorgt	r0, r9, r0, lsl #2
    4200:	26000000 	strcs	r0, [r0], -r0
    4204:	00001070 	andeq	r1, r0, r0, ror r0
    4208:	107c2600 	rsbsne	r2, ip, r0, lsl #12
    420c:	25000000 	strcs	r0, [r0, #-0]
    4210:	00001086 	andeq	r1, r0, r6, lsl #1
    4214:	000008bc 			; <UNDEFINED> instruction: 0x000008bc
    4218:	3b3f0000 	blcc	fc4220 <__bss_end+0xfc10a4>
    421c:	e0000011 	and	r0, r0, r1, lsl r0
    4220:	08000018 	stmdaeq	r0, {r3, r4}
    4224:	01000000 	mrseq	r0, (UNDEF: 0)
    4228:	8c2d01ca 	stfhis	f0, [sp], #-808	; 0xfffffcd8
    422c:	9e000018 	mcrls	0, 0, r0, cr0, cr8, {0}
    4230:	2e000010 	mcrcs	0, 0, r0, cr0, cr0, {0}
    4234:	31015001 	tstcc	r1, r1
    4238:	9e370000 	cdpls	0, 3, cr0, cr7, cr0, {0}
    423c:	0100000d 	tsteq	r0, sp
    4240:	004101f1 	strdeq	r0, [r1], #-17	; 0xffffffef
    4244:	18e80000 	stmiane	r8!, {}^	; <UNPREDICTABLE>
    4248:	00a80000 	adceq	r0, r8, r0
    424c:	9c010000 	stcls	0, cr0, [r1], {-0}
    4250:	0000152c 	andeq	r1, r0, ip, lsr #10
    4254:	00185d31 	andseq	r5, r8, r1, lsr sp
    4258:	01f10100 	mvnseq	r0, r0, lsl #2
    425c:	00001377 	andeq	r1, r0, r7, ror r3
    4260:	000008e0 	andeq	r0, r0, r0, ror #17
    4264:	00114d34 	andseq	r4, r1, r4, lsr sp
    4268:	00190800 	andseq	r0, r9, r0, lsl #16
    426c:	0000f000 	andeq	pc, r0, r0
    4270:	01ff0100 	mvnseq	r0, r0, lsl #2
    4274:	00001511 	andeq	r1, r0, r1, lsl r5
    4278:	00115a38 	andseq	r5, r1, r8, lsr sl
    427c:	4d390000 	ldcmi	0, cr0, [r9, #-0]
    4280:	28000011 	stmdacs	r0, {r0, r4}
    4284:	20000019 	andcs	r0, r0, r9, lsl r0
    4288:	01000000 	mrseq	r0, (UNDEF: 0)
    428c:	5a240201 	bpl	904a98 <__bss_end+0x90191c>
    4290:	3d000011 	stccc	0, cr0, [r0, #-68]	; 0xffffffbc
    4294:	00000009 	andeq	r0, r0, r9
    4298:	16533700 	ldrbne	r3, [r3], -r0, lsl #14
    429c:	08010000 	stmdaeq	r1, {}	; <UNPREDICTABLE>
    42a0:	00005302 	andeq	r5, r0, r2, lsl #6
    42a4:	00199000 	andseq	r9, r9, r0
    42a8:	00009400 	andeq	r9, r0, r0, lsl #8
    42ac:	9f9c0100 	svcls	0x009c0100
    42b0:	3b000015 	blcc	430c <__bss_end+0x1190>
    42b4:	00667562 	rsbeq	r7, r6, r2, ror #10
    42b8:	f5020801 			; <UNDEFINED> instruction: 0xf5020801
    42bc:	50000013 	andpl	r0, r0, r3, lsl r0
    42c0:	3c000009 	stccc	0, cr0, [r0], {9}
    42c4:	0801006e 	stmdaeq	r1, {r1, r2, r3, r5, r6}
    42c8:	00005302 	andeq	r5, r0, r2, lsl #6
    42cc:	32510100 	subscc	r0, r1, #0, 2
    42d0:	0a010069 	beq	4447c <__bss_end+0x41300>
    42d4:	00005302 	andeq	r5, r0, r2, lsl #6
    42d8:	0009a300 	andeq	sl, r9, r0, lsl #6
    42dc:	00633200 	rsbeq	r3, r3, r0, lsl #4
    42e0:	3d020b01 	vstrcc	d0, [r2, #-4]
    42e4:	0b000010 	bleq	432c <__bss_end+0x11b0>
    42e8:	3d00000a 	stccc	0, cr0, [r0, #-40]	; 0xffffffd8
    42ec:	00001165 	andeq	r1, r0, r5, ror #2
    42f0:	000019b4 			; <UNDEFINED> instruction: 0x000019b4
    42f4:	00000110 	andeq	r0, r0, r0, lsl r1
    42f8:	29021201 	stmdbcs	r2, {r0, r9, ip}
    42fc:	00000110 	andeq	r0, r0, r0, lsl r1
    4300:	00117625 	andseq	r7, r1, r5, lsr #12
    4304:	000a2b00 	andeq	r2, sl, r0, lsl #22
    4308:	00000000 	andeq	r0, r0, r0
    430c:	0017b340 	andseq	fp, r7, r0, asr #6
    4310:	53140100 	tstpl	r4, #0, 2
    4314:	05000000 	streq	r0, [r0, #-0]
    4318:	002e6003 	eoreq	r6, lr, r3
    431c:	17284000 	strne	r4, [r8, -r0]!
    4320:	15010000 	strne	r0, [r1, #-0]
    4324:	00000053 	andeq	r0, r0, r3, asr r0
    4328:	2e640305 	cdpcs	3, 6, cr0, cr4, cr5, {0}
    432c:	70400000 	subvc	r0, r0, r0
    4330:	01000016 	tsteq	r0, r6, lsl r0
    4334:	00005316 	andeq	r5, r0, r6, lsl r3
    4338:	68030500 	stmdavs	r3, {r8, sl}
    433c:	4000002e 	andmi	r0, r0, lr, lsr #32
    4340:	000016ca 	andeq	r1, r0, sl, asr #13
    4344:	00531701 	subseq	r1, r3, r1, lsl #14
    4348:	03050000 	movweq	r0, #20480	; 0x5000
    434c:	00002e6c 	andeq	r2, r0, ip, ror #28
    4350:	0016bb1e 	andseq	fp, r6, lr, lsl fp
    4354:	53180100 	tstpl	r8, #0, 2
    4358:	41000000 	mrsmi	r0, (UNDEF: 0)
    435c:	0000169a 	muleq	r0, sl, r6
    4360:	0000169a 	muleq	r0, sl, r6
    4364:	2a418204 	bcs	1064b7c <__bss_end+0x1061a00>
    4368:	2a00000d 	bcs	43a4 <__bss_end+0x1228>
    436c:	0500000d 	streq	r0, [r0, #-13]
    4370:	0f77411a 	svceq	0x0077411a
    4374:	0f770000 	svceq	0x00770000
    4378:	1b050000 	blne	144380 <__bss_end+0x141204>
    437c:	00099a00 	andeq	r9, r9, r0, lsl #20
    4380:	24000400 	strcs	r0, [r0], #-1024	; 0xfffffc00
    4384:	0400000d 	streq	r0, [r0], #-13
    4388:	00000001 	andeq	r0, r0, r1
    438c:	180b0c00 	stmdane	fp, {sl, fp}
    4390:	01f00000 	mvnseq	r0, r0
    4394:	1a240000 	bne	90439c <__bss_end+0x901220>
    4398:	08500000 	ldmdaeq	r0, {}^	; <UNPREDICTABLE>
    439c:	0ce20000 	stcleq	0, cr0, [r2]
    43a0:	01020000 	mrseq	r0, (UNDEF: 2)
    43a4:	00011406 	andeq	r1, r1, r6, lsl #8
    43a8:	08010200 	stmdaeq	r1, {r9}
    43ac:	00000112 	andeq	r0, r0, r2, lsl r1
    43b0:	81050202 	tsthi	r5, r2, lsl #4
    43b4:	02000002 	andeq	r0, r0, #2
    43b8:	01360702 	teqeq	r6, r2, lsl #14
    43bc:	7d030000 	stcvc	0, cr0, [r3, #-0]
    43c0:	02000012 	andeq	r0, r0, #18
    43c4:	00004c12 	andeq	r4, r0, r2, lsl ip
    43c8:	05040400 	streq	r0, [r4, #-1024]	; 0xfffffc00
    43cc:	00746e69 	rsbseq	r6, r4, r9, ror #28
    43d0:	b7070402 	strlt	r0, [r7, -r2, lsl #8]
    43d4:	02000001 	andeq	r0, r0, #1
    43d8:	02410508 	subeq	r0, r1, #8, 10	; 0x2000000
    43dc:	08020000 	stmdaeq	r2, {}	; <UNPREDICTABLE>
    43e0:	0001ad07 	andeq	sl, r1, r7, lsl #26
    43e4:	17c80300 	strbne	r0, [r8, r0, lsl #6]
    43e8:	18020000 	stmdane	r2, {}	; <UNPREDICTABLE>
    43ec:	00000053 	andeq	r0, r0, r3, asr r0
    43f0:	38070402 	stmdacc	r7, {r1, sl}
    43f4:	05000002 	streq	r0, [r0, #-2]
    43f8:	000001da 	ldrdeq	r0, [r0], -sl
    43fc:	00005304 	andeq	r5, r0, r4, lsl #6
    4400:	09890500 	stmibeq	r9, {r8, sl}
    4404:	06000001 	streq	r0, [r0], -r1
    4408:	000000d4 	ldrdeq	r0, [r0], -r4
    440c:	01290600 			; <UNDEFINED> instruction: 0x01290600
    4410:	06010000 	streq	r0, [r1], -r0
    4414:	000000e1 	andeq	r0, r0, r1, ror #1
    4418:	01060602 	tsteq	r6, r2, lsl #12
    441c:	06030000 	streq	r0, [r3], -r0
    4420:	0000025c 	andeq	r0, r0, ip, asr r2
    4424:	01a10604 			; <UNDEFINED> instruction: 0x01a10604
    4428:	06050000 	streq	r0, [r5], -r0
    442c:	00000189 	andeq	r0, r0, r9, lsl #3
    4430:	01c40606 	biceq	r0, r4, r6, lsl #12
    4434:	06070000 	streq	r0, [r7], -r0
    4438:	000000c8 	andeq	r0, r0, r8, asr #1
    443c:	00fb0608 	rscseq	r0, fp, r8, lsl #12
    4440:	06090000 	streq	r0, [r9], -r0
    4444:	00000196 	muleq	r0, r6, r1
    4448:	0276060a 	rsbseq	r0, r6, #10485760	; 0xa00000
    444c:	060b0000 	streq	r0, [fp], -r0
    4450:	000001d4 	ldrdeq	r0, [r0], -r4
    4454:	02e6060c 	rsceq	r0, r6, #12, 12	; 0xc00000
    4458:	060d0000 	streq	r0, [sp], -r0
    445c:	00000331 	andeq	r0, r0, r1, lsr r3
    4460:	0268060e 	rsbeq	r0, r8, #14680064	; 0xe00000
    4464:	060f0000 	streq	r0, [pc], -r0
    4468:	00000301 	andeq	r0, r0, r1, lsl #6
    446c:	024f0610 	subeq	r0, pc, #16, 12	; 0x1000000
    4470:	06110000 	ldreq	r0, [r1], -r0
    4474:	0000031b 	andeq	r0, r0, fp, lsl r3
    4478:	00ee0612 	rsceq	r0, lr, r2, lsl r6
    447c:	06130000 	ldreq	r0, [r3], -r0
    4480:	000002d8 	ldrdeq	r0, [r0], -r8
    4484:	01020014 	tsteq	r2, r4, lsl r0
    4488:	00011b08 	andeq	r1, r1, r8, lsl #22
    448c:	07040200 	streq	r0, [r4, -r0, lsl #4]
    4490:	000001b2 			; <UNDEFINED> instruction: 0x000001b2
    4494:	8a030407 	bhi	c54b8 <__bss_end+0xc233c>
    4498:	03000018 	movweq	r0, #24
    449c:	00012428 	andeq	r2, r1, r8, lsr #8
    44a0:	17e30800 	strbne	r0, [r3, r0, lsl #16]!
    44a4:	06040000 	streq	r0, [r4], -r0
    44a8:	00013b00 	andeq	r3, r1, r0, lsl #22
    44ac:	184b0900 	stmdane	fp, {r8, fp}^
    44b0:	01170000 	tsteq	r7, r0
    44b4:	00000000 	andeq	r0, r0, r0
    44b8:	0017e503 	andseq	lr, r7, r3, lsl #10
    44bc:	19620300 	stmdbne	r2!, {r8, r9}^
    44c0:	0a000001 	beq	44cc <__bss_end+0x1350>
    44c4:	00001899 	muleq	r0, r9, r8
    44c8:	01836501 	orreq	r6, r3, r1, lsl #10
    44cc:	83010000 	movwhi	r0, #4096	; 0x1000
    44d0:	0b000001 	bleq	44dc <__bss_end+0x1360>
    44d4:	0000186c 	andeq	r1, r0, ip, ror #16
    44d8:	01836501 	orreq	r6, r3, r1, lsl #10
    44dc:	730c0000 	movwvc	r0, #49152	; 0xc000
    44e0:	01006372 	tsteq	r0, r2, ror r3
    44e4:	00018965 	andeq	r8, r1, r5, ror #18
    44e8:	12ef0b00 	rscne	r0, pc, #0, 22
    44ec:	65010000 	strvs	r0, [r1, #-0]
    44f0:	00000068 	andeq	r0, r0, r8, rrx
    44f4:	706d740d 	rsbvc	r7, sp, sp, lsl #8
    44f8:	83670100 	cmnhi	r7, #0, 2
    44fc:	00000001 	andeq	r0, r0, r1
    4500:	0109040e 	tsteq	r9, lr, lsl #8
    4504:	040e0000 	streq	r0, [lr], #-0
    4508:	0000018f 	andeq	r0, r0, pc, lsl #3
    450c:	0001090f 	andeq	r0, r1, pc, lsl #18
    4510:	18640a00 	stmdane	r4!, {r9, fp}^
    4514:	38010000 	stmdacc	r1, {}	; <UNPREDICTABLE>
    4518:	00000183 	andeq	r0, r0, r3, lsl #3
    451c:	0001c601 	andeq	ip, r1, r1, lsl #12
    4520:	186c0b00 	stmdane	ip!, {r8, r9, fp}^
    4524:	38010000 	stmdacc	r1, {}	; <UNPREDICTABLE>
    4528:	00000183 	andeq	r0, r0, r3, lsl #3
    452c:	6372730c 	cmnvs	r2, #12, 6	; 0x30000000
    4530:	89380100 	ldmdbhi	r8!, {r8}
    4534:	0d000001 	stceq	0, cr0, [r0, #-4]
    4538:	00706d74 	rsbseq	r6, r0, r4, ror sp
    453c:	01833a01 	orreq	r3, r3, r1, lsl #20
    4540:	0a000000 	beq	4548 <__bss_end+0x13cc>
    4544:	00001850 	andeq	r1, r0, r0, asr r8
    4548:	00682701 	rsbeq	r2, r8, r1, lsl #14
    454c:	ea010000 	b	44554 <__bss_end+0x413d8>
    4550:	0c000001 	stceq	0, cr0, [r0], {1}
    4554:	27010073 	smlsdxcs	r1, r3, r0, r0
    4558:	00000189 	andeq	r0, r0, r9, lsl #3
    455c:	0063730d 	rsbeq	r7, r3, sp, lsl #6
    4560:	01892901 	orreq	r2, r9, r1, lsl #18
    4564:	0a000000 	beq	456c <__bss_end+0x13f0>
    4568:	00001806 	andeq	r1, r0, r6, lsl #16
    456c:	0183a901 	orreq	sl, r3, r1, lsl #18
    4570:	4f010000 	svcmi	0x00010000
    4574:	0b000002 	bleq	4584 <__bss_end+0x1408>
    4578:	000015b2 			; <UNDEFINED> instruction: 0x000015b2
    457c:	004ca901 	subeq	sl, ip, r1, lsl #18
    4580:	5d0b0000 	stcpl	0, cr0, [fp, #-0]
    4584:	01000018 	tsteq	r0, r8, lsl r0
    4588:	000183a9 	andeq	r8, r1, r9, lsr #7
    458c:	18450b00 	stmdane	r5, {r8, r9, fp}^
    4590:	a9010000 	stmdbge	r1, {}	; <UNPREDICTABLE>
    4594:	0000004c 	andeq	r0, r0, ip, asr #32
    4598:	00183a10 	andseq	r3, r8, r0, lsl sl
    459c:	4fab0100 	svcmi	0x00ab0100
    45a0:	10000002 	andne	r0, r0, r2
    45a4:	000017fd 	strdeq	r1, [r0], -sp
    45a8:	004cac01 	subeq	sl, ip, r1, lsl #24
    45ac:	690d0000 	stmdbvs	sp, {}	; <UNPREDICTABLE>
    45b0:	4cad0100 	stfmis	f0, [sp]
    45b4:	0d000000 	stceq	0, cr0, [r0, #-0]
    45b8:	ae01006a 	cdpge	0, 0, cr0, cr1, cr10, {3}
    45bc:	0000004c 	andeq	r0, r0, ip, asr #32
    45c0:	00185710 	andseq	r5, r8, r0, lsl r7
    45c4:	5faf0100 	svcpl	0x00af0100
    45c8:	00000002 	andeq	r0, r0, r2
    45cc:	00010911 	andeq	r0, r1, r1, lsl r9
    45d0:	00025f00 	andeq	r5, r2, r0, lsl #30
    45d4:	00731200 	rsbseq	r1, r3, r0, lsl #4
    45d8:	000f0000 	andeq	r0, pc, r0
    45dc:	00010911 	andeq	r0, r1, r1, lsl r9
    45e0:	00026f00 	andeq	r6, r2, r0, lsl #30
    45e4:	00731200 	rsbseq	r1, r3, r0, lsl #4
    45e8:	00100000 	andseq	r0, r0, r0
    45ec:	0017c313 	andseq	ip, r7, r3, lsl r3
    45f0:	83d80100 	bicshi	r0, r8, #0, 2
    45f4:	24000001 	strcs	r0, [r0], #-1
    45f8:	cc00001a 	stcgt	0, cr0, [r0], {26}
    45fc:	01000000 	mrseq	r0, (UNDEF: 0)
    4600:	0002e99c 	muleq	r2, ip, r9
    4604:	15b21400 	ldrne	r1, [r2, #1024]!	; 0x400
    4608:	d8010000 	stmdale	r1, {}	; <UNPREDICTABLE>
    460c:	00000053 	andeq	r0, r0, r3, asr r0
    4610:	00000a61 	andeq	r0, r0, r1, ror #20
    4614:	00185d14 	andseq	r5, r8, r4, lsl sp
    4618:	83d80100 	bicshi	r0, r8, #0, 2
    461c:	ab000001 	blge	4628 <__bss_end+0x14ac>
    4620:	1400000a 	strne	r0, [r0], #-10
    4624:	00001845 	andeq	r1, r0, r5, asr #16
    4628:	004cd801 	subeq	sp, ip, r1, lsl #16
    462c:	0ac90000 	beq	ff244634 <__bss_end+0xff2414b8>
    4630:	3a150000 	bcc	544638 <__bss_end+0x5414bc>
    4634:	01000018 	tsteq	r0, r8, lsl r0
    4638:	00024fda 	ldrdeq	r4, [r2], -sl
    463c:	bc910300 	ldclt	3, cr0, [r1], {0}
    4640:	0069167f 	rsbeq	r1, r9, pc, ror r6
    4644:	004cdb01 	subeq	sp, ip, r1, lsl #22
    4648:	0ae70000 	beq	ff9c4650 <__bss_end+0xff9c14d4>
    464c:	6a0d0000 	bvs	344654 <__bss_end+0x3414d8>
    4650:	4cdc0100 	ldfmie	f0, [ip], {0}
    4654:	15000000 	strne	r0, [r0, #-0]
    4658:	00001857 	andeq	r1, r0, r7, asr r8
    465c:	025fdd01 	subseq	sp, pc, #1, 26	; 0x40
    4660:	91020000 	mrsls	r0, (UNDEF: 2)
    4664:	7117004c 	tstvc	r7, ip, asr #32
    4668:	01000018 	tsteq	r0, r8, lsl r0
    466c:	00410174 	subeq	r0, r1, r4, ror r1
    4670:	1af00000 	bne	ffc04678 <__bss_end+0xffc014fc>
    4674:	00980000 	addseq	r0, r8, r0
    4678:	9c010000 	stcls	0, cr0, [r1], {-0}
    467c:	0000037e 	andeq	r0, r0, lr, ror r3
    4680:	00185d18 	andseq	r5, r8, r8, lsl sp
    4684:	01740100 	cmneq	r4, r0, lsl #2
    4688:	00000183 	andeq	r0, r0, r3, lsl #3
    468c:	00000b1d 	andeq	r0, r0, sp, lsl fp
    4690:	6e656c19 	mcrvs	12, 3, r6, cr5, cr9, {0}
    4694:	01740100 	cmneq	r4, r0, lsl #2
    4698:	00000041 	andeq	r0, r0, r1, asr #32
    469c:	00000b49 	andeq	r0, r0, r9, asr #22
    46a0:	00187718 	andseq	r7, r8, r8, lsl r7
    46a4:	01740100 	cmneq	r4, r0, lsl #2
    46a8:	00000041 	andeq	r0, r0, r1, asr #32
    46ac:	00000b67 	andeq	r0, r0, r7, ror #22
    46b0:	0017db1a 	andseq	sp, r7, sl, lsl fp
    46b4:	01780100 	cmneq	r8, r0, lsl #2
    46b8:	0000025f 	andeq	r0, r0, pc, asr r2
    46bc:	1b5c9102 	blne	1728acc <__bss_end+0x1725950>
    46c0:	00000146 	andeq	r0, r0, r6, asr #2
    46c4:	00001b2c 	andeq	r1, r0, ip, lsr #22
    46c8:	00000130 	andeq	r0, r0, r0, lsr r1
    46cc:	1c017c01 	stcne	12, cr7, [r1], {1}
    46d0:	0000016c 	andeq	r0, r0, ip, ror #2
    46d4:	00000b85 	andeq	r0, r0, r5, lsl #23
    46d8:	0001611c 	andeq	r6, r1, ip, lsl r1
    46dc:	000bd500 	andeq	sp, fp, r0, lsl #10
    46e0:	01561c00 	cmpeq	r6, r0, lsl #24
    46e4:	0bf50000 	bleq	ffd446ec <__bss_end+0xffd41570>
    46e8:	301d0000 	andscc	r0, sp, r0
    46ec:	1e000001 	cdpne	0, 0, cr0, cr0, cr1, {0}
    46f0:	00000177 	andeq	r0, r0, r7, ror r1
    46f4:	00000bf5 	strdeq	r0, [r0], -r5
    46f8:	1f000000 	svcne	0x00000000
    46fc:	000001ea 	andeq	r0, r0, sl, ror #3
    4700:	00001b88 	andeq	r1, r0, r8, lsl #23
    4704:	000000f4 	strdeq	r0, [r0], -r4
    4708:	03d59c01 	bicseq	r9, r5, #256	; 0x100
    470c:	fa1c0000 	blx	704714 <__bss_end+0x701598>
    4710:	20000001 	andcs	r0, r0, r1
    4714:	1c00000c 	stcne	0, cr0, [r0], {12}
    4718:	00000205 	andeq	r0, r0, r5, lsl #4
    471c:	00000c5f 	andeq	r0, r0, pc, asr ip
    4720:	00021b20 	andeq	r1, r2, r0, lsr #22
    4724:	4c910200 	lfmmi	f0, 4, [r1], {0}
    4728:	0002261e 	andeq	r2, r2, lr, lsl r6
    472c:	000c7d00 	andeq	r7, ip, r0, lsl #26
    4730:	02311e00 	eorseq	r1, r1, #0, 28
    4734:	0cd70000 	ldcleq	0, cr0, [r7], {0}
    4738:	3a1e0000 	bcc	784740 <__bss_end+0x7815c4>
    473c:	17000002 	strne	r0, [r0, -r2]
    4740:	2000000d 	andcs	r0, r0, sp
    4744:	00000243 	andeq	r0, r0, r3, asr #4
    4748:	215c9102 	cmpcs	ip, r2, lsl #2
    474c:	00000210 	andeq	r0, r0, r0, lsl r2
    4750:	0d22000a 	stceq	0, cr0, [r2, #-40]!	; 0xffffffd8
    4754:	0100000b 	tsteq	r0, fp
    4758:	0041010e 	subeq	r0, r1, lr, lsl #2
    475c:	1c7c0000 	ldclne	0, cr0, [ip], #-0
    4760:	02fc0000 	rscseq	r0, ip, #0
    4764:	9c010000 	stcls	0, cr0, [r1], {-0}
    4768:	0000069d 	muleq	r0, sp, r6
    476c:	0017d418 	andseq	sp, r7, r8, lsl r4
    4770:	010e0100 	mrseq	r0, (UNDEF: 30)
    4774:	00000189 	andeq	r0, r0, r9, lsl #3
    4778:	00000d42 	andeq	r0, r0, r2, asr #26
    477c:	18401a23 	stmdane	r0, {r0, r1, r5, r9, fp, ip}^
    4780:	10010000 	andne	r0, r1, r0
    4784:	00013b01 	andeq	r3, r1, r1, lsl #22
    4788:	bc910300 	ldclt	3, cr0, [r1], {0}
    478c:	185d1a7f 	ldmdane	sp, {r0, r1, r2, r3, r4, r5, r6, r9, fp, ip}^
    4790:	11010000 	mrsne	r0, (UNDEF: 1)
    4794:	00024f01 	andeq	r4, r2, r1, lsl #30
    4798:	40910200 	addsmi	r0, r1, r0, lsl #4
    479c:	00186b24 	andseq	r6, r8, r4, lsr #22
    47a0:	01120100 	tsteq	r2, r0, lsl #2
    47a4:	00000183 	andeq	r0, r0, r3, lsl #3
    47a8:	00000d84 	andeq	r0, r0, r4, lsl #27
    47ac:	0017cf24 	andseq	ip, r7, r4, lsr #30
    47b0:	01130100 	tsteq	r3, r0, lsl #2
    47b4:	00000183 	andeq	r0, r0, r3, lsl #3
    47b8:	00000e13 	andeq	r0, r0, r3, lsl lr
    47bc:	00187724 	andseq	r7, r8, r4, lsr #14
    47c0:	01140100 	tsteq	r4, r0, lsl #2
    47c4:	00000041 	andeq	r0, r0, r1, asr #32
    47c8:	00000e26 	andeq	r0, r0, r6, lsr #28
    47cc:	6e656c25 	cdpvs	12, 6, cr6, cr5, cr5, {1}
    47d0:	01150100 	tsteq	r5, r0, lsl #2
    47d4:	00000041 	andeq	r0, r0, r1, asr #32
    47d8:	00000e44 	andeq	r0, r0, r4, asr #28
    47dc:	0001c626 	andeq	ip, r1, r6, lsr #12
    47e0:	001db000 	andseq	fp, sp, r0
    47e4:	00015800 	andeq	r5, r1, r0, lsl #16
    47e8:	01460100 	mrseq	r0, (UNDEF: 86)
    47ec:	0000048c 	andeq	r0, r0, ip, lsl #9
    47f0:	0001d61c 	andeq	sp, r1, ip, lsl r6
    47f4:	000e8500 	andeq	r8, lr, r0, lsl #10
    47f8:	01581d00 	cmpeq	r8, r0, lsl #26
    47fc:	df1e0000 	svcle	0x001e0000
    4800:	a3000001 	movwge	r0, #1
    4804:	0000000e 	andeq	r0, r0, lr
    4808:	01942700 	orrseq	r2, r4, r0, lsl #14
    480c:	1dec0000 	stclne	0, cr0, [ip]
    4810:	00100000 	andseq	r0, r0, r0
    4814:	48010000 	stmdami	r1, {}	; <UNPREDICTABLE>
    4818:	0004be01 	andeq	fp, r4, r1, lsl #28
    481c:	01af1c00 			; <UNDEFINED> instruction: 0x01af1c00
    4820:	0ed90000 	cdpeq	0, 13, cr0, cr9, cr0, {0}
    4824:	a4280000 	strtge	r0, [r8], #-0
    4828:	29000001 	stmdbcs	r0, {r0}
    482c:	00001dec 	andeq	r1, r0, ip, ror #27
    4830:	00000010 	andeq	r0, r0, r0, lsl r0
    4834:	0001ba2a 	andeq	fp, r1, sl, lsr #20
    4838:	27000000 	strcs	r0, [r0, -r0]
    483c:	00000194 	muleq	r0, r4, r1
    4840:	00001e1c 	andeq	r1, r0, ip, lsl lr
    4844:	00000010 	andeq	r0, r0, r0, lsl r0
    4848:	f8015601 			; <UNDEFINED> instruction: 0xf8015601
    484c:	1c000004 	stcne	0, cr0, [r0], {4}
    4850:	000001af 	andeq	r0, r0, pc, lsr #3
    4854:	00000ef9 	strdeq	r0, [r0], -r9
    4858:	0001a41c 	andeq	sl, r1, ip, lsl r4
    485c:	000f2400 	andeq	r2, pc, r0, lsl #8
    4860:	1e1c2900 	cdpne	9, 1, cr2, cr12, cr0, {0}
    4864:	00100000 	andseq	r0, r0, r0
    4868:	ba1e0000 	blt	784870 <__bss_end+0x7816f4>
    486c:	37000001 	strcc	r0, [r0, -r1]
    4870:	0000000f 	andeq	r0, r0, pc
    4874:	01c62700 	biceq	r2, r6, r0, lsl #14
    4878:	1e2c0000 	cdpne	0, 2, cr0, cr12, cr0, {0}
    487c:	001c0000 	andseq	r0, ip, r0
    4880:	57010000 	strpl	r0, [r1, -r0]
    4884:	00052501 	andeq	r2, r5, r1, lsl #10
    4888:	01d62800 	bicseq	r2, r6, r0, lsl #16
    488c:	2c290000 	stccs	0, cr0, [r9], #-0
    4890:	1c00001e 	stcne	0, cr0, [r0], {30}
    4894:	1e000000 	cdpne	0, 0, cr0, cr0, cr0, {0}
    4898:	000001df 	ldrdeq	r0, [r0], -pc	; <UNPREDICTABLE>
    489c:	00000f4a 	andeq	r0, r0, sl, asr #30
    48a0:	c6260000 	strtgt	r0, [r6], -r0
    48a4:	70000001 	andvc	r0, r0, r1
    48a8:	7000001e 	andvc	r0, r0, lr, lsl r0
    48ac:	01000001 	tsteq	r0, r1
    48b0:	0552013c 	ldrbeq	r0, [r2, #-316]	; 0xfffffec4
    48b4:	d61c0000 	ldrle	r0, [ip], -r0
    48b8:	75000001 	strvc	r0, [r0, #-1]
    48bc:	1d00000f 	stcne	0, cr0, [r0, #-60]	; 0xffffffc4
    48c0:	00000170 	andeq	r0, r0, r0, ror r1
    48c4:	0001df1e 	andeq	sp, r1, lr, lsl pc
    48c8:	000f9300 	andeq	r9, pc, r0, lsl #6
    48cc:	27000000 	strcs	r0, [r0, -r0]
    48d0:	00000194 	muleq	r0, r4, r1
    48d4:	00001eac 	andeq	r1, r0, ip, lsr #29
    48d8:	00000010 	andeq	r0, r0, r0, lsl r0
    48dc:	84013e01 	strhi	r3, [r1], #-3585	; 0xfffff1ff
    48e0:	1c000005 	stcne	0, cr0, [r0], {5}
    48e4:	000001af 	andeq	r0, r0, pc, lsr #3
    48e8:	00000fc9 	andeq	r0, r0, r9, asr #31
    48ec:	0001a428 	andeq	sl, r1, r8, lsr #8
    48f0:	1eac2900 	cdpne	9, 10, cr2, cr12, cr0, {0}
    48f4:	00100000 	andseq	r0, r0, r0
    48f8:	ba2a0000 	blt	a84900 <__bss_end+0xa81784>
    48fc:	00000001 	andeq	r0, r0, r1
    4900:	01c62600 	biceq	r2, r6, r0, lsl #12
    4904:	1edc0000 	cdpne	0, 13, cr0, cr12, cr0, {0}
    4908:	01880000 	orreq	r0, r8, r0
    490c:	31010000 	mrscc	r0, (UNDEF: 1)
    4910:	0005b101 	andeq	fp, r5, r1, lsl #2
    4914:	01d61c00 	bicseq	r1, r6, r0, lsl #24
    4918:	0fe90000 	svceq	0x00e90000
    491c:	881d0000 	ldmdahi	sp, {}	; <UNPREDICTABLE>
    4920:	1e000001 	cdpne	0, 0, cr0, cr0, cr1, {0}
    4924:	000001df 	ldrdeq	r0, [r0], -pc	; <UNPREDICTABLE>
    4928:	00001007 	andeq	r1, r0, r7
    492c:	94270000 	strtls	r0, [r7], #-0
    4930:	18000001 	stmdane	r0, {r0}
    4934:	1000001f 	andne	r0, r0, pc, lsl r0
    4938:	01000000 	mrseq	r0, (UNDEF: 0)
    493c:	05e30133 	strbeq	r0, [r3, #307]!	; 0x133
    4940:	af1c0000 	svcge	0x001c0000
    4944:	3d000001 	stccc	0, cr0, [r0, #-4]
    4948:	28000010 	stmdacs	r0, {r4}
    494c:	000001a4 	andeq	r0, r0, r4, lsr #3
    4950:	001f1829 	andseq	r1, pc, r9, lsr #16
    4954:	00001000 	andeq	r1, r0, r0
    4958:	01ba2a00 			; <UNDEFINED> instruction: 0x01ba2a00
    495c:	00000000 	andeq	r0, r0, r0
    4960:	001d802b 	andseq	r8, sp, fp, lsr #32
    4964:	00098700 	andeq	r8, r9, r0, lsl #14
    4968:	0005fa00 	andeq	pc, r5, r0, lsl #20
    496c:	50012c00 	andpl	r2, r1, r0, lsl #24
    4970:	2e700305 	cdpcs	3, 7, cr0, cr0, cr5, {0}
    4974:	2b000000 	blcs	497c <__bss_end+0x1800>
    4978:	00001db0 			; <UNDEFINED> instruction: 0x00001db0
    497c:	0000026f 	andeq	r0, r0, pc, ror #4
    4980:	00000613 	andeq	r0, r0, r3, lsl r6
    4984:	0251012c 	subseq	r0, r1, #44, 2
    4988:	012c0078 			; <UNDEFINED> instruction: 0x012c0078
    498c:	003a0152 	eorseq	r0, sl, r2, asr r1
    4990:	001de02b 	andseq	lr, sp, fp, lsr #32
    4994:	0002e900 	andeq	lr, r2, r0, lsl #18
    4998:	00063300 	andeq	r3, r6, r0, lsl #6
    499c:	50012c00 	andpl	r2, r1, r0, lsl #24
    49a0:	2c007802 	stccs	8, cr7, [r0], {2}
    49a4:	7a025101 	bvc	98db0 <__bss_end+0x95c34>
    49a8:	52012c00 	andpl	r2, r1, #0, 24
    49ac:	00007902 	andeq	r7, r0, r2, lsl #18
    49b0:	001e702b 	andseq	r7, lr, fp, lsr #32
    49b4:	00026f00 	andeq	r6, r2, r0, lsl #30
    49b8:	00064c00 	andeq	r4, r6, r0, lsl #24
    49bc:	51012c00 	tstpl	r1, r0, lsl #24
    49c0:	2c007802 	stccs	8, cr7, [r0], {2}
    49c4:	40015201 	andmi	r5, r1, r1, lsl #4
    49c8:	1ea02b00 	vfmane.f64	d2, d0, d0
    49cc:	02e90000 	rsceq	r0, r9, #0
    49d0:	066c0000 	strbteq	r0, [ip], -r0
    49d4:	012c0000 			; <UNDEFINED> instruction: 0x012c0000
    49d8:	00780250 	rsbseq	r0, r8, r0, asr r2
    49dc:	0251012c 	subseq	r0, r1, #44, 2
    49e0:	012c007a 			; <UNDEFINED> instruction: 0x012c007a
    49e4:	00790252 	rsbseq	r0, r9, r2, asr r2
    49e8:	1edc2b00 	vfnmsne.f64	d18, d12, d0
    49ec:	037e0000 	cmneq	lr, #0
    49f0:	06800000 	streq	r0, [r0], r0
    49f4:	012c0000 			; <UNDEFINED> instruction: 0x012c0000
    49f8:	00780251 	rsbseq	r0, r8, r1, asr r2
    49fc:	1f0c2d00 	svcne	0x000c2d00
    4a00:	02e90000 	rsceq	r0, r9, #0
    4a04:	012c0000 			; <UNDEFINED> instruction: 0x012c0000
    4a08:	00780250 	rsbseq	r0, r8, r0, asr r2
    4a0c:	0251012c 	subseq	r0, r1, #44, 2
    4a10:	012c007a 			; <UNDEFINED> instruction: 0x012c007a
    4a14:	00790252 	rsbseq	r0, r9, r2, asr r2
    4a18:	7d220000 	stcvc	0, cr0, [r2, #-0]
    4a1c:	01000018 	tsteq	r0, r8, lsl r0
    4a20:	00410183 	subeq	r0, r1, r3, lsl #3
    4a24:	1f780000 	svcne	0x00780000
    4a28:	02fc0000 	rscseq	r0, ip, #0
    4a2c:	9c010000 	stcls	0, cr0, [r1], {-0}
    4a30:	00000965 	andeq	r0, r0, r5, ror #18
    4a34:	0017d418 	andseq	sp, r7, r8, lsl r4
    4a38:	01830100 	orreq	r0, r3, r0, lsl #2
    4a3c:	00000189 	andeq	r0, r0, r9, lsl #3
    4a40:	0000105d 	andeq	r1, r0, sp, asr r0
    4a44:	18401a23 	stmdane	r0, {r0, r1, r5, r9, fp, ip}^
    4a48:	85010000 	strhi	r0, [r1, #-0]
    4a4c:	00013b01 	andeq	r3, r1, r1, lsl #22
    4a50:	bc910300 	ldclt	3, cr0, [r1], {0}
    4a54:	185d1a7f 	ldmdane	sp, {r0, r1, r2, r3, r4, r5, r6, r9, fp, ip}^
    4a58:	86010000 	strhi	r0, [r1], -r0
    4a5c:	00024f01 	andeq	r4, r2, r1, lsl #30
    4a60:	40910200 	addsmi	r0, r1, r0, lsl #4
    4a64:	00186b24 	andseq	r6, r8, r4, lsr #22
    4a68:	01870100 	orreq	r0, r7, r0, lsl #2
    4a6c:	00000183 	andeq	r0, r0, r3, lsl #3
    4a70:	0000109f 	muleq	r0, pc, r0	; <UNPREDICTABLE>
    4a74:	0017cf24 	andseq	ip, r7, r4, lsr #30
    4a78:	01880100 	orreq	r0, r8, r0, lsl #2
    4a7c:	00000183 	andeq	r0, r0, r3, lsl #3
    4a80:	0000112e 	andeq	r1, r0, lr, lsr #2
    4a84:	00187724 	andseq	r7, r8, r4, lsr #14
    4a88:	01890100 	orreq	r0, r9, r0, lsl #2
    4a8c:	00000041 	andeq	r0, r0, r1, asr #32
    4a90:	00001141 	andeq	r1, r0, r1, asr #2
    4a94:	6e656c25 	cdpvs	12, 6, cr6, cr5, cr5, {1}
    4a98:	018a0100 	orreq	r0, sl, r0, lsl #2
    4a9c:	00000041 	andeq	r0, r0, r1, asr #32
    4aa0:	0000115f 	andeq	r1, r0, pc, asr r1
    4aa4:	0001c626 	andeq	ip, r1, r6, lsr #12
    4aa8:	0020ac00 	eoreq	sl, r0, r0, lsl #24
    4aac:	0001a000 	andeq	sl, r1, r0
    4ab0:	01bb0100 			; <UNDEFINED> instruction: 0x01bb0100
    4ab4:	00000754 	andeq	r0, r0, r4, asr r7
    4ab8:	0001d61c 	andeq	sp, r1, ip, lsl r6
    4abc:	0011a000 	andseq	sl, r1, r0
    4ac0:	01a01d00 	lsleq	r1, r0, #26
    4ac4:	df1e0000 	svcle	0x001e0000
    4ac8:	be000001 	cdplt	0, 0, cr0, cr0, cr1, {0}
    4acc:	00000011 	andeq	r0, r0, r1, lsl r0
    4ad0:	01942700 	orrseq	r2, r4, r0, lsl #14
    4ad4:	20e80000 	rsccs	r0, r8, r0
    4ad8:	00100000 	andseq	r0, r0, r0
    4adc:	bd010000 	stclt	0, cr0, [r1, #-0]
    4ae0:	00078601 	andeq	r8, r7, r1, lsl #12
    4ae4:	01af1c00 			; <UNDEFINED> instruction: 0x01af1c00
    4ae8:	11f40000 	mvnsne	r0, r0
    4aec:	a4280000 	strtge	r0, [r8], #-0
    4af0:	29000001 	stmdbcs	r0, {r0}
    4af4:	000020e8 	andeq	r2, r0, r8, ror #1
    4af8:	00000010 	andeq	r0, r0, r0, lsl r0
    4afc:	0001ba2a 	andeq	fp, r1, sl, lsr #20
    4b00:	27000000 	strcs	r0, [r0, -r0]
    4b04:	00000194 	muleq	r0, r4, r1
    4b08:	00002118 	andeq	r2, r0, r8, lsl r1
    4b0c:	00000010 	andeq	r0, r0, r0, lsl r0
    4b10:	c001cb01 	andgt	ip, r1, r1, lsl #22
    4b14:	1c000007 	stcne	0, cr0, [r0], {7}
    4b18:	000001af 	andeq	r0, r0, pc, lsr #3
    4b1c:	00001214 	andeq	r1, r0, r4, lsl r2
    4b20:	0001a41c 	andeq	sl, r1, ip, lsl r4
    4b24:	00123f00 	andseq	r3, r2, r0, lsl #30
    4b28:	21182900 	tstcs	r8, r0, lsl #18
    4b2c:	00100000 	andseq	r0, r0, r0
    4b30:	ba1e0000 	blt	784b38 <__bss_end+0x7819bc>
    4b34:	52000001 	andpl	r0, r0, #1
    4b38:	00000012 	andeq	r0, r0, r2, lsl r0
    4b3c:	01c62700 	biceq	r2, r6, r0, lsl #14
    4b40:	21280000 			; <UNDEFINED> instruction: 0x21280000
    4b44:	001c0000 	andseq	r0, ip, r0
    4b48:	cc010000 	stcgt	0, cr0, [r1], {-0}
    4b4c:	0007ed01 	andeq	lr, r7, r1, lsl #26
    4b50:	01d62800 	bicseq	r2, r6, r0, lsl #16
    4b54:	28290000 	stmdacs	r9!, {}	; <UNPREDICTABLE>
    4b58:	1c000021 	stcne	0, cr0, [r0], {33}	; 0x21
    4b5c:	1e000000 	cdpne	0, 0, cr0, cr0, cr0, {0}
    4b60:	000001df 	ldrdeq	r0, [r0], -pc	; <UNPREDICTABLE>
    4b64:	00001265 	andeq	r1, r0, r5, ror #4
    4b68:	c6260000 	strtgt	r0, [r6], -r0
    4b6c:	6c000001 	stcvs	0, cr0, [r0], {1}
    4b70:	b8000021 	stmdalt	r0, {r0, r5}
    4b74:	01000001 	tsteq	r0, r1
    4b78:	081a01b1 	ldmdaeq	sl, {r0, r4, r5, r7, r8}
    4b7c:	d61c0000 	ldrle	r0, [ip], -r0
    4b80:	90000001 	andls	r0, r0, r1
    4b84:	1d000012 	stcne	0, cr0, [r0, #-72]	; 0xffffffb8
    4b88:	000001b8 			; <UNDEFINED> instruction: 0x000001b8
    4b8c:	0001df1e 	andeq	sp, r1, lr, lsl pc
    4b90:	0012ae00 	andseq	sl, r2, r0, lsl #28
    4b94:	27000000 	strcs	r0, [r0, -r0]
    4b98:	00000194 	muleq	r0, r4, r1
    4b9c:	000021a8 	andeq	r2, r0, r8, lsr #3
    4ba0:	00000010 	andeq	r0, r0, r0, lsl r0
    4ba4:	4c01b301 	stcmi	3, cr11, [r1], {1}
    4ba8:	1c000008 	stcne	0, cr0, [r0], {8}
    4bac:	000001af 	andeq	r0, r0, pc, lsr #3
    4bb0:	000012e4 	andeq	r1, r0, r4, ror #5
    4bb4:	0001a428 	andeq	sl, r1, r8, lsr #8
    4bb8:	21a82900 			; <UNDEFINED> instruction: 0x21a82900
    4bbc:	00100000 	andseq	r0, r0, r0
    4bc0:	ba2a0000 	blt	a84bc8 <__bss_end+0xa81a4c>
    4bc4:	00000001 	andeq	r0, r0, r1
    4bc8:	01c62600 	biceq	r2, r6, r0, lsl #12
    4bcc:	21d80000 	bicscs	r0, r8, r0
    4bd0:	01d00000 	bicseq	r0, r0, r0
    4bd4:	a6010000 	strge	r0, [r1], -r0
    4bd8:	00087901 	andeq	r7, r8, r1, lsl #18
    4bdc:	01d61c00 	bicseq	r1, r6, r0, lsl #24
    4be0:	13040000 	movwne	r0, #16384	; 0x4000
    4be4:	d01d0000 	andsle	r0, sp, r0
    4be8:	1e000001 	cdpne	0, 0, cr0, cr0, cr1, {0}
    4bec:	000001df 	ldrdeq	r0, [r0], -pc	; <UNPREDICTABLE>
    4bf0:	00001322 	andeq	r1, r0, r2, lsr #6
    4bf4:	94270000 	strtls	r0, [r7], #-0
    4bf8:	14000001 	strne	r0, [r0], #-1
    4bfc:	10000022 	andne	r0, r0, r2, lsr #32
    4c00:	01000000 	mrseq	r0, (UNDEF: 0)
    4c04:	08ab01a8 	stmiaeq	fp!, {r3, r5, r7, r8}
    4c08:	af1c0000 	svcge	0x001c0000
    4c0c:	58000001 	stmdapl	r0, {r0}
    4c10:	28000013 	stmdacs	r0, {r0, r1, r4}
    4c14:	000001a4 	andeq	r0, r0, r4, lsr #3
    4c18:	00221429 	eoreq	r1, r2, r9, lsr #8
    4c1c:	00001000 	andeq	r1, r0, r0
    4c20:	01ba2a00 			; <UNDEFINED> instruction: 0x01ba2a00
    4c24:	00000000 	andeq	r0, r0, r0
    4c28:	00207c2b 	eoreq	r7, r0, fp, lsr #24
    4c2c:	00099200 	andeq	r9, r9, r0, lsl #4
    4c30:	0008c200 	andeq	ip, r8, r0, lsl #4
    4c34:	50012c00 	andpl	r2, r1, r0, lsl #24
    4c38:	2e700305 	cdpcs	3, 7, cr0, cr0, cr5, {0}
    4c3c:	2b000000 	blcs	4c44 <__bss_end+0x1ac8>
    4c40:	000020ac 	andeq	r2, r0, ip, lsr #1
    4c44:	0000026f 	andeq	r0, r0, pc, ror #4
    4c48:	000008db 	ldrdeq	r0, [r0], -fp
    4c4c:	0251012c 	subseq	r0, r1, #44, 2
    4c50:	012c0078 			; <UNDEFINED> instruction: 0x012c0078
    4c54:	003a0152 	eorseq	r0, sl, r2, asr r1
    4c58:	0020dc2b 	eoreq	sp, r0, fp, lsr #24
    4c5c:	0002e900 	andeq	lr, r2, r0, lsl #18
    4c60:	0008fb00 	andeq	pc, r8, r0, lsl #22
    4c64:	50012c00 	andpl	r2, r1, r0, lsl #24
    4c68:	2c007802 	stccs	8, cr7, [r0], {2}
    4c6c:	7a025101 	bvc	99078 <__bss_end+0x95efc>
    4c70:	52012c00 	andpl	r2, r1, #0, 24
    4c74:	00007902 	andeq	r7, r0, r2, lsl #18
    4c78:	00216c2b 	eoreq	r6, r1, fp, lsr #24
    4c7c:	00026f00 	andeq	r6, r2, r0, lsl #30
    4c80:	00091400 	andeq	r1, r9, r0, lsl #8
    4c84:	51012c00 	tstpl	r1, r0, lsl #24
    4c88:	2c007802 	stccs	8, cr7, [r0], {2}
    4c8c:	40015201 	andmi	r5, r1, r1, lsl #4
    4c90:	219c2b00 	orrscs	r2, ip, r0, lsl #22
    4c94:	02e90000 	rsceq	r0, r9, #0
    4c98:	09340000 	ldmdbeq	r4!, {}	; <UNPREDICTABLE>
    4c9c:	012c0000 			; <UNDEFINED> instruction: 0x012c0000
    4ca0:	00780250 	rsbseq	r0, r8, r0, asr r2
    4ca4:	0251012c 	subseq	r0, r1, #44, 2
    4ca8:	012c007a 			; <UNDEFINED> instruction: 0x012c007a
    4cac:	00790252 	rsbseq	r0, r9, r2, asr r2
    4cb0:	21d82b00 	bicscs	r2, r8, r0, lsl #22
    4cb4:	037e0000 	cmneq	lr, #0
    4cb8:	09480000 	stmdbeq	r8, {}^	; <UNPREDICTABLE>
    4cbc:	012c0000 			; <UNDEFINED> instruction: 0x012c0000
    4cc0:	00780251 	rsbseq	r0, r8, r1, asr r2
    4cc4:	22082d00 	andcs	r2, r8, #0, 26
    4cc8:	02e90000 	rsceq	r0, r9, #0
    4ccc:	012c0000 			; <UNDEFINED> instruction: 0x012c0000
    4cd0:	00780250 	rsbseq	r0, r8, r0, asr r2
    4cd4:	0251012c 	subseq	r0, r1, #44, 2
    4cd8:	012c007a 			; <UNDEFINED> instruction: 0x012c007a
    4cdc:	00790252 	rsbseq	r0, r9, r2, asr r2
    4ce0:	09110000 	ldmdbeq	r1, {}	; <UNPREDICTABLE>
    4ce4:	75000001 	strvc	r0, [r0, #-1]
    4ce8:	12000009 	andne	r0, r0, #9
    4cec:	00000073 	andeq	r0, r0, r3, ror r0
    4cf0:	ed1a00ff 	ldc	0, cr0, [sl, #-1020]	; 0xfffffc04
    4cf4:	01000017 	tsteq	r0, r7, lsl r0
    4cf8:	0965010d 	stmdbeq	r5!, {r0, r2, r3, r8}^
    4cfc:	03050000 	movweq	r0, #20480	; 0x5000
    4d00:	00002e70 	andeq	r2, r0, r0, ror lr
    4d04:	000d9e2e 	andeq	r9, sp, lr, lsr #28
    4d08:	000d9e00 	andeq	r9, sp, r0, lsl #28
    4d0c:	2e360400 	cfabsscs	mvf0, mvf6
    4d10:	000007d1 	ldrdeq	r0, [r0], -r1
    4d14:	000007d1 	ldrdeq	r0, [r0], -r1
    4d18:	99003904 	stmdbls	r0, {r2, r8, fp, ip, sp}
    4d1c:	02000000 	andeq	r0, r0, #0
    4d20:	000f8800 	andeq	r8, pc, r0, lsl #16
    4d24:	16010400 	strne	r0, [r1], -r0, lsl #8
    4d28:	74000010 	strvc	r0, [r0], #-16
    4d2c:	50000022 	andpl	r0, r0, r2, lsr #32
    4d30:	61000024 	tstvs	r0, r4, lsr #32
    4d34:	2f686372 	svccs	0x00686372
    4d38:	2f6d7261 	svccs	0x006d7261
    4d3c:	6863616d 	stmdavs	r3!, {r0, r2, r3, r5, r6, r8, sp, lr}^
    4d40:	6e75732d 	cdpvs	3, 7, cr7, cr5, cr13, {1}
    4d44:	702f6978 	eorvc	r6, pc, r8, ror r9	; <UNPREDICTABLE>
    4d48:	74732f6d 	ldrbtvc	r2, [r3], #-3949	; 0xfffff093
    4d4c:	62646e61 	rsbvs	r6, r4, #1552	; 0x610
    4d50:	2e2e2f79 	mcrcs	15, 1, r2, cr14, cr9, {3}
    4d54:	6d656d2f 	stclvs	13, cr6, [r5, #-188]!	; 0xffffff44
    4d58:	7669645f 			; <UNDEFINED> instruction: 0x7669645f
    4d5c:	2e62696c 	cdpcs	9, 6, cr6, cr2, cr12, {3}
    4d60:	682f0053 	stmdavs	pc!, {r0, r1, r4, r6}	; <UNPREDICTABLE>
    4d64:	2f656d6f 	svccs	0x00656d6f
    4d68:	687a6f61 	ldmdavs	sl!, {r0, r5, r6, r8, r9, sl, fp, sp, lr}^
    4d6c:	702f756f 	eorvc	r7, pc, pc, ror #10
    4d70:	775f6275 			; <UNDEFINED> instruction: 0x775f6275
    4d74:	2f6b726f 	svccs	0x006b726f
    4d78:	6e6f687a 	mcrvs	8, 3, r6, cr15, cr10, {3}
    4d7c:	5f706c67 	svcpl	0x00706c67
    4d80:	65646f63 	strbvs	r6, [r4, #-3939]!	; 0xfffff09d
    4d84:	6f72702f 	svcvs	0x0072702f
    4d88:	7463656a 	strbtvc	r6, [r3], #-1386	; 0xfffffa96
    4d8c:	3631522f 	ldrtcc	r5, [r1], -pc, lsr #4
    4d90:	2f39445f 	svccs	0x0039445f
    4d94:	616e6974 	smcvs	59028	; 0xe694
    4d98:	63696c2f 	cmnvs	r9, #12032	; 0x2f00
    4d9c:	2f656568 	svccs	0x00656568
    4da0:	756e696c 	strbvc	r6, [lr, #-2412]!	; 0xfffff694
    4da4:	2e332d78 	mrccs	13, 1, r2, cr3, cr8, {3}
    4da8:	4e470034 	mcrmi	0, 2, r0, cr7, cr4, {1}
    4dac:	53412055 	movtpl	r2, #4181	; 0x1055
    4db0:	322e3220 	eorcc	r3, lr, #32, 4
    4db4:	80010036 	andhi	r0, r1, r6, lsr r0
    4db8:	0000011e 	andeq	r0, r0, lr, lsl r1
    4dbc:	0f9c0004 	svceq	0x009c0004
    4dc0:	01040000 	mrseq	r0, (UNDEF: 4)
    4dc4:	00000000 	andeq	r0, r0, r0
    4dc8:	0018cd0c 	andseq	ip, r8, ip, lsl #26
    4dcc:	0001f000 	andeq	pc, r1, r0
    4dd0:	00245000 	eoreq	r5, r4, r0
    4dd4:	00006000 	andeq	r6, r0, r0
    4dd8:	0010c300 	andseq	ip, r0, r0, lsl #6
    4ddc:	06010200 	streq	r0, [r1], -r0, lsl #4
    4de0:	00000114 	andeq	r0, r0, r4, lsl r1
    4de4:	12080102 	andne	r0, r8, #-2147483648	; 0x80000000
    4de8:	02000001 	andeq	r0, r0, #1
    4dec:	02810502 	addeq	r0, r1, #8388608	; 0x800000
    4df0:	02020000 	andeq	r0, r2, #0
    4df4:	00013607 	andeq	r3, r1, r7, lsl #12
    4df8:	127d0300 	rsbsne	r0, sp, #0, 6
    4dfc:	12020000 	andne	r0, r2, #0
    4e00:	0000004c 	andeq	r0, r0, ip, asr #32
    4e04:	69050404 	stmdbvs	r5, {r2, sl}
    4e08:	0300746e 	movweq	r7, #1134	; 0x46e
    4e0c:	00000a90 	muleq	r0, r0, sl
    4e10:	005e1302 	subseq	r1, lr, r2, lsl #6
    4e14:	04020000 	streq	r0, [r2], #-0
    4e18:	0001b707 	andeq	fp, r1, r7, lsl #14
    4e1c:	05080200 	streq	r0, [r8, #-512]	; 0xfffffe00
    4e20:	00000241 	andeq	r0, r0, r1, asr #4
    4e24:	ad070802 	stcge	8, cr0, [r7, #-8]
    4e28:	02000001 	andeq	r0, r0, #1
    4e2c:	02380704 	eorseq	r0, r8, #4, 14	; 0x100000
    4e30:	01020000 	mrseq	r0, (UNDEF: 2)
    4e34:	00011b08 	andeq	r1, r1, r8, lsl #22
    4e38:	07040200 	streq	r0, [r4, -r0, lsl #4]
    4e3c:	000001b2 			; <UNDEFINED> instruction: 0x000001b2
    4e40:	0018a105 	andseq	sl, r8, r5, lsl #2
    4e44:	500d0100 	andpl	r0, sp, r0, lsl #2
    4e48:	0c000024 	stceq	0, cr0, [r0], {36}	; 0x24
    4e4c:	01000000 	mrseq	r0, (UNDEF: 0)
    4e50:	0000b19c 	muleq	r0, ip, r1
    4e54:	245c0600 	ldrbcs	r0, [ip], #-1536	; 0xfffffa00
    4e58:	01160000 	tsteq	r6, r0
    4e5c:	01070000 	mrseq	r0, (UNDEF: 7)
    4e60:	70030550 	andvc	r0, r3, r0, asr r5
    4e64:	0000002d 	andeq	r0, r0, sp, lsr #32
    4e68:	135d0800 	cmpne	sp, #0, 16
    4e6c:	12010000 	andne	r0, r1, #0
    4e70:	00000053 	andeq	r0, r0, r3, asr r0
    4e74:	0000245c 	andeq	r2, r0, ip, asr r4
    4e78:	00000054 	andeq	r0, r0, r4, asr r0
    4e7c:	01169c01 	tsteq	r6, r1, lsl #24
    4e80:	bd090000 	stclt	0, cr0, [r9, #-0]
    4e84:	01000018 	tsteq	r0, r8, lsl r0
    4e88:	00005312 	andeq	r5, r0, r2, lsl r3
    4e8c:	00137800 	andseq	r7, r3, r0, lsl #16
    4e90:	18b40900 	ldmne	r4!, {r8, fp}
    4e94:	12010000 	andne	r0, r1, #0
    4e98:	00000053 	andeq	r0, r0, r3, asr r0
    4e9c:	000013af 	andeq	r1, r0, pc, lsr #7
    4ea0:	0018c60a 	andseq	ip, r8, sl, lsl #12
    4ea4:	53140100 	tstpl	r4, #0, 2
    4ea8:	db000000 	blle	4eb0 <__bss_end+0x1d34>
    4eac:	0a000013 	beq	4f00 <__bss_end+0x1d84>
    4eb0:	000018ac 	andeq	r1, r0, ip, lsr #17
    4eb4:	00531501 	subseq	r1, r3, r1, lsl #10
    4eb8:	14130000 	ldrne	r0, [r3], #-0
    4ebc:	fd0a0000 	stc2	0, cr0, [sl, #-0]
    4ec0:	01000018 	tsteq	r0, r8, lsl r0
    4ec4:	00004116 	andeq	r4, r0, r6, lsl r1
    4ec8:	00143e00 	andseq	r3, r4, r0, lsl #28
    4ecc:	0d0b0000 	stceq	0, cr0, [fp, #-0]
    4ed0:	0d00000b 	stceq	0, cr0, [r0, #-44]	; 0xffffffd4
    4ed4:	0300000b 	movweq	r0, #11
    4ed8:	02fb0018 	rscseq	r0, fp, #24
    4edc:	00040000 	andeq	r0, r4, r0
    4ee0:	00001052 	andeq	r1, r0, r2, asr r0
    4ee4:	00000104 	andeq	r0, r0, r4, lsl #2
    4ee8:	170c0000 	strne	r0, [ip, -r0]
    4eec:	f0000019 			; <UNDEFINED> instruction: 0xf0000019
    4ef0:	b0000001 	andlt	r0, r0, r1
    4ef4:	80000024 	andhi	r0, r0, r4, lsr #32
    4ef8:	57000001 	strpl	r0, [r0, -r1]
    4efc:	02000011 	andeq	r0, r0, #17
    4f00:	01140601 	tsteq	r4, r1, lsl #12
    4f04:	01020000 	mrseq	r0, (UNDEF: 2)
    4f08:	00011208 	andeq	r1, r1, r8, lsl #4
    4f0c:	05020200 	streq	r0, [r2, #-512]	; 0xfffffe00
    4f10:	00000281 	andeq	r0, r0, r1, lsl #5
    4f14:	36070202 	strcc	r0, [r7], -r2, lsl #4
    4f18:	03000001 	movweq	r0, #1
    4f1c:	0000127d 	andeq	r1, r0, sp, ror r2
    4f20:	004c1202 	subeq	r1, ip, r2, lsl #4
    4f24:	04040000 	streq	r0, [r4], #-0
    4f28:	746e6905 	strbtvc	r6, [lr], #-2309	; 0xfffff6fb
    4f2c:	0a900300 	beq	fe405b34 <__bss_end+0xfe4029b8>
    4f30:	13020000 	movwne	r0, #8192	; 0x2000
    4f34:	0000005e 	andeq	r0, r0, lr, asr r0
    4f38:	b7070402 	strlt	r0, [r7, -r2, lsl #8]
    4f3c:	02000001 	andeq	r0, r0, #1
    4f40:	02410508 	subeq	r0, r1, #8, 10	; 0x2000000
    4f44:	08020000 	stmdaeq	r2, {}	; <UNPREDICTABLE>
    4f48:	0001ad07 	andeq	sl, r1, r7, lsl #26
    4f4c:	00530500 	subseq	r0, r3, r0, lsl #10
    4f50:	04020000 	streq	r0, [r2], #-0
    4f54:	00023807 	andeq	r3, r2, r7, lsl #16
    4f58:	19af0600 	stmibne	pc!, {r9, sl}	; <UNPREDICTABLE>
    4f5c:	5e040000 	cdppl	0, 0, cr0, cr4, cr0, {0}
    4f60:	03000000 	movweq	r0, #0
    4f64:	00012c18 	andeq	r2, r1, r8, lsl ip
    4f68:	1aef0700 	bne	ffbc6b70 <__bss_end+0xffbc39f4>
    4f6c:	07320000 	ldreq	r0, [r2, -r0]!
    4f70:	00001b01 	andeq	r1, r0, r1, lsl #22
    4f74:	197f0733 	ldmdbne	pc!, {r0, r1, r4, r5, r8, r9, sl}^	; <UNPREDICTABLE>
    4f78:	07000000 	streq	r0, [r0, -r0]
    4f7c:	00001a7e 	andeq	r1, r0, lr, ror sl
    4f80:	1acb073e 	bne	ff2c6c80 <__bss_end+0xff2c3b04>
    4f84:	07400000 	strbeq	r0, [r0, -r0]
    4f88:	00001b48 	andeq	r1, r0, r8, asr #22
    4f8c:	1b620751 	blne	1886cd8 <__bss_end+0x1883b5c>
    4f90:	07000000 	streq	r0, [r0, -r0]
    4f94:	00001b2a 	andeq	r1, r0, sl, lsr #22
    4f98:	1b390700 	blne	e46ba0 <__bss_end+0xe43a24>
    4f9c:	07000000 	streq	r0, [r0, -r0]
    4fa0:	00001a6c 	andeq	r1, r0, ip, ror #20
    4fa4:	19430767 	stmdbne	r3, {r0, r1, r2, r5, r6, r8, r9, sl}^
    4fa8:	07680000 	strbeq	r0, [r8, -r0]!
    4fac:	00001957 	andeq	r1, r0, r7, asr r9
    4fb0:	196b0700 	stmdbne	fp!, {r8, r9, sl}^
    4fb4:	07000000 	streq	r0, [r0, -r0]
    4fb8:	00001a8f 	andeq	r1, r0, pc, lsl #21
    4fbc:	1aa30769 	bne	fe8c6d68 <__bss_end+0xfe8c3bec>
    4fc0:	07000000 	streq	r0, [r0, -r0]
    4fc4:	00001ab7 			; <UNDEFINED> instruction: 0x00001ab7
    4fc8:	19c20700 	stmibne	r2, {r8, r9, sl}^
    4fcc:	072b0000 	streq	r0, [fp, -r0]!
    4fd0:	000019d3 	ldrdeq	r1, [r0], -r3
    4fd4:	19e4072f 	stmibne	r4!, {r0, r1, r2, r3, r5, r8, r9, sl}^
    4fd8:	07000000 	streq	r0, [r0, -r0]
    4fdc:	000019f5 	strdeq	r1, [r0], -r5
    4fe0:	1a060700 	bne	186be8 <__bss_end+0x183a6c>
    4fe4:	07000000 	streq	r0, [r0, -r0]
    4fe8:	00001a17 	andeq	r1, r0, r7, lsl sl
    4fec:	1a280700 	bne	a06bf4 <__bss_end+0xa03a78>
    4ff0:	07310000 	ldreq	r0, [r1, -r0]!
    4ff4:	00001a39 	andeq	r1, r0, r9, lsr sl
    4ff8:	1a4a0700 	bne	1286c00 <__bss_end+0x1283a84>
    4ffc:	07000000 	streq	r0, [r0, -r0]
    5000:	00001a5b 	andeq	r1, r0, fp, asr sl
    5004:	da060000 	ble	18500c <__bss_end+0x181e90>
    5008:	04000001 	streq	r0, [r0], #-1
    500c:	0000005e 	andeq	r0, r0, lr, asr r0
    5010:	01bb8904 			; <UNDEFINED> instruction: 0x01bb8904
    5014:	d4070000 	strle	r0, [r7], #-0
    5018:	00000000 	andeq	r0, r0, r0
    501c:	00012907 	andeq	r2, r1, r7, lsl #18
    5020:	e1070100 	mrs	r0, (UNDEF: 23)
    5024:	02000000 	andeq	r0, r0, #0
    5028:	00010607 	andeq	r0, r1, r7, lsl #12
    502c:	5c070300 	stcpl	3, cr0, [r7], {-0}
    5030:	04000002 	streq	r0, [r0], #-2
    5034:	0001a107 	andeq	sl, r1, r7, lsl #2
    5038:	89070500 	stmdbhi	r7, {r8, sl}
    503c:	06000001 	streq	r0, [r0], -r1
    5040:	0001c407 	andeq	ip, r1, r7, lsl #8
    5044:	c8070700 	stmdagt	r7, {r8, r9, sl}
    5048:	08000000 	stmdaeq	r0, {}	; <UNPREDICTABLE>
    504c:	0000fb07 	andeq	pc, r0, r7, lsl #22
    5050:	96070900 	strls	r0, [r7], -r0, lsl #18
    5054:	0a000001 	beq	5060 <__bss_end+0x1ee4>
    5058:	00027607 	andeq	r7, r2, r7, lsl #12
    505c:	d4070b00 	strle	r0, [r7], #-2816	; 0xfffff500
    5060:	0c000001 	stceq	0, cr0, [r0], {1}
    5064:	0002e607 	andeq	lr, r2, r7, lsl #12
    5068:	31070d00 	tstcc	r7, r0, lsl #26
    506c:	0e000003 	cdpeq	0, 0, cr0, cr0, cr3, {0}
    5070:	00026807 	andeq	r6, r2, r7, lsl #16
    5074:	01070f00 	tsteq	r7, r0, lsl #30
    5078:	10000003 	andne	r0, r0, r3
    507c:	00024f07 	andeq	r4, r2, r7, lsl #30
    5080:	1b071100 	blne	1c9488 <__bss_end+0x1c630c>
    5084:	12000003 	andne	r0, r0, #3
    5088:	0000ee07 	andeq	lr, r0, r7, lsl #28
    508c:	d8071300 	stmdale	r7, {r8, r9, ip}
    5090:	14000002 	strne	r0, [r0], #-2
    5094:	08010200 	stmdaeq	r1, {r9}
    5098:	0000011b 	andeq	r0, r0, fp, lsl r1
    509c:	b2070402 	andlt	r0, r7, #33554432	; 0x2000000
    50a0:	08000001 	stmdaeq	r0, {r0}
    50a4:	19930904 	ldmibne	r3, {r2, r8, fp}
    50a8:	22010000 	andcs	r0, r1, #0
    50ac:	00000041 	andeq	r0, r0, r1, asr #32
    50b0:	000024b0 			; <UNDEFINED> instruction: 0x000024b0
    50b4:	00000090 	muleq	r0, r0, r0
    50b8:	02059c01 	andeq	r9, r5, #256	; 0x100
    50bc:	690a0000 	stmdbvs	sl, {}	; <UNPREDICTABLE>
    50c0:	53240100 			; <UNDEFINED> instruction: 0x53240100
    50c4:	8c000000 	stchi	0, cr0, [r0], {-0}
    50c8:	0b000014 	bleq	5120 <__bss_end+0x1fa4>
    50cc:	00002530 	andeq	r2, r0, r0, lsr r5
    50d0:	000002f3 	strdeq	r0, [r0], -r3
    50d4:	0550010c 	ldrbeq	r0, [r0, #-268]	; 0xfffffef4
    50d8:	002d8c03 	eoreq	r8, sp, r3, lsl #24
    50dc:	09000000 	stmdbeq	r0, {}	; <UNPREDICTABLE>
    50e0:	0000190a 	andeq	r1, r0, sl, lsl #18
    50e4:	00415701 	subeq	r5, r1, r1, lsl #14
    50e8:	25400000 	strbcs	r0, [r0, #-0]
    50ec:	00500000 	subseq	r0, r0, r0
    50f0:	9c010000 	stcls	0, cr0, [r1], {-0}
    50f4:	0000023a 	andeq	r0, r0, sl, lsr r2
    50f8:	0100690a 	tsteq	r0, sl, lsl #18
    50fc:	00004c59 	andeq	r4, r0, r9, asr ip
    5100:	0014fa00 	andseq	pc, r4, r0, lsl #20
    5104:	1add0d00 	bne	ff74850c <__bss_end+0xff745390>
    5108:	5a010000 	bpl	45110 <__bss_end+0x41f94>
    510c:	00000073 	andeq	r0, r0, r3, ror r0
    5110:	007c9102 	rsbseq	r9, ip, r2, lsl #2
    5114:	0019a009 	andseq	sl, r9, r9
    5118:	41710100 	cmnmi	r1, r0, lsl #2
    511c:	90000000 	andls	r0, r0, r0
    5120:	4c000025 	stcmi	0, cr0, [r0], {37}	; 0x25
    5124:	01000000 	mrseq	r0, (UNDEF: 0)
    5128:	0002819c 	muleq	r2, ip, r1
    512c:	72730e00 	rsbsvc	r0, r3, #0, 28
    5130:	71010063 	tstvc	r1, r3, rrx
    5134:	0000007f 	andeq	r0, r0, pc, ror r0
    5138:	0000153e 	andeq	r1, r0, lr, lsr r5
    513c:	001b5b0f 	andseq	r5, fp, pc, lsl #22
    5140:	53730100 	cmnpl	r3, #0, 2
    5144:	5f000000 	svcpl	0x00000000
    5148:	0f000015 	svceq	0x00000015
    514c:	00001ae8 	andeq	r1, r0, r8, ror #21
    5150:	00537401 	subseq	r7, r3, r1, lsl #8
    5154:	15910000 	ldrne	r0, [r1]
    5158:	09000000 	stmdbeq	r0, {}	; <UNPREDICTABLE>
    515c:	00001b1c 	andeq	r1, r0, ip, lsl fp
    5160:	00419301 	subeq	r9, r1, r1, lsl #6
    5164:	25dc0000 	ldrbcs	r0, [ip]
    5168:	00540000 	subseq	r0, r4, r0
    516c:	9c010000 	stcls	0, cr0, [r1], {-0}
    5170:	000002d7 	ldrdeq	r0, [r0], -r7
    5174:	6372730e 	cmnvs	r2, #939524096	; 0x38000000
    5178:	7f930100 	svcvc	0x00930100
    517c:	b4000000 	strlt	r0, [r0], #-0
    5180:	0f000015 	svceq	0x00000015
    5184:	00001903 	andeq	r1, r0, r3, lsl #18
    5188:	00419501 	subeq	r9, r1, r1, lsl #10
    518c:	15d50000 	ldrbne	r0, [r5]
    5190:	5b0f0000 	blpl	3c5198 <__bss_end+0x3c201c>
    5194:	0100001b 	tsteq	r0, fp, lsl r0
    5198:	00005396 	muleq	r0, r6, r3
    519c:	00160700 	andseq	r0, r6, r0, lsl #14
    51a0:	1ae80f00 	bne	ffa08da8 <__bss_end+0xffa05c2c>
    51a4:	97010000 	strls	r0, [r1, -r0]
    51a8:	00000053 	andeq	r0, r0, r3, asr r0
    51ac:	00001635 	andeq	r1, r0, r5, lsr r6
    51b0:	1b130d00 	blne	4c85b8 <__bss_end+0x4c543c>
    51b4:	14010000 	strne	r0, [r1], #-0
    51b8:	000001c9 	andeq	r0, r0, r9, asr #3
    51bc:	2f700305 	svccs	0x00700305
    51c0:	73100000 	tstvc	r0, #0
    51c4:	0100001b 	tsteq	r0, fp, lsl r0
    51c8:	0001c915 	andeq	ip, r1, r5, lsl r9
    51cc:	0b0d1100 	bleq	3495d4 <__bss_end+0x346458>
    51d0:	0b0d0000 	bleq	3451d8 <__bss_end+0x34205c>
    51d4:	18050000 	stmdane	r5, {}	; <UNPREDICTABLE>
    51d8:	00011d00 	andeq	r1, r1, r0, lsl #26
    51dc:	3e000400 	cfcpyscc	mvf0, mvf0
    51e0:	04000011 	streq	r0, [r0], #-17	; 0xffffffef
    51e4:	00000001 	andeq	r0, r0, r1
    51e8:	1ba70c00 	blne	fe9c81f0 <__bss_end+0xfe9c5074>
    51ec:	01f00000 	mvnseq	r0, r0
    51f0:	26300000 	ldrtcs	r0, [r0], -r0
    51f4:	00580000 	subseq	r0, r8, r0
    51f8:	127d0000 	rsbsne	r0, sp, #0
    51fc:	01020000 	mrseq	r0, (UNDEF: 2)
    5200:	00011406 	andeq	r1, r1, r6, lsl #8
    5204:	08010200 	stmdaeq	r1, {r9}
    5208:	00000112 	andeq	r0, r0, r2, lsl r1
    520c:	81050202 	tsthi	r5, r2, lsl #4
    5210:	02000002 	andeq	r0, r0, #2
    5214:	01360702 	teqeq	r6, r2, lsl #14
    5218:	7d030000 	stcvc	0, cr0, [r3, #-0]
    521c:	02000012 	andeq	r0, r0, #18
    5220:	00004c12 	andeq	r4, r0, r2, lsl ip
    5224:	05040400 	streq	r0, [r4, #-1024]	; 0xfffffc00
    5228:	00746e69 	rsbseq	r6, r4, r9, ror #28
    522c:	000a9003 	andeq	r9, sl, r3
    5230:	5e130200 	cdppl	2, 1, cr0, cr3, cr0, {0}
    5234:	02000000 	andeq	r0, r0, #0
    5238:	01b70704 			; <UNDEFINED> instruction: 0x01b70704
    523c:	08020000 	stmdaeq	r2, {}	; <UNPREDICTABLE>
    5240:	00024105 	andeq	r4, r2, r5, lsl #2
    5244:	07080200 	streq	r0, [r8, -r0, lsl #4]
    5248:	000001ad 	andeq	r0, r0, sp, lsr #3
    524c:	38070402 	stmdacc	r7, {r1, sl}
    5250:	05000002 	streq	r0, [r0, #-2]
    5254:	00001b9c 	muleq	r0, ip, fp
    5258:	1603025c 			; <UNDEFINED> instruction: 0x1603025c
    525c:	00000094 	muleq	r0, r4, r0
    5260:	001b8d06 	andseq	r8, fp, r6, lsl #26
    5264:	94170300 	ldrls	r0, [r7], #-768	; 0xfffffd00
    5268:	00000000 	andeq	r0, r0, r0
    526c:	00530700 	subseq	r0, r3, r0, lsl #14
    5270:	00a40000 	adceq	r0, r4, r0
    5274:	73080000 	movwvc	r0, #32768	; 0x8000
    5278:	96000000 	strls	r0, [r0], -r0
    527c:	08010200 	stmdaeq	r1, {r9}
    5280:	0000011b 	andeq	r0, r0, fp, lsl r1
    5284:	b2070402 	andlt	r0, r7, #33554432	; 0x2000000
    5288:	09000001 	stmdbeq	r0, {r0}
    528c:	00001bd4 	ldrdeq	r1, [r0], -r4
    5290:	00411901 	subeq	r1, r1, r1, lsl #18
    5294:	26300000 	ldrtcs	r0, [r0], -r0
    5298:	002c0000 	eoreq	r0, ip, r0
    529c:	9c010000 	stcls	0, cr0, [r1], {-0}
    52a0:	000000e8 	andeq	r0, r0, r8, ror #1
    52a4:	001b9b0a 	andseq	r9, fp, sl, lsl #22
    52a8:	e8190100 	ldmda	r9, {r8}
    52ac:	73000000 	movwvc	r0, #0
    52b0:	0b000016 	bleq	5310 <__bss_end+0x2194>
    52b4:	1b010069 	blne	45460 <__bss_end+0x422e4>
    52b8:	0000004c 	andeq	r0, r0, ip, asr #32
    52bc:	000016a1 	andeq	r1, r0, r1, lsr #13
    52c0:	7a040c00 	bvc	1082c8 <__bss_end+0x10514c>
    52c4:	0d000000 	stceq	0, cr0, [r0, #-0]
    52c8:	00001b7c 	andeq	r1, r0, ip, ror fp
    52cc:	00412f01 	subeq	r2, r1, r1, lsl #30
    52d0:	265c0000 	ldrbcs	r0, [ip], -r0
    52d4:	002c0000 	eoreq	r0, ip, r0
    52d8:	9c010000 	stcls	0, cr0, [r1], {-0}
    52dc:	001b9b0a 	andseq	r9, fp, sl, lsl #22
    52e0:	e82f0100 	stmda	pc!, {r8}	; <UNPREDICTABLE>
    52e4:	b5000000 	strlt	r0, [r0, #-0]
    52e8:	0b000016 	bleq	5348 <__bss_end+0x21cc>
    52ec:	31010069 	tstcc	r1, r9, rrx
    52f0:	0000004c 	andeq	r0, r0, ip, asr #32
    52f4:	000016e3 	andeq	r1, r0, r3, ror #13
    52f8:	04470000 	strbeq	r0, [r7], #-0
    52fc:	00040000 	andeq	r0, r4, r0
    5300:	00001202 	andeq	r1, r0, r2, lsl #4
    5304:	00000104 	andeq	r0, r0, r4, lsl #2
    5308:	880c0000 	stmdahi	ip, {}	; <UNPREDICTABLE>
    530c:	f000001c 			; <UNDEFINED> instruction: 0xf000001c
    5310:	88000001 	stmdahi	r0, {r0}
    5314:	e0000026 	and	r0, r0, r6, lsr #32
    5318:	22000001 	andcs	r0, r0, #1
    531c:	02000013 	andeq	r0, r0, #19
    5320:	01140601 	tsteq	r4, r1, lsl #12
    5324:	01020000 	mrseq	r0, (UNDEF: 2)
    5328:	00011208 	andeq	r1, r1, r8, lsl #4
    532c:	05020200 	streq	r0, [r2, #-512]	; 0xfffffe00
    5330:	00000281 	andeq	r0, r0, r1, lsl #5
    5334:	36070202 	strcc	r0, [r7], -r2, lsl #4
    5338:	03000001 	movweq	r0, #1
    533c:	0000127d 	andeq	r1, r0, sp, ror r2
    5340:	004c1202 	subeq	r1, ip, r2, lsl #4
    5344:	04040000 	streq	r0, [r4], #-0
    5348:	746e6905 	strbtvc	r6, [lr], #-2309	; 0xfffff6fb
    534c:	0a900300 	beq	fe405f54 <__bss_end+0xfe402dd8>
    5350:	13020000 	movwne	r0, #8192	; 0x2000
    5354:	0000005e 	andeq	r0, r0, lr, asr r0
    5358:	b7070402 	strlt	r0, [r7, -r2, lsl #8]
    535c:	02000001 	andeq	r0, r0, #1
    5360:	02410508 	subeq	r0, r1, #8, 10	; 0x2000000
    5364:	08020000 	stmdaeq	r2, {}	; <UNPREDICTABLE>
    5368:	0001ad07 	andeq	sl, r1, r7, lsl #26
    536c:	00530500 	subseq	r0, r3, r0, lsl #10
    5370:	53060000 	movwpl	r0, #24576	; 0x6000
    5374:	88000000 	stmdahi	r0, {}	; <UNPREDICTABLE>
    5378:	07000000 	streq	r0, [r0, -r0]
    537c:	00000088 	andeq	r0, r0, r8, lsl #1
    5380:	04020003 	streq	r0, [r2], #-3
    5384:	00023807 	andeq	r3, r2, r7, lsl #16
    5388:	00530600 	subseq	r0, r3, r0, lsl #12
    538c:	009f0000 	addseq	r0, pc, r0
    5390:	88070000 	stmdahi	r7, {}	; <UNPREDICTABLE>
    5394:	01000000 	mrseq	r0, (UNDEF: 0)
    5398:	1d6a0800 	stclne	8, cr0, [sl, #-0]
    539c:	03bc0000 			; <UNDEFINED> instruction: 0x03bc0000
    53a0:	00026815 	andeq	r6, r2, r5, lsl r8
    53a4:	1bf80900 	blne	ffe077ac <__bss_end+0xffe04630>
    53a8:	18030000 	stmdane	r3, {}	; <UNPREDICTABLE>
    53ac:	00000073 	andeq	r0, r0, r3, ror r0
    53b0:	1d530900 	ldclne	9, cr0, [r3, #-0]
    53b4:	19030000 	stmdbne	r3, {}	; <UNPREDICTABLE>
    53b8:	00000073 	andeq	r0, r0, r3, ror r0
    53bc:	0d440904 	stcleq	9, cr0, [r4, #-16]
    53c0:	1a030000 	bne	c53c8 <__bss_end+0xc224c>
    53c4:	00000268 	andeq	r0, r0, r8, ror #4
    53c8:	1e060908 	cdpne	9, 0, cr0, cr6, cr8, {0}
    53cc:	1c030000 	stcne	0, cr0, [r3], {-0}
    53d0:	00000073 	andeq	r0, r0, r3, ror r0
    53d4:	1bff0910 	blne	fffc781c <__bss_end+0xfffc46a0>
    53d8:	1d030000 	stcne	0, cr0, [r3, #-0]
    53dc:	00000073 	andeq	r0, r0, r3, ror r0
    53e0:	1c2d0914 	stcne	9, cr0, [sp], #-80	; 0xffffffb0
    53e4:	1e030000 	cdpne	0, 0, cr0, cr3, cr0, {0}
    53e8:	00000073 	andeq	r0, r0, r3, ror r0
    53ec:	0d4e0918 	stcleq	9, cr0, [lr, #-96]	; 0xffffffa0
    53f0:	1f030000 	svcne	0x00030000
    53f4:	00000073 	andeq	r0, r0, r3, ror r0
    53f8:	1c25091c 	stcne	9, cr0, [r5], #-112	; 0xffffff90
    53fc:	21030000 	mrscs	r0, (UNDEF: 3)
    5400:	00000073 	andeq	r0, r0, r3, ror r0
    5404:	1d9c0920 	ldcne	9, cr0, [ip, #128]	; 0x80
    5408:	22030000 	andcs	r0, r3, #0
    540c:	00000073 	andeq	r0, r0, r3, ror r0
    5410:	1dc80924 	stclne	9, cr0, [r8, #144]	; 0x90
    5414:	23030000 	movwcs	r0, #12288	; 0x3000
    5418:	00000073 	andeq	r0, r0, r3, ror r0
    541c:	0d580928 	ldcleq	9, cr0, [r8, #-160]	; 0xffffff60
    5420:	24030000 	strcs	r0, [r3], #-0
    5424:	00000073 	andeq	r0, r0, r3, ror r0
    5428:	1ced092c 	stclne	9, cr0, [sp], #176	; 0xb0
    542c:	26030000 	strcs	r0, [r3], -r0
    5430:	00000073 	andeq	r0, r0, r3, ror r0
    5434:	1c400930 	mcrrne	9, 3, r0, r0, cr0
    5438:	27030000 	strcs	r0, [r3, -r0]
    543c:	00000073 	andeq	r0, r0, r3, ror r0
    5440:	1c5b0934 	mrrcne	9, 3, r0, fp, cr4
    5444:	28030000 	stmdacs	r3, {}	; <UNPREDICTABLE>
    5448:	00000073 	andeq	r0, r0, r3, ror r0
    544c:	0d620938 	stcleq	9, cr0, [r2, #-224]!	; 0xffffff20
    5450:	29030000 	stmdbcs	r3, {}	; <UNPREDICTABLE>
    5454:	00000073 	andeq	r0, r0, r3, ror r0
    5458:	1db9093c 	ldcne	9, cr0, [r9, #240]!	; 0xf0
    545c:	2b030000 	blcs	c5464 <__bss_end+0xc22e8>
    5460:	00000073 	andeq	r0, r0, r3, ror r0
    5464:	1dd30940 	ldclne	9, cr0, [r3, #256]	; 0x100
    5468:	2c030000 	stccs	0, cr0, [r3], {-0}
    546c:	00000073 	andeq	r0, r0, r3, ror r0
    5470:	0d6c0944 	stcleq	9, cr0, [ip, #-272]!	; 0xfffffef0
    5474:	2d030000 	stccs	0, cr0, [r3, #-0]
    5478:	0000026d 	andeq	r0, r0, sp, ror #4
    547c:	1e0e0948 	cdpne	9, 0, cr0, cr14, cr8, {2}
    5480:	2f030000 	svccs	0x00030000
    5484:	00000073 	andeq	r0, r0, r3, ror r0
    5488:	1cb40950 	ldcne	9, cr0, [r4], #320	; 0x140
    548c:	30030000 	andcc	r0, r3, r0
    5490:	00000073 	andeq	r0, r0, r3, ror r0
    5494:	1cbf0954 	ldcne	9, cr0, [pc], #336	; 55ec <__bss_end+0x2470>
    5498:	31030000 	mrscc	r0, (UNDEF: 3)
    549c:	00000073 	andeq	r0, r0, r3, ror r0
    54a0:	0d760958 	ldcleq	9, cr0, [r6, #-352]!	; 0xfffffea0
    54a4:	32030000 	andcc	r0, r3, #0
    54a8:	00000073 	andeq	r0, r0, r3, ror r0
    54ac:	1c38095c 	ldcne	9, cr0, [r8], #-368	; 0xfffffe90
    54b0:	34030000 	strcc	r0, [r3], #-0
    54b4:	00000073 	andeq	r0, r0, r3, ror r0
    54b8:	1d910960 	ldcne	9, cr0, [r1, #384]	; 0x180
    54bc:	35030000 	strcc	r0, [r3, #-0]
    54c0:	00000073 	andeq	r0, r0, r3, ror r0
    54c4:	1df40964 	ldclne	9, cr0, [r4, #400]!	; 0x190
    54c8:	36030000 	strcc	r0, [r3], -r0
    54cc:	00000073 	andeq	r0, r0, r3, ror r0
    54d0:	0d800968 	stceq	9, cr0, [r0, #416]	; 0x1a0
    54d4:	37030000 	strcc	r0, [r3, -r0]
    54d8:	00000282 	andeq	r0, r0, r2, lsl #5
    54dc:	1dc1096c 	stclne	9, cr0, [r1, #432]	; 0x1b0
    54e0:	39030000 	stmdbcc	r3, {}	; <UNPREDICTABLE>
    54e4:	00000073 	andeq	r0, r0, r3, ror r0
    54e8:	1dec0980 	stclne	9, cr0, [ip, #512]!	; 0x200
    54ec:	3a030000 	bcc	c54f4 <__bss_end+0xc2378>
    54f0:	00000073 	andeq	r0, r0, r3, ror r0
    54f4:	1bf00984 	blne	ffc07b0c <__bss_end+0xffc04990>
    54f8:	3b030000 	blcc	c5500 <__bss_end+0xc2384>
    54fc:	00000073 	andeq	r0, r0, r3, ror r0
    5500:	1db20988 	ldcne	9, cr0, [r2, #544]!	; 0x220
    5504:	3c030000 	stccc	0, cr0, [r3], {-0}
    5508:	00000073 	andeq	r0, r0, r3, ror r0
    550c:	0d8a098c 	stceq	9, cr0, [sl, #560]	; 0x230
    5510:	3f030000 	svccc	0x00030000
    5514:	00000287 	andeq	r0, r0, r7, lsl #5
    5518:	1d3f0990 	ldcne	9, cr0, [pc, #-576]!	; 52e0 <__bss_end+0x2164>
    551c:	42030000 	andmi	r0, r3, #0
    5520:	00000073 	andeq	r0, r0, r3, ror r0
    5524:	1be209a0 	blne	ff887bac <__bss_end+0xff884a30>
    5528:	43030000 	movwmi	r0, #12288	; 0x3000
    552c:	00000073 	andeq	r0, r0, r3, ror r0
    5530:	1ce309a4 	stclne	9, cr0, [r3], #656	; 0x290
    5534:	44030000 	strmi	r0, [r3], #-0
    5538:	0000028c 	andeq	r0, r0, ip, lsl #5
    553c:	1c0a09a8 	stcne	9, cr0, [sl], {168}	; 0xa8
    5540:	47030000 	strmi	r0, [r3, -r0]
    5544:	00000073 	andeq	r0, r0, r3, ror r0
    5548:	1dde09b0 	ldclne	9, cr0, [lr, #704]	; 0x2c0
    554c:	48030000 	stmdami	r3, {}	; <UNPREDICTABLE>
    5550:	00000073 	andeq	r0, r0, r3, ror r0
    5554:	1cf509b4 	ldclne	9, cr0, [r5], #720	; 0x2d0
    5558:	49030000 	stmdbmi	r3, {}	; <UNPREDICTABLE>
    555c:	00000073 	andeq	r0, r0, r3, ror r0
    5560:	8f0500b8 	svchi	0x000500b8
    5564:	05000000 	streq	r0, [r0, #-0]
    5568:	0000008f 	andeq	r0, r0, pc, lsl #1
    556c:	00005306 	andeq	r5, r0, r6, lsl #6
    5570:	00028200 	andeq	r8, r2, r0, lsl #4
    5574:	00880700 	addeq	r0, r8, r0, lsl #14
    5578:	00040000 	andeq	r0, r4, r0
    557c:	00027205 	andeq	r7, r2, r5, lsl #4
    5580:	00780500 	rsbseq	r0, r8, r0, lsl #10
    5584:	8f050000 	svchi	0x00050000
    5588:	03000000 	movweq	r0, #0
    558c:	00001c4b 	andeq	r1, r0, fp, asr #24
    5590:	009f4b03 	addseq	r4, pc, r3, lsl #22
    5594:	da0a0000 	ble	28559c <__bss_end+0x282420>
    5598:	04000001 	streq	r0, [r0], #-1
    559c:	0000005e 	andeq	r0, r0, lr, asr r0
    55a0:	032b8904 			; <UNDEFINED> instruction: 0x032b8904
    55a4:	d40b0000 	strle	r0, [fp], #-0
    55a8:	00000000 	andeq	r0, r0, r0
    55ac:	0001290b 	andeq	r2, r1, fp, lsl #18
    55b0:	e10b0100 	mrs	r0, (UNDEF: 27)
    55b4:	02000000 	andeq	r0, r0, #0
    55b8:	0001060b 	andeq	r0, r1, fp, lsl #12
    55bc:	5c0b0300 	stcpl	3, cr0, [fp], {-0}
    55c0:	04000002 	streq	r0, [r0], #-2
    55c4:	0001a10b 	andeq	sl, r1, fp, lsl #2
    55c8:	890b0500 	stmdbhi	fp, {r8, sl}
    55cc:	06000001 	streq	r0, [r0], -r1
    55d0:	0001c40b 	andeq	ip, r1, fp, lsl #8
    55d4:	c80b0700 	stmdagt	fp, {r8, r9, sl}
    55d8:	08000000 	stmdaeq	r0, {}	; <UNPREDICTABLE>
    55dc:	0000fb0b 	andeq	pc, r0, fp, lsl #22
    55e0:	960b0900 	strls	r0, [fp], -r0, lsl #18
    55e4:	0a000001 	beq	55f0 <__bss_end+0x2474>
    55e8:	0002760b 	andeq	r7, r2, fp, lsl #12
    55ec:	d40b0b00 	strle	r0, [fp], #-2816	; 0xfffff500
    55f0:	0c000001 	stceq	0, cr0, [r0], {1}
    55f4:	0002e60b 	andeq	lr, r2, fp, lsl #12
    55f8:	310b0d00 	tstcc	fp, r0, lsl #26
    55fc:	0e000003 	cdpeq	0, 0, cr0, cr0, cr3, {0}
    5600:	0002680b 	andeq	r6, r2, fp, lsl #16
    5604:	010b0f00 	tsteq	fp, r0, lsl #30
    5608:	10000003 	andne	r0, r0, r3
    560c:	00024f0b 	andeq	r4, r2, fp, lsl #30
    5610:	1b0b1100 	blne	2c9a18 <__bss_end+0x2c689c>
    5614:	12000003 	andne	r0, r0, #3
    5618:	0000ee0b 	andeq	lr, r0, fp, lsl #28
    561c:	d80b1300 	stmdale	fp, {r8, r9, ip}
    5620:	14000002 	strne	r0, [r0], #-2
    5624:	08010200 	stmdaeq	r1, {r9}
    5628:	0000011b 	andeq	r0, r0, fp, lsl r1
    562c:	b2070402 	andlt	r0, r7, #33554432	; 0x2000000
    5630:	0c000001 	stceq	0, cr0, [r0], {1}
    5634:	00001e16 	andeq	r1, r0, r6, lsl lr
    5638:	00411b01 	subeq	r1, r1, r1, lsl #22
    563c:	26880000 	strcs	r0, [r8], r0
    5640:	00580000 	subseq	r0, r8, r0
    5644:	9c010000 	stcls	0, cr0, [r1], {-0}
    5648:	00000362 	andeq	r0, r0, r2, ror #6
    564c:	001da70d 	andseq	sl, sp, sp, lsl #14
    5650:	621b0100 	andsvs	r0, fp, #0, 2
    5654:	f7000003 			; <UNDEFINED> instruction: 0xf7000003
    5658:	00000016 	andeq	r0, r0, r6, lsl r0
    565c:	0291040e 	addseq	r0, r1, #234881024	; 0xe000000
    5660:	5a0c0000 	bpl	305668 <__bss_end+0x3024ec>
    5664:	0100001d 	tsteq	r0, sp, lsl r0
    5668:	00004139 	andeq	r4, r0, r9, lsr r1
    566c:	0026e000 	eoreq	lr, r6, r0
    5670:	00005000 	andeq	r5, r0, r0
    5674:	919c0100 	orrsls	r0, ip, r0, lsl #2
    5678:	0d000003 	stceq	0, cr0, [r0, #-12]
    567c:	00001da7 	andeq	r1, r0, r7, lsr #27
    5680:	03623901 	cmneq	r2, #16384	; 0x4000
    5684:	17150000 	ldrne	r0, [r5, -r0]
    5688:	0f000000 	svceq	0x00000000
    568c:	00001d32 	andeq	r1, r0, r2, lsr sp
    5690:	00415301 	subeq	r5, r1, r1, lsl #6
    5694:	27300000 	ldrcs	r0, [r0, -r0]!
    5698:	00340000 	eorseq	r0, r4, r0
    569c:	9c010000 	stcls	0, cr0, [r1], {-0}
    56a0:	001c7b0f 	andseq	r7, ip, pc, lsl #22
    56a4:	416b0100 	cmnmi	fp, r0, lsl #2
    56a8:	64000000 	strvs	r0, [r0], #-0
    56ac:	28000027 	stmdacs	r0, {r0, r1, r2, r5}
    56b0:	01000000 	mrseq	r0, (UNDEF: 0)
    56b4:	1d1a109c 	ldcne	0, cr1, [sl, #-624]	; 0xfffffd90
    56b8:	83010000 	movwhi	r0, #4096	; 0x1000
    56bc:	0000278c 	andeq	r2, r0, ip, lsl #15
    56c0:	00000048 	andeq	r0, r0, r8, asr #32
    56c4:	78109c01 	ldmdavc	r0, {r0, sl, fp, ip, pc}
    56c8:	0100001d 	tsteq	r0, sp, lsl r0
    56cc:	0027d4a4 	eoreq	sp, r7, r4, lsr #9
    56d0:	00004000 	andeq	r4, r0, r0
    56d4:	0c9c0100 	ldfeqs	f0, [ip], {0}
    56d8:	00001c19 	andeq	r1, r0, r9, lsl ip
    56dc:	0041bf01 	subeq	fp, r1, r1, lsl #30
    56e0:	28140000 	ldmdacs	r4, {}	; <UNPREDICTABLE>
    56e4:	00540000 	subseq	r0, r4, r0
    56e8:	9c010000 	stcls	0, cr0, [r1], {-0}
    56ec:	00000406 	andeq	r0, r0, r6, lsl #8
    56f0:	001d4c0d 	andseq	r4, sp, sp, lsl #24
    56f4:	53bf0100 			; <UNDEFINED> instruction: 0x53bf0100
    56f8:	41000000 	mrsmi	r0, (UNDEF: 0)
    56fc:	00000017 	andeq	r0, r0, r7, lsl r0
    5700:	001dff11 	andseq	pc, sp, r1, lsl pc	; <UNPREDICTABLE>
    5704:	620d0100 	andvs	r0, sp, #0, 2
    5708:	05000003 	streq	r0, [r0, #-3]
    570c:	002f7403 	eoreq	r7, pc, r3, lsl #8
    5710:	1cca1100 	stfnee	f1, [sl], {0}
    5714:	0e010000 	cdpeq	0, 0, cr0, cr1, cr0, {0}
    5718:	00000053 	andeq	r0, r0, r3, asr r0
    571c:	2f780305 	svccs	0x00780305
    5720:	04110000 	ldreq	r0, [r1], #-0
    5724:	0100001d 	tsteq	r0, sp, lsl r0
    5728:	0000530e 	andeq	r5, r0, lr, lsl #6
    572c:	7c030500 	cfstr32vc	mvfx0, [r3], {-0}
    5730:	1100002f 	tstne	r0, pc, lsr #32
    5734:	00001c66 	andeq	r1, r0, r6, ror #24
    5738:	00530e01 	subseq	r0, r3, r1, lsl #28
    573c:	03050000 	movweq	r0, #20480	; 0x5000
    5740:	00002f80 	andeq	r2, r0, r0, lsl #31
    5744:	00006700 	andeq	r6, r0, r0, lsl #14
    5748:	ff000400 			; <UNDEFINED> instruction: 0xff000400
    574c:	04000012 	streq	r0, [r0], #-18	; 0xffffffee
    5750:	00000001 	andeq	r0, r0, r1
    5754:	1e230c00 	cdpne	12, 2, cr0, cr3, cr0, {0}
    5758:	01f00000 	mvnseq	r0, r0
    575c:	14220000 	strtne	r0, [r2], #-0
    5760:	01020000 	mrseq	r0, (UNDEF: 2)
    5764:	00011406 	andeq	r1, r1, r6, lsl #8
    5768:	08010200 	stmdaeq	r1, {r9}
    576c:	00000112 	andeq	r0, r0, r2, lsl r1
    5770:	81050202 	tsthi	r5, r2, lsl #4
    5774:	02000002 	andeq	r0, r0, #2
    5778:	01360702 	teqeq	r6, r2, lsl #14
    577c:	04030000 	streq	r0, [r3], #-0
    5780:	746e6905 	strbtvc	r6, [lr], #-2309	; 0xfffff6fb
    5784:	07040200 	streq	r0, [r4, -r0, lsl #4]
    5788:	000001b7 			; <UNDEFINED> instruction: 0x000001b7
    578c:	41050802 	tstmi	r5, r2, lsl #16
    5790:	02000002 	andeq	r0, r0, #2
    5794:	01ad0708 			; <UNDEFINED> instruction: 0x01ad0708
    5798:	04020000 	streq	r0, [r2], #-0
    579c:	00023807 	andeq	r3, r2, r7, lsl #16
    57a0:	08010200 	stmdaeq	r1, {r9}
    57a4:	0000011b 	andeq	r0, r0, fp, lsl r1
    57a8:	b2070402 	andlt	r0, r7, #33554432	; 0x2000000
    57ac:	00000001 	andeq	r0, r0, r1
    57b0:	00000067 	andeq	r0, r0, r7, rrx
    57b4:	13250004 			; <UNDEFINED> instruction: 0x13250004
    57b8:	01040000 	mrseq	r0, (UNDEF: 4)
    57bc:	00000000 	andeq	r0, r0, r0
    57c0:	001e520c 	andseq	r5, lr, ip, lsl #4
    57c4:	0001f000 	andeq	pc, r1, r0
    57c8:	00143f00 	andseq	r3, r4, r0, lsl #30
    57cc:	06010200 	streq	r0, [r1], -r0, lsl #4
    57d0:	00000114 	andeq	r0, r0, r4, lsl r1
    57d4:	12080102 	andne	r0, r8, #-2147483648	; 0x80000000
    57d8:	02000001 	andeq	r0, r0, #1
    57dc:	02810502 	addeq	r0, r1, #8388608	; 0x800000
    57e0:	02020000 	andeq	r0, r2, #0
    57e4:	00013607 	andeq	r3, r1, r7, lsl #12
    57e8:	05040300 	streq	r0, [r4, #-768]	; 0xfffffd00
    57ec:	00746e69 	rsbseq	r6, r4, r9, ror #28
    57f0:	b7070402 	strlt	r0, [r7, -r2, lsl #8]
    57f4:	02000001 	andeq	r0, r0, #1
    57f8:	02410508 	subeq	r0, r1, #8, 10	; 0x2000000
    57fc:	08020000 	stmdaeq	r2, {}	; <UNPREDICTABLE>
    5800:	0001ad07 	andeq	sl, r1, r7, lsl #26
    5804:	07040200 	streq	r0, [r4, -r0, lsl #4]
    5808:	00000238 	andeq	r0, r0, r8, lsr r2
    580c:	1b080102 	blne	205c1c <__bss_end+0x202aa0>
    5810:	02000001 	andeq	r0, r0, #1
    5814:	01b20704 			; <UNDEFINED> instruction: 0x01b20704
    5818:	00000000 	andeq	r0, r0, r0
    581c:	04000014 	streq	r0, [r0], #-20	; 0xffffffec
    5820:	00134b00 	andseq	r4, r3, r0, lsl #22
    5824:	00010400 	andeq	r0, r1, r0, lsl #8
    5828:	0c000000 	stceq	0, cr0, [r0], {-0}
    582c:	00001e96 	muleq	r0, r6, lr
    5830:	000001f0 	strdeq	r0, [r0], -r0	; <UNPREDICTABLE>
    5834:	00002868 	andeq	r2, r0, r8, ror #16
    5838:	000003a4 	andeq	r0, r0, r4, lsr #7
    583c:	0000145c 	andeq	r1, r0, ip, asr r4
    5840:	14060102 	strne	r0, [r6], #-258	; 0xfffffefe
    5844:	03000001 	movweq	r0, #1
    5848:	00000df6 	strdeq	r0, [r0], -r6
    584c:	00370f02 	eorseq	r0, r7, r2, lsl #30
    5850:	01020000 	mrseq	r0, (UNDEF: 2)
    5854:	00011208 	andeq	r1, r1, r8, lsl #4
    5858:	05020200 	streq	r0, [r2, #-512]	; 0xfffffe00
    585c:	00000281 	andeq	r0, r0, r1, lsl #5
    5860:	36070202 	strcc	r0, [r7], -r2, lsl #4
    5864:	03000001 	movweq	r0, #1
    5868:	0000127d 	andeq	r1, r0, sp, ror r2
    586c:	00571202 	subseq	r1, r7, r2, lsl #4
    5870:	04040000 	streq	r0, [r4], #-0
    5874:	746e6905 	strbtvc	r6, [lr], #-2309	; 0xfffff6fb
    5878:	0a900300 	beq	fe406480 <__bss_end+0xfe403304>
    587c:	13020000 	movwne	r0, #8192	; 0x2000
    5880:	00000069 	andeq	r0, r0, r9, rrx
    5884:	b7070402 	strlt	r0, [r7, -r2, lsl #8]
    5888:	02000001 	andeq	r0, r0, #1
    588c:	02410508 	subeq	r0, r1, #8, 10	; 0x2000000
    5890:	08020000 	stmdaeq	r2, {}	; <UNPREDICTABLE>
    5894:	0001ad07 	andeq	sl, r1, r7, lsl #26
    5898:	03040500 	movweq	r0, #17664	; 0x4500
    589c:	00014a1a 	andeq	r4, r1, sl, lsl sl
    58a0:	07590600 	ldrbeq	r0, [r9, -r0, lsl #12]
    58a4:	1c030000 	stcne	0, cr0, [r3], {-0}
    58a8:	0000005e 	andeq	r0, r0, lr, asr r0
    58ac:	001e0204 	andseq	r0, lr, r4, lsl #4
    58b0:	000d4406 	andeq	r4, sp, r6, lsl #8
    58b4:	5e1d0300 	cdppl	3, 1, cr0, cr13, cr0, {0}
    58b8:	04000000 	streq	r0, [r0], #-0
    58bc:	06001c02 	streq	r1, [r0], -r2, lsl #24
    58c0:	00000751 	andeq	r0, r0, r1, asr r7
    58c4:	005e1e03 	subseq	r1, lr, r3, lsl #28
    58c8:	02040000 	andeq	r0, r4, #0
    58cc:	4e06001a 	mcrmi	0, 0, r0, cr6, cr10, {0}
    58d0:	0300000d 	movweq	r0, #13
    58d4:	00005e1f 	andeq	r5, r0, pc, lsl lr
    58d8:	18020400 	stmdane	r2, {sl}
    58dc:	07610600 	strbeq	r0, [r1, -r0, lsl #12]!
    58e0:	20030000 	andcs	r0, r3, r0
    58e4:	0000005e 	andeq	r0, r0, lr, asr r0
    58e8:	00130504 	andseq	r0, r3, r4, lsl #10
    58ec:	000d5806 	andeq	r5, sp, r6, lsl #16
    58f0:	5e210300 	cdppl	3, 2, cr0, cr1, cr0, {0}
    58f4:	04000000 	streq	r0, [r0], #-0
    58f8:	06001003 	streq	r1, [r0], -r3
    58fc:	00000771 	andeq	r0, r0, r1, ror r7
    5900:	005e2203 	subseq	r2, lr, r3, lsl #4
    5904:	02040000 	andeq	r0, r4, #0
    5908:	6206000e 	andvs	r0, r6, #14
    590c:	0300000d 	movweq	r0, #13
    5910:	00005e23 	andeq	r5, r0, r3, lsr #28
    5914:	08060400 	stmdaeq	r6, {sl}
    5918:	0a6f0600 	beq	1bc7120 <__bss_end+0x1bc3fa4>
    591c:	24030000 	strcs	r0, [r3], #-0
    5920:	0000005e 	andeq	r0, r0, lr, asr r0
    5924:	00070104 	andeq	r0, r7, r4, lsl #2
    5928:	000d6c06 	andeq	r6, sp, r6, lsl #24
    592c:	5e250300 	cdppl	3, 2, cr0, cr5, cr0, {0}
    5930:	04000000 	streq	r0, [r0], #-0
    5934:	06000403 	streq	r0, [r0], -r3, lsl #8
    5938:	00000c0b 	andeq	r0, r0, fp, lsl #24
    593c:	005e2603 	subseq	r2, lr, r3, lsl #12
    5940:	01040000 	mrseq	r0, (UNDEF: 4)
    5944:	76060003 	strvc	r0, [r6], -r3
    5948:	0300000d 	movweq	r0, #13
    594c:	00005e27 	andeq	r5, r0, r7, lsr #28
    5950:	01020400 	tsteq	r2, r0, lsl #8
    5954:	0cba0600 	ldceq	6, cr0, [sl]
    5958:	28030000 	stmdacs	r3, {}	; <UNPREDICTABLE>
    595c:	0000005e 	andeq	r0, r0, lr, asr r0
    5960:	00000104 	andeq	r0, r0, r4, lsl #2
    5964:	03040700 	movweq	r0, #18176	; 0x4700
    5968:	00016918 	andeq	r6, r1, r8, lsl r9
    596c:	04eb0800 	strbteq	r0, [fp], #2048	; 0x800
    5970:	19030000 	stmdbne	r3, {}	; <UNPREDICTABLE>
    5974:	0000005e 	andeq	r0, r0, lr, asr r0
    5978:	000ae008 	andeq	lr, sl, r8
    597c:	7e2a0300 	cdpvc	3, 2, cr0, cr10, cr0, {0}
    5980:	00000000 	andeq	r0, r0, r0
    5984:	000cc003 	andeq	ip, ip, r3
    5988:	4a2b0300 	bmi	ac6590 <__bss_end+0xac3414>
    598c:	09000001 	stmdbeq	r0, {r0}
    5990:	00000ce1 	andeq	r0, r0, r1, ror #25
    5994:	262e0304 	strtcs	r0, [lr], -r4, lsl #6
    5998:	06000002 	streq	r0, [r0], -r2
    599c:	00000759 	andeq	r0, r0, r9, asr r7
    59a0:	005e3003 	subseq	r3, lr, r3
    59a4:	05040000 	streq	r0, [r4, #-0]
    59a8:	4406001b 	strmi	r0, [r6], #-27	; 0xffffffe5
    59ac:	0300000d 	movweq	r0, #13
    59b0:	00005e31 	andeq	r5, r0, r1, lsr lr
    59b4:	18030400 	stmdane	r3, {sl}
    59b8:	07610600 	strbeq	r0, [r1, -r0, lsl #12]!
    59bc:	32030000 	andcc	r0, r3, #0
    59c0:	0000005e 	andeq	r0, r0, lr, asr r0
    59c4:	00110704 	andseq	r0, r1, r4, lsl #14
    59c8:	000d4e06 	andeq	r4, sp, r6, lsl #28
    59cc:	5e330300 	cdppl	3, 3, cr0, cr3, cr0, {0}
    59d0:	04000000 	streq	r0, [r0], #-0
    59d4:	06001001 	streq	r1, [r0], -r1
    59d8:	00000771 	andeq	r0, r0, r1, ror r7
    59dc:	005e3403 	subseq	r3, lr, r3, lsl #8
    59e0:	04040000 	streq	r0, [r4], #-0
    59e4:	5806000c 	stmdapl	r6, {r2, r3}
    59e8:	0300000d 	movweq	r0, #13
    59ec:	00005e35 	andeq	r5, r0, r5, lsr lr
    59f0:	08040400 	stmdaeq	r4, {sl}
    59f4:	0be00600 	bleq	ff8071fc <__bss_end+0xff804080>
    59f8:	36030000 	strcc	r0, [r3], -r0
    59fc:	0000005e 	andeq	r0, r0, lr, asr r0
    5a00:	00070104 	andeq	r0, r7, r4, lsl #2
    5a04:	000d6206 	andeq	r6, sp, r6, lsl #4
    5a08:	5e370300 	cdppl	3, 3, cr0, cr7, cr0, {0}
    5a0c:	04000000 	streq	r0, [r0], #-0
    5a10:	06000403 	streq	r0, [r0], -r3, lsl #8
    5a14:	00000c0b 	andeq	r0, r0, fp, lsl #24
    5a18:	005e3803 	subseq	r3, lr, r3, lsl #16
    5a1c:	01040000 	mrseq	r0, (UNDEF: 4)
    5a20:	6c060003 	stcvs	0, cr0, [r6], {3}
    5a24:	0300000d 	movweq	r0, #13
    5a28:	00005e39 	andeq	r5, r0, r9, lsr lr
    5a2c:	01020400 	tsteq	r2, r0, lsl #8
    5a30:	0cba0600 	ldceq	6, cr0, [sl]
    5a34:	3a030000 	bcc	c5a3c <__bss_end+0xc28c0>
    5a38:	0000005e 	andeq	r0, r0, lr, asr r0
    5a3c:	00000104 	andeq	r0, r0, r4, lsl #2
    5a40:	0c330300 	ldceq	3, cr0, [r3], #-0
    5a44:	3b030000 	blcc	c5a4c <__bss_end+0xc28d0>
    5a48:	00000174 	andeq	r0, r0, r4, ror r1
    5a4c:	000ca009 	andeq	sl, ip, r9
    5a50:	50030400 	andpl	r0, r3, r0, lsl #8
    5a54:	00000301 	andeq	r0, r0, r1, lsl #6
    5a58:	00075906 	andeq	r5, r7, r6, lsl #18
    5a5c:	5e520300 	cdppl	3, 5, cr0, cr2, cr0, {0}
    5a60:	04000000 	streq	r0, [r0], #-0
    5a64:	06001e02 	streq	r1, [r0], -r2, lsl #28
    5a68:	00000d44 	andeq	r0, r0, r4, asr #26
    5a6c:	005e5303 	subseq	r5, lr, r3, lsl #6
    5a70:	02040000 	andeq	r0, r4, #0
    5a74:	5106001c 	tstpl	r6, ip, lsl r0
    5a78:	03000007 	movweq	r0, #7
    5a7c:	00005e54 	andeq	r5, r0, r4, asr lr
    5a80:	1a020400 	bne	86a88 <__bss_end+0x8390c>
    5a84:	0d4e0600 	stcleq	6, cr0, [lr, #-0]
    5a88:	55030000 	strpl	r0, [r3, #-0]
    5a8c:	0000005e 	andeq	r0, r0, lr, asr r0
    5a90:	00180204 	andseq	r0, r8, r4, lsl #4
    5a94:	00076106 	andeq	r6, r7, r6, lsl #2
    5a98:	5e560300 	cdppl	3, 5, cr0, cr6, cr0, {0}
    5a9c:	04000000 	streq	r0, [r0], #-0
    5aa0:	06001305 	streq	r1, [r0], -r5, lsl #6
    5aa4:	00000d58 	andeq	r0, r0, r8, asr sp
    5aa8:	005e5703 	subseq	r5, lr, r3, lsl #14
    5aac:	07040000 	streq	r0, [r4, -r0]
    5ab0:	ae06000c 	cdpge	0, 0, cr0, cr6, cr12, {0}
    5ab4:	03000006 	movweq	r0, #6
    5ab8:	00005e58 	andeq	r5, r0, r8, asr lr
    5abc:	0b010400 	bleq	46ac4 <__bss_end+0x43948>
    5ac0:	0d620600 	stcleq	6, cr0, [r2, #-0]
    5ac4:	59030000 	stmdbpl	r3, {}	; <UNPREDICTABLE>
    5ac8:	0000005e 	andeq	r0, r0, lr, asr r0
    5acc:	00080304 	andeq	r0, r8, r4, lsl #6
    5ad0:	000a7706 	andeq	r7, sl, r6, lsl #14
    5ad4:	5e5a0300 	cdppl	3, 5, cr0, cr10, cr0, {0}
    5ad8:	04000000 	streq	r0, [r0], #-0
    5adc:	06000701 	streq	r0, [r0], -r1, lsl #14
    5ae0:	00000d6c 	andeq	r0, r0, ip, ror #26
    5ae4:	005e5b03 	subseq	r5, lr, r3, lsl #22
    5ae8:	03040000 	movweq	r0, #16384	; 0x4000
    5aec:	0b060004 	bleq	185b04 <__bss_end+0x182988>
    5af0:	0300000c 	movweq	r0, #12
    5af4:	00005e5c 	andeq	r5, r0, ip, asr lr
    5af8:	03010400 	movweq	r0, #5120	; 0x1400
    5afc:	0d760600 	ldcleq	6, cr0, [r6, #-0]
    5b00:	5d030000 	stcpl	0, cr0, [r3, #-0]
    5b04:	0000005e 	andeq	r0, r0, lr, asr r0
    5b08:	00010204 	andeq	r0, r1, r4, lsl #4
    5b0c:	000cba06 	andeq	fp, ip, r6, lsl #20
    5b10:	5e5e0300 	cdppl	3, 5, cr0, cr14, cr0, {0}
    5b14:	04000000 	streq	r0, [r0], #-0
    5b18:	00000001 	andeq	r0, r0, r1
    5b1c:	0006c703 	andeq	ip, r6, r3, lsl #14
    5b20:	315f0300 	cmpcc	pc, r0, lsl #6
    5b24:	09000002 	stmdbeq	r0, {r1}
    5b28:	000010bd 	strheq	r1, [r0], -sp
    5b2c:	fa620304 	blx	1886744 <__bss_end+0x18835c8>
    5b30:	06000003 	streq	r0, [r0], -r3
    5b34:	00000759 	andeq	r0, r0, r9, asr r7
    5b38:	005e6403 	subseq	r6, lr, r3, lsl #8
    5b3c:	02040000 	andeq	r0, r4, #0
    5b40:	4406001e 	strmi	r0, [r6], #-30	; 0xffffffe2
    5b44:	0300000d 	movweq	r0, #13
    5b48:	00005e65 	andeq	r5, r0, r5, ror #28
    5b4c:	1c020400 	cfstrsne	mvf0, [r2], {-0}
    5b50:	07510600 	ldrbeq	r0, [r1, -r0, lsl #12]
    5b54:	66030000 	strvs	r0, [r3], -r0
    5b58:	0000005e 	andeq	r0, r0, lr, asr r0
    5b5c:	001a0204 	andseq	r0, sl, r4, lsl #4
    5b60:	000d4e06 	andeq	r4, sp, r6, lsl #28
    5b64:	5e670300 	cdppl	3, 6, cr0, cr7, cr0, {0}
    5b68:	04000000 	streq	r0, [r0], #-0
    5b6c:	06001802 	streq	r1, [r0], -r2, lsl #16
    5b70:	00000761 	andeq	r0, r0, r1, ror #14
    5b74:	005e6803 	subseq	r6, lr, r3, lsl #16
    5b78:	05040000 	streq	r0, [r4, #-0]
    5b7c:	58060013 	stmdapl	r6, {r0, r1, r4}
    5b80:	0300000d 	movweq	r0, #13
    5b84:	00005e69 	andeq	r5, r0, r9, ror #28
    5b88:	10030400 	andne	r0, r3, r0, lsl #8
    5b8c:	0eee0600 	cdpeq	6, 14, cr0, cr14, cr0, {0}
    5b90:	6a030000 	bvs	c5b98 <__bss_end+0xc2a1c>
    5b94:	0000005e 	andeq	r0, r0, lr, asr r0
    5b98:	000e0204 	andeq	r0, lr, r4, lsl #4
    5b9c:	00044f06 	andeq	r4, r4, r6, lsl #30
    5ba0:	5e6b0300 	cdppl	3, 6, cr0, cr11, cr0, {0}
    5ba4:	04000000 	streq	r0, [r0], #-0
    5ba8:	06000d01 	streq	r0, [r0], -r1, lsl #26
    5bac:	00000d62 	andeq	r0, r0, r2, ror #26
    5bb0:	005e6c03 	subseq	r6, lr, r3, lsl #24
    5bb4:	05040000 	streq	r0, [r4, #-0]
    5bb8:	69060008 	stmdbvs	r6, {r3}
    5bbc:	0300000b 	movweq	r0, #11
    5bc0:	00005e6d 	andeq	r5, r0, sp, ror #28
    5bc4:	07010400 	streq	r0, [r1, -r0, lsl #8]
    5bc8:	0b1f0600 	bleq	7c73d0 <__bss_end+0x7c4254>
    5bcc:	6e030000 	cdpvs	0, 0, cr0, cr3, cr0, {0}
    5bd0:	0000005e 	andeq	r0, r0, lr, asr r0
    5bd4:	00060104 	andeq	r0, r6, r4, lsl #2
    5bd8:	000d6c06 	andeq	r6, sp, r6, lsl #24
    5bdc:	5e6f0300 	cdppl	3, 6, cr0, cr15, cr0, {0}
    5be0:	04000000 	streq	r0, [r0], #-0
    5be4:	06000402 	streq	r0, [r0], -r2, lsl #8
    5be8:	00000c0b 	andeq	r0, r0, fp, lsl #24
    5bec:	005e7003 	subseq	r7, lr, r3
    5bf0:	01040000 	mrseq	r0, (UNDEF: 4)
    5bf4:	76060003 	strvc	r0, [r6], -r3
    5bf8:	0300000d 	movweq	r0, #13
    5bfc:	00005e71 	andeq	r5, r0, r1, ror lr
    5c00:	01020400 	tsteq	r2, r0, lsl #8
    5c04:	0cba0600 	ldceq	6, cr0, [sl]
    5c08:	72030000 	andvc	r0, r3, #0
    5c0c:	0000005e 	andeq	r0, r0, lr, asr r0
    5c10:	00000104 	andeq	r0, r0, r4, lsl #2
    5c14:	05dd0300 	ldrbeq	r0, [sp, #768]	; 0x300
    5c18:	73030000 	movwvc	r0, #12288	; 0x3000
    5c1c:	0000030c 	andeq	r0, r0, ip, lsl #6
    5c20:	0008a009 	andeq	sl, r8, r9
    5c24:	75030400 	strvc	r0, [r3, #-1024]	; 0xfffffc00
    5c28:	000004c6 	andeq	r0, r0, r6, asr #9
    5c2c:	00075906 	andeq	r5, r7, r6, lsl #18
    5c30:	5e770300 	cdppl	3, 7, cr0, cr7, cr0, {0}
    5c34:	04000000 	streq	r0, [r0], #-0
    5c38:	06001c04 	streq	r1, [r0], -r4, lsl #24
    5c3c:	00000d44 	andeq	r0, r0, r4, asr #26
    5c40:	005e7803 	subseq	r7, lr, r3, lsl #16
    5c44:	04040000 	streq	r0, [r4], #-0
    5c48:	61060018 	tstvs	r6, r8, lsl r0
    5c4c:	03000007 	movweq	r0, #7
    5c50:	00005e79 	andeq	r5, r0, r9, ror lr
    5c54:	11070400 	tstne	r7, r0, lsl #8
    5c58:	0d4e0600 	stcleq	6, cr0, [lr, #-0]
    5c5c:	7a030000 	bvc	c5c64 <__bss_end+0xc2ae8>
    5c60:	0000005e 	andeq	r0, r0, lr, asr r0
    5c64:	000c0504 	andeq	r0, ip, r4, lsl #10
    5c68:	000be006 	andeq	lr, fp, r6
    5c6c:	5e7b0300 	cdppl	3, 7, cr0, cr11, cr0, {0}
    5c70:	04000000 	streq	r0, [r0], #-0
    5c74:	06000b01 	streq	r0, [r0], -r1, lsl #22
    5c78:	00000d58 	andeq	r0, r0, r8, asr sp
    5c7c:	005e7c03 	subseq	r7, lr, r3, lsl #24
    5c80:	03040000 	movweq	r0, #16384	; 0x4000
    5c84:	6f060008 	svcvs	0x00060008
    5c88:	0300000c 	movweq	r0, #12
    5c8c:	00005e7d 	andeq	r5, r0, sp, ror lr
    5c90:	07010400 	streq	r0, [r1, -r0, lsl #8]
    5c94:	0dd20600 	ldcleq	6, cr0, [r2]
    5c98:	7e030000 	cdpvc	0, 0, cr0, cr3, cr0, {0}
    5c9c:	0000005e 	andeq	r0, r0, lr, asr r0
    5ca0:	00060104 	andeq	r0, r6, r4, lsl #2
    5ca4:	000d6206 	andeq	r6, sp, r6, lsl #4
    5ca8:	5e7f0300 	cdppl	3, 7, cr0, cr15, cr0, {0}
    5cac:	04000000 	streq	r0, [r0], #-0
    5cb0:	06000402 	streq	r0, [r0], -r2, lsl #8
    5cb4:	00000c0b 	andeq	r0, r0, fp, lsl #24
    5cb8:	005e8003 	subseq	r8, lr, r3
    5cbc:	01040000 	mrseq	r0, (UNDEF: 4)
    5cc0:	6c060003 	stcvs	0, cr0, [r6], {3}
    5cc4:	0300000d 	movweq	r0, #13
    5cc8:	00005e81 	andeq	r5, r0, r1, lsl #29
    5ccc:	01020400 	tsteq	r2, r0, lsl #8
    5cd0:	0cba0600 	ldceq	6, cr0, [sl]
    5cd4:	82030000 	andhi	r0, r3, #0
    5cd8:	0000005e 	andeq	r0, r0, lr, asr r0
    5cdc:	00000104 	andeq	r0, r0, r4, lsl #2
    5ce0:	09b30300 	ldmibeq	r3!, {r8, r9}
    5ce4:	83030000 	movwhi	r0, #12288	; 0x3000
    5ce8:	00000405 	andeq	r0, r0, r5, lsl #8
    5cec:	000bef09 	andeq	lr, fp, r9, lsl #30
    5cf0:	86030400 	strhi	r0, [r3], -r0, lsl #8
    5cf4:	000005fb 	strdeq	r0, [r0], -fp
    5cf8:	00075906 	andeq	r5, r7, r6, lsl #18
    5cfc:	5e880300 	cdppl	3, 8, cr0, cr8, cr0, {0}
    5d00:	04000000 	streq	r0, [r0], #-0
    5d04:	06001c04 	streq	r1, [r0], -r4, lsl #24
    5d08:	00000751 	andeq	r0, r0, r1, asr r7
    5d0c:	005e8903 	subseq	r8, lr, r3, lsl #18
    5d10:	02040000 	andeq	r0, r4, #0
    5d14:	4406001a 	strmi	r0, [r6], #-26	; 0xffffffe6
    5d18:	0300000d 	movweq	r0, #13
    5d1c:	00005e8a 	andeq	r5, r0, sl, lsl #29
    5d20:	18020400 	stmdane	r2, {sl}
    5d24:	07610600 	strbeq	r0, [r1, -r0, lsl #12]!
    5d28:	8b030000 	blhi	c5d30 <__bss_end+0xc2bb4>
    5d2c:	0000005e 	andeq	r0, r0, lr, asr r0
    5d30:	00140404 	andseq	r0, r4, r4, lsl #8
    5d34:	000d4e06 	andeq	r4, sp, r6, lsl #28
    5d38:	5e8c0300 	cdppl	3, 8, cr0, cr12, cr0, {0}
    5d3c:	04000000 	streq	r0, [r0], #-0
    5d40:	06001004 	streq	r1, [r0], -r4
    5d44:	000006eb 	andeq	r0, r0, fp, ror #13
    5d48:	005e8d03 	subseq	r8, lr, r3, lsl #26
    5d4c:	01040000 	mrseq	r0, (UNDEF: 4)
    5d50:	7706000f 	strvc	r0, [r6, -pc]
    5d54:	0300000c 	movweq	r0, #12
    5d58:	00005e8f 	andeq	r5, r0, pc, lsl #29
    5d5c:	0e010400 	cfcpyseq	mvf0, mvf1
    5d60:	0d580600 	ldcleq	6, cr0, [r8, #-0]
    5d64:	90030000 	andls	r0, r3, r0
    5d68:	0000005e 	andeq	r0, r0, lr, asr r0
    5d6c:	000c0204 	andeq	r0, ip, r4, lsl #4
    5d70:	000be006 	andeq	lr, fp, r6
    5d74:	5e910300 	cdppl	3, 9, cr0, cr1, cr0, {0}
    5d78:	04000000 	streq	r0, [r0], #-0
    5d7c:	06000b01 	streq	r0, [r0], -r1, lsl #22
    5d80:	00000594 	muleq	r0, r4, r5
    5d84:	005e9203 	subseq	r9, lr, r3, lsl #4
    5d88:	01040000 	mrseq	r0, (UNDEF: 4)
    5d8c:	2806000a 	stmdacs	r6, {r1, r3}
    5d90:	03000006 	movweq	r0, #6
    5d94:	00005e93 	muleq	r0, r3, lr
    5d98:	09010400 	stmdbeq	r1, {sl}
    5d9c:	0d3d0600 	ldceq	6, cr0, [sp, #-0]
    5da0:	94030000 	strls	r0, [r3], #-0
    5da4:	0000005e 	andeq	r0, r0, lr, asr r0
    5da8:	00080104 	andeq	r0, r8, r4, lsl #2
    5dac:	000d6206 	andeq	r6, sp, r6, lsl #4
    5db0:	5e950300 	cdppl	3, 9, cr0, cr5, cr0, {0}
    5db4:	04000000 	streq	r0, [r0], #-0
    5db8:	06000701 	streq	r0, [r0], -r1, lsl #14
    5dbc:	00000c27 	andeq	r0, r0, r7, lsr #24
    5dc0:	005e9603 	subseq	r9, lr, r3, lsl #12
    5dc4:	01040000 	mrseq	r0, (UNDEF: 4)
    5dc8:	b4060006 	strlt	r0, [r6], #-6
    5dcc:	0300000c 	movweq	r0, #12
    5dd0:	00005e97 	muleq	r0, r7, lr
    5dd4:	05010400 	streq	r0, [r1, #-1024]	; 0xfffffc00
    5dd8:	0e8a0600 	cdpeq	6, 8, cr0, cr10, cr0, {0}
    5ddc:	98030000 	stmdals	r3, {}	; <UNPREDICTABLE>
    5de0:	0000005e 	andeq	r0, r0, lr, asr r0
    5de4:	00040104 	andeq	r0, r4, r4, lsl #2
    5de8:	000c0b06 	andeq	r0, ip, r6, lsl #22
    5dec:	5e990300 	cdppl	3, 9, cr0, cr9, cr0, {0}
    5df0:	04000000 	streq	r0, [r0], #-0
    5df4:	06000301 	streq	r0, [r0], -r1, lsl #6
    5df8:	00000d6c 	andeq	r0, r0, ip, ror #26
    5dfc:	005e9a03 	subseq	r9, lr, r3, lsl #20
    5e00:	02040000 	andeq	r0, r4, #0
    5e04:	ba060001 	blt	185e10 <__bss_end+0x182c94>
    5e08:	0300000c 	movweq	r0, #12
    5e0c:	00005e9b 	muleq	r0, fp, lr
    5e10:	00010400 	andeq	r0, r1, r0, lsl #8
    5e14:	9b030000 	blls	c5e1c <__bss_end+0xc2ca0>
    5e18:	03000004 	movweq	r0, #4
    5e1c:	0004d19c 	muleq	r4, ip, r1
    5e20:	03040500 	movweq	r0, #17664	; 0x4500
    5e24:	000669a4 	andeq	r6, r6, r4, lsr #19
    5e28:	0ffa0600 	svceq	0x00fa0600
    5e2c:	a6030000 	strge	r0, [r3], -r0
    5e30:	0000005e 	andeq	r0, r0, lr, asr r0
    5e34:	001e0204 	andseq	r0, lr, r4, lsl #4
    5e38:	000d4406 	andeq	r4, sp, r6, lsl #8
    5e3c:	5ea70300 	cdppl	3, 10, cr0, cr7, cr0, {0}
    5e40:	04000000 	streq	r0, [r0], #-0
    5e44:	06001806 	streq	r1, [r0], -r6, lsl #16
    5e48:	00000cf5 	strdeq	r0, [r0], -r5
    5e4c:	005ea803 	subseq	sl, lr, r3, lsl #16
    5e50:	02040000 	andeq	r0, r4, #0
    5e54:	4e060016 	mcrmi	0, 0, r0, cr6, cr6, {0}
    5e58:	0300000d 	movweq	r0, #13
    5e5c:	00005ea9 	andeq	r5, r0, r9, lsr #29
    5e60:	10060400 	andne	r0, r6, r0, lsl #8
    5e64:	08db0600 	ldmeq	fp, {r9, sl}^
    5e68:	aa030000 	bge	c5e70 <__bss_end+0xc2cf4>
    5e6c:	0000005e 	andeq	r0, r0, lr, asr r0
    5e70:	000e0204 	andeq	r0, lr, r4, lsl #4
    5e74:	000d5806 	andeq	r5, sp, r6, lsl #16
    5e78:	5eab0300 	cdppl	3, 10, cr0, cr11, cr0, {0}
    5e7c:	04000000 	streq	r0, [r0], #-0
    5e80:	0000000e 	andeq	r0, r0, lr
    5e84:	a2030407 	andge	r0, r3, #117440512	; 0x7000000
    5e88:	00000688 	andeq	r0, r0, r8, lsl #13
    5e8c:	0004eb08 	andeq	lr, r4, r8, lsl #22
    5e90:	5ea30300 	cdppl	3, 10, cr0, cr3, cr0, {0}
    5e94:	08000000 	stmdaeq	r0, {}	; <UNPREDICTABLE>
    5e98:	00000ae0 	andeq	r0, r0, r0, ror #21
    5e9c:	0606ac03 	streq	sl, [r6], -r3, lsl #24
    5ea0:	03000000 	movweq	r0, #0
    5ea4:	0000060a 	andeq	r0, r0, sl, lsl #12
    5ea8:	0669ad03 	strbteq	sl, [r9], -r3, lsl #26
    5eac:	6b090000 	blvs	245eb4 <__bss_end+0x242d38>
    5eb0:	04000004 	streq	r0, [r0], #-4
    5eb4:	0709b403 	streq	fp, [r9, -r3, lsl #8]
    5eb8:	44060000 	strmi	r0, [r6], #-0
    5ebc:	0300000d 	movweq	r0, #13
    5ec0:	00005eb6 			; <UNDEFINED> instruction: 0x00005eb6
    5ec4:	1c040400 	cfstrsne	mvf0, [r4], {-0}
    5ec8:	0b380600 	bleq	e076d0 <__bss_end+0xe04554>
    5ecc:	b7030000 	strlt	r0, [r3, -r0]
    5ed0:	0000005e 	andeq	r0, r0, lr, asr r0
    5ed4:	001a0204 	andseq	r0, sl, r4, lsl #4
    5ed8:	000fbd06 	andeq	fp, pc, r6, lsl #26
    5edc:	5eb80300 	cdppl	3, 11, cr0, cr8, cr0, {0}
    5ee0:	04000000 	streq	r0, [r0], #-0
    5ee4:	06001802 	streq	r1, [r0], -r2, lsl #16
    5ee8:	00000c67 	andeq	r0, r0, r7, ror #24
    5eec:	005eb903 	subseq	fp, lr, r3, lsl #18
    5ef0:	02040000 	andeq	r0, r4, #0
    5ef4:	4e060016 	mcrmi	0, 0, r0, cr6, cr6, {0}
    5ef8:	0300000d 	movweq	r0, #13
    5efc:	00005eba 			; <UNDEFINED> instruction: 0x00005eba
    5f00:	14020400 	strne	r0, [r2], #-1024	; 0xfffffc00
    5f04:	0c520600 	mrrceq	6, 0, r0, r2, cr0
    5f08:	bb030000 	bllt	c5f10 <__bss_end+0xc2d94>
    5f0c:	0000005e 	andeq	r0, r0, lr, asr r0
    5f10:	00120204 	andseq	r0, r2, r4, lsl #4
    5f14:	000d5806 	andeq	r5, sp, r6, lsl #16
    5f18:	5ebc0300 	cdppl	3, 11, cr0, cr12, cr0, {0}
    5f1c:	04000000 	streq	r0, [r0], #-0
    5f20:	00000012 	andeq	r0, r0, r2, lsl r0
    5f24:	000f0103 	andeq	r0, pc, r3, lsl #2
    5f28:	93bd0300 			; <UNDEFINED> instruction: 0x93bd0300
    5f2c:	05000006 	streq	r0, [r0, #-6]
    5f30:	77c50304 	strbvc	r0, [r5, r4, lsl #6]
    5f34:	06000007 	streq	r0, [r0], -r7
    5f38:	00000800 	andeq	r0, r0, r0, lsl #16
    5f3c:	005ec703 	subseq	ip, lr, r3, lsl #14
    5f40:	05040000 	streq	r0, [r4, #-0]
    5f44:	f106001b 	cps	#27
    5f48:	0300000f 	movweq	r0, #15
    5f4c:	00005ec8 	andeq	r5, r0, r8, asr #29
    5f50:	100b0400 	andne	r0, fp, r0, lsl #8
    5f54:	08050600 	stmdaeq	r5, {r9, sl}
    5f58:	c9030000 	stmdbgt	r3, {}	; <UNPREDICTABLE>
    5f5c:	0000005e 	andeq	r0, r0, lr, asr r0
    5f60:	000e0204 	andeq	r0, lr, r4, lsl #4
    5f64:	000d4e06 	andeq	r4, sp, r6, lsl #28
    5f68:	5eca0300 	cdppl	3, 12, cr0, cr10, cr0, {0}
    5f6c:	04000000 	streq	r0, [r0], #-0
    5f70:	06000806 	streq	r0, [r0], -r6, lsl #16
    5f74:	00000c56 	andeq	r0, r0, r6, asr ip
    5f78:	005ecb03 	subseq	ip, lr, r3, lsl #22
    5f7c:	02040000 	andeq	r0, r4, #0
    5f80:	58060006 	stmdapl	r6, {r1, r2}
    5f84:	0300000d 	movweq	r0, #13
    5f88:	00005ecc 	andeq	r5, r0, ip, asr #29
    5f8c:	00060400 	andeq	r0, r6, r0, lsl #8
    5f90:	04070000 	streq	r0, [r7], #-0
    5f94:	0796c303 	ldreq	ip, [r6, r3, lsl #6]
    5f98:	eb080000 	bl	205fa0 <__bss_end+0x202e24>
    5f9c:	03000004 	movweq	r0, #4
    5fa0:	00005ec4 	andeq	r5, r0, r4, asr #29
    5fa4:	0ae00800 	beq	ff807fac <__bss_end+0xff804e30>
    5fa8:	cd030000 	stcgt	0, cr0, [r3, #-0]
    5fac:	00000714 	andeq	r0, r0, r4, lsl r7
    5fb0:	0b750300 	bleq	1d46bb8 <__bss_end+0x1d43a3c>
    5fb4:	ce030000 	cdpgt	0, 0, cr0, cr3, cr0, {0}
    5fb8:	00000777 	andeq	r0, r0, r7, ror r7
    5fbc:	0009ee09 	andeq	lr, r9, r9, lsl #28
    5fc0:	d0030400 	andle	r0, r3, r0, lsl #8
    5fc4:	000007cc 	andeq	r0, r0, ip, asr #15
    5fc8:	000fb406 	andeq	fp, pc, r6, lsl #8
    5fcc:	5ed20300 	cdppl	3, 13, cr0, cr2, cr0, {0}
    5fd0:	04000000 	streq	r0, [r0], #-0
    5fd4:	06001010 			; <UNDEFINED> instruction: 0x06001010
    5fd8:	00000ff1 	strdeq	r0, [r0], -r1
    5fdc:	005ed303 	subseq	sp, lr, r3, lsl #6
    5fe0:	10040000 	andne	r0, r4, r0
    5fe4:	03000000 	movweq	r0, #0
    5fe8:	00000e47 	andeq	r0, r0, r7, asr #28
    5fec:	07a1d403 	streq	sp, [r1, r3, lsl #8]!
    5ff0:	670a0000 	strvs	r0, [sl, -r0]
    5ff4:	dc000010 	stcle	0, cr0, [r0], {16}
    5ff8:	a4d60302 	ldrbge	r0, [r6], #770	; 0x302
    5ffc:	0b00000e 	bleq	603c <__bss_end+0x2ec0>
    6000:	00000986 	andeq	r0, r0, r6, lsl #19
    6004:	0ea4d803 	cdpeq	8, 10, cr13, cr4, cr3, {0}
    6008:	0b000000 	bleq	6010 <__bss_end+0x2e94>
    600c:	00000d44 	andeq	r0, r0, r4, asr #26
    6010:	0ea9d903 	cdpeq	9, 10, cr13, cr9, cr3, {0}
    6014:	0b040000 	bleq	10601c <__bss_end+0x102ea0>
    6018:	0000105f 	andeq	r1, r0, pc, asr r0
    601c:	0eaeda03 	vfmaeq.f32	s26, s28, s6
    6020:	0b080000 	bleq	206028 <__bss_end+0x202eac>
    6024:	00000d4e 	andeq	r0, r0, lr, asr #26
    6028:	0ea9db03 	vfmaeq.f64	d13, d9, d3
    602c:	0b0c0000 	bleq	306034 <__bss_end+0x302eb8>
    6030:	00000b57 	andeq	r0, r0, r7, asr fp
    6034:	0ea9dc03 	cdpeq	12, 10, cr13, cr9, cr3, {0}
    6038:	0b100000 	bleq	406040 <__bss_end+0x402ec4>
    603c:	00000d58 	andeq	r0, r0, r8, asr sp
    6040:	0ea9dd03 	cdpeq	13, 10, cr13, cr9, cr3, {0}
    6044:	0b140000 	bleq	50604c <__bss_end+0x502ed0>
    6048:	000005be 			; <UNDEFINED> instruction: 0x000005be
    604c:	0ea9de03 	cdpeq	14, 10, cr13, cr9, cr3, {0}
    6050:	0b180000 	bleq	606058 <__bss_end+0x602edc>
    6054:	00000d62 	andeq	r0, r0, r2, ror #26
    6058:	0ea9df03 	cdpeq	15, 10, cr13, cr9, cr3, {0}
    605c:	0b1c0000 	bleq	706064 <__bss_end+0x702ee8>
    6060:	00000c8e 	andeq	r0, r0, lr, lsl #25
    6064:	0eb3e003 	cdpeq	0, 11, cr14, cr3, cr3, {0}
    6068:	0b200000 	bleq	806070 <__bss_end+0x802ef4>
    606c:	00000d6c 	andeq	r0, r0, ip, ror #26
    6070:	0ea9e103 	taneqe	f6, f3
    6074:	0b240000 	bleq	90607c <__bss_end+0x902f00>
    6078:	00000555 	andeq	r0, r0, r5, asr r5
    607c:	0eb8e203 	cdpeq	2, 11, cr14, cr8, cr3, {0}
    6080:	0b280000 	bleq	a06088 <__bss_end+0xa02f0c>
    6084:	00000d76 	andeq	r0, r0, r6, ror sp
    6088:	0ea9e303 	cdpeq	3, 10, cr14, cr9, cr3, {0}
    608c:	0b2c0000 	bleq	b06094 <__bss_end+0xb02f18>
    6090:	00000c83 	andeq	r0, r0, r3, lsl #25
    6094:	0ea9e403 	cdpeq	4, 10, cr14, cr9, cr3, {0}
    6098:	0b300000 	bleq	c060a0 <__bss_end+0xc02f24>
    609c:	00000d80 	andeq	r0, r0, r0, lsl #27
    60a0:	0ea9e503 	cdpeq	5, 10, cr14, cr9, cr3, {0}
    60a4:	0b340000 	bleq	d060ac <__bss_end+0xd02f30>
    60a8:	000009db 	ldrdeq	r0, [r0], -fp
    60ac:	0ebde603 	cdpeq	6, 11, cr14, cr13, cr3, {0}
    60b0:	0b380000 	bleq	e060b8 <__bss_end+0xe02f3c>
    60b4:	00000d8a 	andeq	r0, r0, sl, lsl #27
    60b8:	0ea9e703 	cdpeq	7, 10, cr14, cr9, cr3, {0}
    60bc:	0b3c0000 	bleq	f060c4 <__bss_end+0xf02f48>
    60c0:	00000746 	andeq	r0, r0, r6, asr #14
    60c4:	0ec2e803 	cdpeq	8, 12, cr14, cr2, cr3, {0}
    60c8:	0b400000 	bleq	10060d0 <__bss_end+0x1002f54>
    60cc:	000010d1 	ldrdeq	r1, [r0], -r1	; <UNPREDICTABLE>
    60d0:	0ea9e903 	cdpeq	9, 10, cr14, cr9, cr3, {0}
    60d4:	0b440000 	bleq	11060dc <__bss_end+0x1102f60>
    60d8:	000005b5 			; <UNDEFINED> instruction: 0x000005b5
    60dc:	0ea9ea03 	vfmaeq.f32	s28, s18, s6
    60e0:	0b480000 	bleq	12060e8 <__bss_end+0x1202f6c>
    60e4:	00000cd6 	ldrdeq	r0, [r0], -r6
    60e8:	0ea9eb03 	vfmaeq.f64	d14, d9, d3
    60ec:	0b4c0000 	bleq	13060f4 <__bss_end+0x1302f78>
    60f0:	00000b5f 	andeq	r0, r0, pc, asr fp
    60f4:	0ec7ec03 	cdpeq	12, 12, cr14, cr7, cr3, {0}
    60f8:	0b500000 	bleq	1406100 <__bss_end+0x1402f84>
    60fc:	00000b38 	andeq	r0, r0, r8, lsr fp
    6100:	0ecced03 	cdpeq	13, 12, cr14, cr12, cr3, {0}
    6104:	0b540000 	bleq	150610c <__bss_end+0x1502f90>
    6108:	00000769 	andeq	r0, r0, r9, ror #14
    610c:	0ed1ee03 	cdpeq	14, 13, cr14, cr1, cr3, {0}
    6110:	0b580000 	bleq	1606118 <__bss_end+0x1602f9c>
    6114:	00000f40 	andeq	r0, r0, r0, asr #30
    6118:	0ea9ef03 	cdpeq	15, 10, cr14, cr9, cr3, {0}
    611c:	0b5c0000 	bleq	1706124 <__bss_end+0x1702fa8>
    6120:	00000e21 	andeq	r0, r0, r1, lsr #28
    6124:	0ea9f003 	cdpeq	0, 10, cr15, cr9, cr3, {0}
    6128:	0b600000 	bleq	1806130 <__bss_end+0x1802fb4>
    612c:	00000e37 	andeq	r0, r0, r7, lsr lr
    6130:	0ea9f103 	taneqe	f7, f3
    6134:	0b640000 	bleq	190613c <__bss_end+0x1902fc0>
    6138:	00001004 	andeq	r1, r0, r4
    613c:	0ea9f203 	cdpeq	2, 10, cr15, cr9, cr3, {0}
    6140:	0b680000 	bleq	1a06148 <__bss_end+0x1a02fcc>
    6144:	00000be6 	andeq	r0, r0, r6, ror #23
    6148:	0ea9f303 	cdpeq	3, 10, cr15, cr9, cr3, {0}
    614c:	0b6c0000 	bleq	1b06154 <__bss_end+0x1b02fd8>
    6150:	00000d94 	muleq	r0, r4, sp
    6154:	0eedf403 	cdpeq	4, 14, cr15, cr13, cr3, {0}
    6158:	0b700000 	bleq	1c06160 <__bss_end+0x1c02fe4>
    615c:	0000108f 	andeq	r1, r0, pc, lsl #1
    6160:	0ea9f503 	cdpeq	5, 10, cr15, cr9, cr3, {0}
    6164:	0b800000 	bleq	fe00616c <__bss_end+0xfe002ff0>
    6168:	0000100d 	andeq	r1, r0, sp
    616c:	0ea9f603 	cdpeq	6, 10, cr15, cr9, cr3, {0}
    6170:	0c840000 	stceq	0, cr0, [r4], {0}
    6174:	00306453 	eorseq	r6, r0, r3, asr r4
    6178:	0ea9f703 	cdpeq	7, 10, cr15, cr9, cr3, {0}
    617c:	0c880000 	stceq	0, cr0, [r8], {0}
    6180:	00316453 	eorseq	r6, r1, r3, asr r4
    6184:	0ea9f803 	cdpeq	8, 10, cr15, cr9, cr3, {0}
    6188:	0c8c0000 	stceq	0, cr0, [ip], {0}
    618c:	00326453 	eorseq	r6, r2, r3, asr r4
    6190:	0ea9f903 	cdpeq	9, 10, cr15, cr9, cr3, {0}
    6194:	0b900000 	bleq	fe40619c <__bss_end+0xfe403020>
    6198:	00001018 	andeq	r1, r0, r8, lsl r0
    619c:	0f02fa03 	svceq	0x0002fa03
    61a0:	0c940000 	ldceq	0, cr0, [r4], {0}
    61a4:	03007353 	movweq	r7, #851	; 0x353
    61a8:	000ea9fb 	strdeq	sl, [lr], -fp
    61ac:	170b9c00 	strne	r9, [fp, -r0, lsl #24]
    61b0:	0300000e 	movweq	r0, #14
    61b4:	000ea9fc 	strdeq	sl, [lr], -ip
    61b8:	1c0ba000 	stcne	0, cr10, [fp], {-0}
    61bc:	0300000e 	movweq	r0, #14
    61c0:	000ea9fd 	strdeq	sl, [lr], -sp
    61c4:	230ba400 	movwcs	sl, #46080	; 0xb400
    61c8:	03000010 	movweq	r0, #16
    61cc:	000f07fe 	strdeq	r0, [pc], -lr
    61d0:	ab0ba800 	blge	2f01d8 <__bss_end+0x2ed05c>
    61d4:	03000005 	movweq	r0, #5
    61d8:	000ea9ff 	strdeq	sl, [lr], -pc	; <UNPREDICTABLE>
    61dc:	b00db000 	andlt	fp, sp, r0
    61e0:	03000005 	movweq	r0, #5
    61e4:	0ea90100 	fdveqe	f0, f1, f0
    61e8:	0db40000 	ldceq	0, cr0, [r4]
    61ec:	000009e3 	andeq	r0, r0, r3, ror #19
    61f0:	0c010103 	stfeqs	f0, [r1], {3}
    61f4:	b800000f 	stmdalt	r0, {r0, r1, r2, r3}
    61f8:	000e7e0d 	andeq	r7, lr, sp, lsl #28
    61fc:	01020300 	mrseq	r0, LR_svc
    6200:	00000ea9 	andeq	r0, r0, r9, lsr #29
    6204:	0b140dc0 	bleq	50990c <__bss_end+0x506790>
    6208:	03030000 	movweq	r0, #12288	; 0x3000
    620c:	000f1101 	andeq	r1, pc, r1, lsl #2
    6210:	550ec400 	strpl	ip, [lr, #-1024]	; 0xfffffc00
    6214:	03006273 	movweq	r6, #627	; 0x273
    6218:	0ea90104 	fdveqe	f0, f1, f4
    621c:	0dcc0000 	stcleq	0, cr0, [ip]
    6220:	00000f6b 	andeq	r0, r0, fp, ror #30
    6224:	a9010503 	stmdbge	r1, {r0, r1, r8, sl}
    6228:	d000000e 	andle	r0, r0, lr
    622c:	000a050d 	andeq	r0, sl, sp, lsl #10
    6230:	01060300 	mrseq	r0, LR_und
    6234:	00000f26 	andeq	r0, r0, r6, lsr #30
    6238:	10530dd4 	ldrsbne	r0, [r3], #-212	; 0xffffff2c
    623c:	07030000 	streq	r0, [r3, -r0]
    6240:	000ea901 	andeq	sl, lr, r1, lsl #18
    6244:	f90df000 			; <UNDEFINED> instruction: 0xf90df000
    6248:	0300000e 	movweq	r0, #14
    624c:	0ea90108 	fdveqe	f0, f1, #0.0
    6250:	0df40000 	ldcleq	0, cr0, [r4]
    6254:	00000a42 	andeq	r0, r0, r2, asr #20
    6258:	a9010903 	stmdbge	r1, {r0, r1, r8, fp}
    625c:	f800000e 			; <UNDEFINED> instruction: 0xf800000e
    6260:	000b910d 	andeq	r9, fp, sp, lsl #2
    6264:	010a0300 	mrseq	r0, (UNDEF: 58)
    6268:	00000ea9 	andeq	r0, r0, r9, lsr #29
    626c:	0c490ffc 	mcrreq	15, 15, r0, r9, cr12
    6270:	0b030000 	bleq	c6278 <__bss_end+0xc30fc>
    6274:	000ea901 	andeq	sl, lr, r1, lsl #18
    6278:	10010000 	andne	r0, r1, r0
    627c:	00306542 	eorseq	r6, r0, r2, asr #10
    6280:	a9010c03 	stmdbge	r1, {r0, r1, sl, fp}
    6284:	0400000e 	streq	r0, [r0], #-14
    6288:	0b4b0f01 	bleq	12c9e94 <__bss_end+0x12c6d18>
    628c:	0d030000 	stceq	0, cr0, [r3, #-0]
    6290:	000ea901 	andeq	sl, lr, r1, lsl #18
    6294:	10010800 	andne	r0, r1, r0, lsl #16
    6298:	00306546 	eorseq	r6, r0, r6, asr #10
    629c:	a9010e03 	stmdbge	r1, {r0, r1, r9, sl, fp}
    62a0:	0c00000e 	stceq	0, cr0, [r0], {14}
    62a4:	04b50f01 	ldrteq	r0, [r5], #3841	; 0xf01
    62a8:	0f030000 	svceq	0x00030000
    62ac:	000ea901 	andeq	sl, lr, r1, lsl #18
    62b0:	0f011000 	svceq	0x00011000
    62b4:	000004c1 	andeq	r0, r0, r1, asr #9
    62b8:	a9011003 	stmdbge	r1, {r0, r1, ip}
    62bc:	1400000e 	strne	r0, [r0], #-14
    62c0:	052a0f01 	streq	r0, [sl, #-3841]!	; 0xfffff0ff
    62c4:	11030000 	mrsne	r0, (UNDEF: 3)
    62c8:	000ea901 	andeq	sl, lr, r1, lsl #18
    62cc:	0f011800 	svceq	0x00011800
    62d0:	000004cd 	andeq	r0, r0, sp, asr #9
    62d4:	a9011203 	stmdbge	r1, {r0, r1, r9, ip}
    62d8:	1c00000e 	stcne	0, cr0, [r0], {14}
    62dc:	0a160f01 	beq	589ee8 <__bss_end+0x586d6c>
    62e0:	13030000 	movwne	r0, #12288	; 0x3000
    62e4:	000f3b01 	andeq	r3, pc, r1, lsl #22
    62e8:	0f012000 	svceq	0x00012000
    62ec:	00000532 	andeq	r0, r0, r2, lsr r5
    62f0:	a9011403 	stmdbge	r1, {r0, r1, sl, ip}
    62f4:	2c00000e 	stccs	0, cr0, [r0], {14}
    62f8:	056a0f01 	strbeq	r0, [sl, #-3841]!	; 0xfffff0ff
    62fc:	15030000 	strne	r0, [r3, #-0]
    6300:	000ea901 	andeq	sl, lr, r1, lsl #18
    6304:	0f013000 	svceq	0x00013000
    6308:	00000dc4 	andeq	r0, r0, r4, asr #27
    630c:	a9011603 	stmdbge	r1, {r0, r1, r9, sl, ip}
    6310:	3400000e 	strcc	r0, [r0], #-14
    6314:	05760f01 	ldrbeq	r0, [r6, #-3841]!	; 0xfffff0ff
    6318:	17030000 	strne	r0, [r3, -r0]
    631c:	000ea901 	andeq	sl, lr, r1, lsl #18
    6320:	10013800 	andne	r3, r1, r0, lsl #16
    6324:	03006556 	movweq	r6, #1366	; 0x556
    6328:	0ea90118 	mcreq	1, 5, r0, cr9, cr8, {0}
    632c:	013c0000 	teqeq	ip, r0
    6330:	00098e0f 	andeq	r8, r9, pc, lsl #28
    6334:	01190300 	tsteq	r9, r0, lsl #6
    6338:	00000ea9 	andeq	r0, r0, r9, lsr #29
    633c:	41100140 	tstmi	r0, r0, asr #2
    6340:	03007376 	movweq	r7, #886	; 0x376
    6344:	0ea9011a 	mcreq	1, 5, r0, cr9, cr10, {0}
    6348:	01440000 	mrseq	r0, (UNDEF: 68)
    634c:	0005820f 	andeq	r8, r5, pc, lsl #4
    6350:	011b0300 	tsteq	fp, r0, lsl #6
    6354:	00000ea9 	andeq	r0, r0, r9, lsr #29
    6358:	210f0148 	tstcs	pc, r8, asr #2
    635c:	0300000a 	movweq	r0, #10
    6360:	0ea9011c 	mcreq	1, 5, r0, cr9, cr12, {0}
    6364:	014c0000 	mrseq	r0, (UNDEF: 76)
    6368:	0006650f 	andeq	r6, r6, pc, lsl #10
    636c:	011d0300 	tsteq	sp, r0, lsl #6
    6370:	00000ea9 	andeq	r0, r0, r9, lsr #29
    6374:	710f0150 	tstvc	pc, r0, asr r1	; <UNPREDICTABLE>
    6378:	03000006 	movweq	r0, #6
    637c:	0ea9011e 	mcreq	1, 5, r0, cr9, cr14, {0}
    6380:	01540000 	cmpeq	r4, r0
    6384:	00067d0f 	andeq	r7, r6, pc, lsl #26
    6388:	011f0300 	tsteq	pc, r0, lsl #6
    638c:	00000ea9 	andeq	r0, r0, r9, lsr #29
    6390:	e50f0158 	str	r0, [pc, #-344]	; 6240 <__bss_end+0x30c4>
    6394:	03000006 	movweq	r0, #6
    6398:	0ea90120 	fdveqep	f0, f1, f0
    639c:	015c0000 	cmpeq	ip, r0
    63a0:	0006890f 	andeq	r8, r6, pc, lsl #18
    63a4:	01210300 			; <UNDEFINED> instruction: 0x01210300
    63a8:	00000ea9 	andeq	r0, r0, r9, lsr #29
    63ac:	2c0f0160 	stfcss	f0, [pc], {96}	; 0x60
    63b0:	0300000a 	movweq	r0, #10
    63b4:	0ea90122 	fdveqep	f0, f1, f2
    63b8:	01640000 	cmneq	r4, r0
    63bc:	0005f30f 	andeq	pc, r5, pc, lsl #6
    63c0:	01230300 			; <UNDEFINED> instruction: 0x01230300
    63c4:	00000ea9 	andeq	r0, r0, r9, lsr #29
    63c8:	a80f0168 	stmdage	pc, {r3, r5, r6, r8}	; <UNPREDICTABLE>
    63cc:	0300000f 	movweq	r0, #15
    63d0:	0ea90124 	fdveqep	f0, f1, f4
    63d4:	016c0000 	cmneq	ip, r0
    63d8:	000a370f 	andeq	r3, sl, pc, lsl #14
    63dc:	01250300 			; <UNDEFINED> instruction: 0x01250300
    63e0:	00000f40 	andeq	r0, r0, r0, asr #30
    63e4:	bc0f0170 	stflts	f0, [pc], {112}	; 0x70
    63e8:	03000008 	movweq	r0, #8
    63ec:	0ea90126 	fdveqep	f0, f1, f6
    63f0:	01800000 	orreq	r0, r0, r0
    63f4:	00086b0f 	andeq	r6, r8, pc, lsl #22
    63f8:	01270300 			; <UNDEFINED> instruction: 0x01270300
    63fc:	00000ea9 	andeq	r0, r0, r9, lsr #29
    6400:	770f0184 	strvc	r0, [pc, -r4, lsl #3]
    6404:	03000008 	movweq	r0, #8
    6408:	0ea90128 	fdveqep	f0, f1, #0.0
    640c:	01880000 	orreq	r0, r8, r0
    6410:	0008830f 	andeq	r8, r8, pc, lsl #6
    6414:	01290300 			; <UNDEFINED> instruction: 0x01290300
    6418:	00000ea9 	andeq	r0, r0, r9, lsr #29
    641c:	400f018c 	andmi	r0, pc, ip, lsl #3
    6420:	0300000b 	movweq	r0, #11
    6424:	0f45012a 	svceq	0x0045012a
    6428:	01900000 	orrseq	r0, r0, r0
    642c:	0008b40f 	andeq	fp, r8, pc, lsl #8
    6430:	012b0300 			; <UNDEFINED> instruction: 0x012b0300
    6434:	00000ea9 	andeq	r0, r0, r9, lsr #29
    6438:	e30f01a0 	movw	r0, #61856	; 0xf1a0
    643c:	03000007 	movweq	r0, #7
    6440:	0ea9012c 	fdveqep	f0, f1, #4.0
    6444:	01a40000 			; <UNDEFINED> instruction: 0x01a40000
    6448:	000b9e0f 	andeq	r9, fp, pc, lsl #28
    644c:	012d0300 			; <UNDEFINED> instruction: 0x012d0300
    6450:	00000ea9 	andeq	r0, r0, r9, lsr #29
    6454:	0c0f01a8 	stfeqs	f0, [pc], {168}	; 0xa8
    6458:	03000009 	movweq	r0, #9
    645c:	0ea9012e 	fdveqep	f0, f1, #0.5
    6460:	01ac0000 			; <UNDEFINED> instruction: 0x01ac0000
    6464:	73744110 	cmnvc	r4, #16, 2
    6468:	012f0300 			; <UNDEFINED> instruction: 0x012f0300
    646c:	00000ea9 	andeq	r0, r0, r9, lsr #29
    6470:	4c0f01b0 	stfmis	f0, [pc], {176}	; 0xb0
    6474:	0300000a 	movweq	r0, #10
    6478:	0f5a0130 	svceq	0x005a0130
    647c:	01b40000 			; <UNDEFINED> instruction: 0x01b40000
    6480:	00088f0f 	andeq	r8, r8, pc, lsl #30
    6484:	01310300 	teqeq	r1, r0, lsl #6
    6488:	00000f5f 	andeq	r0, r0, pc, asr pc
    648c:	070f0200 	streq	r0, [pc, -r0, lsl #4]
    6490:	0300000c 	movweq	r0, #12
    6494:	0ea90132 	mcreq	1, 5, r0, cr9, cr2, {1}
    6498:	02040000 	andeq	r0, r4, #0
    649c:	000fe50f 	andeq	lr, pc, pc, lsl #10
    64a0:	01330300 	teqeq	r3, r0, lsl #6
    64a4:	00000f74 	andeq	r0, r0, r4, ror pc
    64a8:	b40f0208 	strlt	r0, [pc], #-520	; 64b0 <__bss_end+0x3334>
    64ac:	0300000a 	movweq	r0, #10
    64b0:	0f890134 	svceq	0x00890134
    64b4:	02200000 	eoreq	r0, r0, #0
    64b8:	0006400f 	andeq	r4, r6, pc
    64bc:	01350300 	teqeq	r5, r0, lsl #6
    64c0:	00000ea9 	andeq	r0, r0, r9, lsr #29
    64c4:	700f0224 	andvc	r0, pc, r4, lsr #4
    64c8:	03000009 	movweq	r0, #9
    64cc:	0ea90136 	mcreq	1, 5, r0, cr9, cr6, {1}
    64d0:	02280000 	eoreq	r0, r8, #0
    64d4:	000afb0f 	andeq	pc, sl, pc, lsl #22
    64d8:	01370300 	teqeq	r7, r0, lsl #6
    64dc:	00000ea9 	andeq	r0, r0, r9, lsr #29
    64e0:	100f022c 	andne	r0, pc, ip, lsr #4
    64e4:	0300000c 	movweq	r0, #12
    64e8:	0ea90138 	mcreq	1, 5, r0, cr9, cr8, {1}
    64ec:	02300000 	eorseq	r0, r0, #0
    64f0:	000e600f 	andeq	r6, lr, pc
    64f4:	01390300 	teqeq	r9, r0, lsl #6
    64f8:	00000ea9 	andeq	r0, r0, r9, lsr #29
    64fc:	790f0234 	stmdbvc	pc, {r2, r4, r5, r9}	; <UNPREDICTABLE>
    6500:	03000007 	movweq	r0, #7
    6504:	0ea9013a 	mcreq	1, 5, r0, cr9, cr10, {1}
    6508:	02380000 	eorseq	r0, r8, #0
    650c:	0007b50f 	andeq	fp, r7, pc, lsl #10
    6510:	013b0300 	teqeq	fp, r0, lsl #6
    6514:	00000ea9 	andeq	r0, r0, r9, lsr #29
    6518:	bd0f023c 	sfmlt	f0, 4, [pc, #-240]	; 6430 <__bss_end+0x32b4>
    651c:	0300000a 	movweq	r0, #10
    6520:	0ea9013c 	mcreq	1, 5, r0, cr9, cr12, {1}
    6524:	02400000 	subeq	r0, r0, #0
    6528:	0006bb0f 	andeq	fp, r6, pc, lsl #22
    652c:	013d0300 	teqeq	sp, r0, lsl #6
    6530:	00000ea9 	andeq	r0, r0, r9, lsr #29
    6534:	5d0f0244 	sfmpl	f0, 4, [pc, #-272]	; 642c <__bss_end+0x32b0>
    6538:	0300000c 	movweq	r0, #12
    653c:	0ea9013e 	mcreq	1, 5, r0, cr9, cr14, {1}
    6540:	02480000 	subeq	r0, r8, #0
    6544:	000eca0f 	andeq	ip, lr, pc, lsl #20
    6548:	013f0300 	teqeq	pc, r0, lsl #6
    654c:	00000ea9 	andeq	r0, r0, r9, lsr #29
    6550:	dd0f024c 	sfmle	f0, 4, [pc, #-304]	; 6428 <__bss_end+0x32ac>
    6554:	03000006 	movweq	r0, #6
    6558:	0ea90140 	fdveqem	f0, f1, f0
    655c:	02500000 	subseq	r0, r0, #0
    6560:	0007850f 	andeq	r8, r7, pc, lsl #10
    6564:	01410300 	mrseq	r0, (UNDEF: 113)
    6568:	00000f8e 	andeq	r0, r0, lr, lsl #31
    656c:	050f0254 	streq	r0, [pc, #-596]	; 6320 <__bss_end+0x31a4>
    6570:	0300000b 	movweq	r0, #11
    6574:	0ea90142 	fdveqem	f0, f1, f2
    6578:	02600000 	rsbeq	r0, r0, #0
    657c:	0007910f 	andeq	r9, r7, pc, lsl #2
    6580:	01430300 	mrseq	r0, (UNDEF: 115)
    6584:	00000f93 	muleq	r0, r3, pc	; <UNPREDICTABLE>
    6588:	d50f0264 	strle	r0, [pc, #-612]	; 632c <__bss_end+0x31b0>
    658c:	0300000a 	movweq	r0, #10
    6590:	0ea90144 	fdveqem	f0, f1, f4
    6594:	02700000 	rsbseq	r0, r0, #0
    6598:	00079d0f 	andeq	r9, r7, pc, lsl #26
    659c:	01450300 	mrseq	r0, (UNDEF: 117)
    65a0:	00000f98 	muleq	r0, r8, pc	; <UNPREDICTABLE>
    65a4:	c90f0274 	stmdbgt	pc, {r2, r4, r5, r6, r9}	; <UNPREDICTABLE>
    65a8:	0300000a 	movweq	r0, #10
    65ac:	0ea90146 	fdveqem	f0, f1, f6
    65b0:	02800000 	addeq	r0, r0, #0
    65b4:	000e000f 	andeq	r0, lr, pc
    65b8:	01470300 	mrseq	r0, (UNDEF: 119)
    65bc:	00000ea9 	andeq	r0, r0, r9, lsr #29
    65c0:	c80f0284 	stmdagt	pc, {r2, r7, r9}	; <UNPREDICTABLE>
    65c4:	0300000f 	movweq	r0, #15
    65c8:	0ea90148 	fdveqem	f0, f1, #0.0
    65cc:	02880000 	addeq	r0, r8, #0
    65d0:	000fd80f 	andeq	sp, pc, pc, lsl #16
    65d4:	01490300 	mrseq	r0, (UNDEF: 121)
    65d8:	00000ea9 	andeq	r0, r0, r9, lsr #29
    65dc:	5b0f028c 	blpl	3c7014 <__bss_end+0x3c3e98>
    65e0:	03000004 	movweq	r0, #4
    65e4:	0ea9014a 	fdveqem	f0, f1, #2.0
    65e8:	02900000 	addseq	r0, r0, #0
    65ec:	000e2a0f 	andeq	r2, lr, pc, lsl #20
    65f0:	014b0300 	mrseq	r0, (UNDEF: 123)
    65f4:	00000f9d 	muleq	r0, sp, pc	; <UNPREDICTABLE>
    65f8:	ea0f0294 	b	3c7050 <__bss_end+0x3c3ed4>
    65fc:	03000007 	movweq	r0, #7
    6600:	0ea9014c 	fdveqem	f0, f1, #4.0
    6604:	029c0000 	addseq	r0, ip, #0
    6608:	000a600f 	andeq	r6, sl, pc
    660c:	014d0300 	mrseq	r0, (UNDEF: 125)
    6610:	00000ea9 	andeq	r0, r0, r9, lsr #29
    6614:	950f02a0 	strls	r0, [pc, #-672]	; 637c <__bss_end+0x3200>
    6618:	03000006 	movweq	r0, #6
    661c:	0ea9014e 	fdveqem	f0, f1, #0.5
    6620:	02a40000 	adceq	r0, r4, #0
    6624:	000daa0f 	andeq	sl, sp, pc, lsl #20
    6628:	014f0300 	mrseq	r0, (UNDEF: 127)
    662c:	00000ea9 	andeq	r0, r0, r9, lsr #29
    6630:	800f02a8 	andhi	r0, pc, r8, lsr #5
    6634:	0300000f 	movweq	r0, #15
    6638:	0ea90150 	mcreq	1, 5, r0, cr9, cr0, {2}
    663c:	02ac0000 	adceq	r0, ip, #0
    6640:	000f940f 	andeq	r9, pc, pc, lsl #8
    6644:	01510300 	cmpeq	r1, r0, lsl #6
    6648:	00000ea9 	andeq	r0, r0, r9, lsr #29
    664c:	a90f02b0 	stmdbge	pc, {r4, r5, r7, r9}	; <UNPREDICTABLE>
    6650:	03000007 	movweq	r0, #7
    6654:	0fa20152 	svceq	0x00a20152
    6658:	02b40000 	adcseq	r0, r4, #0
    665c:	000bac0f 	andeq	sl, fp, pc, lsl #24
    6660:	01530300 	cmpeq	r3, r0, lsl #6
    6664:	00000ea9 	andeq	r0, r0, r9, lsr #29
    6668:	b60f02c0 	strlt	r0, [pc], -r0, asr #5
    666c:	0300000b 	movweq	r0, #11
    6670:	0ea90154 	mcreq	1, 5, r0, cr9, cr4, {2}
    6674:	02c40000 	sbceq	r0, r4, #0
    6678:	000bc00f 	andeq	ip, fp, pc
    667c:	01550300 	cmpeq	r5, r0, lsl #6
    6680:	00000ea9 	andeq	r0, r0, r9, lsr #29
    6684:	e50f02c8 	str	r0, [pc, #-712]	; 63c4 <__bss_end+0x3248>
    6688:	0300000a 	movweq	r0, #10
    668c:	0ea90156 	mcreq	1, 5, r0, cr9, cr6, {2}
    6690:	02cc0000 	sbceq	r0, ip, #0
    6694:	000d200f 	andeq	r2, sp, pc
    6698:	01570300 	cmpeq	r7, r0, lsl #6
    669c:	00000ea9 	andeq	r0, r0, r9, lsr #29
    66a0:	f00f02d0 			; <UNDEFINED> instruction: 0xf00f02d0
    66a4:	0300000a 	movweq	r0, #10
    66a8:	0ea90158 	mcreq	1, 5, r0, cr9, cr8, {2}
    66ac:	02d40000 	sbcseq	r0, r4, #0
    66b0:	00083a0f 	andeq	r3, r8, pc, lsl #20
    66b4:	01590300 	cmpeq	r9, r0, lsl #6
    66b8:	00000ea9 	andeq	r0, r0, r9, lsr #29
    66bc:	110002d8 	ldrdne	r0, [r0, -r8]
    66c0:	00000169 	andeq	r0, r0, r9, ror #2
    66c4:	00005e11 	andeq	r5, r0, r1, lsl lr
    66c8:	02261100 	eoreq	r1, r6, #0, 2
    66cc:	01110000 	tsteq	r1, r0
    66d0:	11000003 	tstne	r0, r3
    66d4:	000003fa 	strdeq	r0, [r0], -sl
    66d8:	0004c611 	andeq	ip, r4, r1, lsl r6
    66dc:	05fb1100 	ldrbeq	r1, [fp, #256]!	; 0x100
    66e0:	88110000 	ldmdahi	r1, {}	; <UNPREDICTABLE>
    66e4:	11000006 	tstne	r0, r6
    66e8:	00000709 	andeq	r0, r0, r9, lsl #14
    66ec:	00079611 	andeq	r9, r7, r1, lsl r6
    66f0:	005e1200 	subseq	r1, lr, r0, lsl #4
    66f4:	0ee60000 	cdpeq	0, 14, cr0, cr6, cr0, {0}
    66f8:	e6130000 	ldr	r0, [r3], -r0
    66fc:	0300000e 	movweq	r0, #14
    6700:	07040200 	streq	r0, [r4, -r0, lsl #4]
    6704:	00000238 	andeq	r0, r0, r8, lsr r2
    6708:	000ed611 	andeq	sp, lr, r1, lsl r6
    670c:	005e1200 	subseq	r1, lr, r0, lsl #4
    6710:	0f020000 	svceq	0x00020000
    6714:	e6130000 	ldr	r0, [r3], -r0
    6718:	0100000e 	tsteq	r0, lr
    671c:	0ef21100 	cdpeq	1, 15, cr1, cr2, cr0, {0}
    6720:	f2110000 	vhadd.s16	d0, d1, d0
    6724:	1100000e 	tstne	r0, lr
    6728:	00000ef2 	strdeq	r0, [r0], -r2
    672c:	000ef211 	andeq	pc, lr, r1, lsl r2	; <UNPREDICTABLE>
    6730:	005e1200 	subseq	r1, lr, r0, lsl #4
    6734:	0f260000 	svceq	0x00260000
    6738:	e6130000 	ldr	r0, [r3], -r0
    673c:	0600000e 	streq	r0, [r0], -lr
    6740:	0f161100 	svceq	0x00161100
    6744:	5e120000 	cdppl	0, 1, cr0, cr2, cr0, {0}
    6748:	3b000000 	blcc	6750 <__bss_end+0x35d4>
    674c:	1300000f 	movwne	r0, #15
    6750:	00000ee6 	andeq	r0, r0, r6, ror #29
    6754:	2b110002 	blcs	446764 <__bss_end+0x4435e8>
    6758:	1100000f 	tstne	r0, pc
    675c:	00000ed6 	ldrdeq	r0, [r0], -r6
    6760:	000ed611 	andeq	sp, lr, r1, lsl r6
    6764:	005e1200 	subseq	r1, lr, r0, lsl #4
    6768:	0f5a0000 	svceq	0x005a0000
    676c:	e6130000 	ldr	r0, [r3], -r0
    6770:	1200000e 	andne	r0, r0, #14
    6774:	0f4a1100 	svceq	0x004a1100
    6778:	cc110000 	ldcgt	0, cr0, [r1], {-0}
    677c:	12000007 	andne	r0, r0, #7
    6780:	0000005e 	andeq	r0, r0, lr, asr r0
    6784:	00000f74 	andeq	r0, r0, r4, ror pc
    6788:	000ee613 	andeq	lr, lr, r3, lsl r6
    678c:	11000500 	tstne	r0, r0, lsl #10
    6790:	00000f64 	andeq	r0, r0, r4, ror #30
    6794:	00005e12 	andeq	r5, r0, r2, lsl lr
    6798:	000f8900 	andeq	r8, pc, r0, lsl #18
    679c:	0ee61300 	cdpeq	3, 14, cr1, cr6, cr0, {0}
    67a0:	00000000 	andeq	r0, r0, r0
    67a4:	000f7911 	andeq	r7, pc, r1, lsl r9	; <UNPREDICTABLE>
    67a8:	0f2b1100 	svceq	0x002b1100
    67ac:	2b110000 	blcs	4467b4 <__bss_end+0x443638>
    67b0:	1100000f 	tstne	r0, pc
    67b4:	00000f2b 	andeq	r0, r0, fp, lsr #30
    67b8:	000ef211 	andeq	pc, lr, r1, lsl r2	; <UNPREDICTABLE>
    67bc:	0f2b1100 	svceq	0x002b1100
    67c0:	ad140000 	ldcge	0, cr0, [r4, #-0]
    67c4:	0300000e 	movweq	r0, #14
    67c8:	07d7015a 			; <UNDEFINED> instruction: 0x07d7015a
    67cc:	04150000 	ldreq	r0, [r5], #-0
    67d0:	00000fa7 	andeq	r0, r0, r7, lsr #31
    67d4:	000c9609 	andeq	r9, ip, r9, lsl #12
    67d8:	18040800 	stmdane	r4, {fp}
    67dc:	00000fde 	ldrdeq	r0, [r0], -lr
    67e0:	00053a0b 	andeq	r3, r5, fp, lsl #20
    67e4:	5e190400 	cfmulspl	mvf0, mvf9, mvf0
    67e8:	00000000 	andeq	r0, r0, r0
    67ec:	0008440b 	andeq	r4, r8, fp, lsl #8
    67f0:	5e1a0400 	cfmulspl	mvf0, mvf10, mvf0
    67f4:	04000000 	streq	r0, [r0], #-0
    67f8:	0ebf0900 	cdpeq	9, 11, cr0, cr15, cr0, {0}
    67fc:	04240000 	strteq	r0, [r4], #-0
    6800:	0010571d 	andseq	r5, r0, sp, lsl r7
    6804:	0f1d0b00 	svceq	0x001d0b00
    6808:	1e040000 	cdpne	0, 0, cr0, cr4, cr0, {0}
    680c:	0000005e 	andeq	r0, r0, lr, asr r0
    6810:	0ee40b00 	vfmaeq.f64	d16, d4, d0
    6814:	1f040000 	svcne	0x00040000
    6818:	0000005e 	andeq	r0, r0, lr, asr r0
    681c:	08970b04 	ldmeq	r7, {r2, r8, r9, fp}
    6820:	20040000 	andcs	r0, r4, r0
    6824:	0000005e 	andeq	r0, r0, lr, asr r0
    6828:	0b570b08 	bleq	15c9450 <__bss_end+0x15c62d4>
    682c:	22040000 	andcs	r0, r4, #0
    6830:	0000005e 	andeq	r0, r0, lr, asr r0
    6834:	05be0b0c 	ldreq	r0, [lr, #2828]!	; 0xb0c
    6838:	23040000 	movwcs	r0, #16384	; 0x4000
    683c:	0000005e 	andeq	r0, r0, lr, asr r0
    6840:	09700b10 	ldmdbeq	r0!, {r4, r8, r9, fp}^
    6844:	24040000 	strcs	r0, [r4], #-0
    6848:	0000005e 	andeq	r0, r0, lr, asr r0
    684c:	0afb0b14 	beq	ffec94a4 <__bss_end+0xffec6328>
    6850:	25040000 	strcs	r0, [r4, #-0]
    6854:	0000005e 	andeq	r0, r0, lr, asr r0
    6858:	0fc80b18 	svceq	0x00c80b18
    685c:	26040000 	strcs	r0, [r4], -r0
    6860:	0000005e 	andeq	r0, r0, lr, asr r0
    6864:	0fd80b1c 	svceq	0x00d80b1c
    6868:	27040000 	strcs	r0, [r4, -r0]
    686c:	0000005e 	andeq	r0, r0, lr, asr r0
    6870:	58090020 	stmdapl	r9, {r5}
    6874:	08000006 	stmdaeq	r0, {r1, r2}
    6878:	10a04a04 	adcne	r4, r0, r4, lsl #20
    687c:	610b0000 	mrsvs	r0, (UNDEF: 11)
    6880:	04000007 	streq	r0, [r0], #-7
    6884:	00002c4b 	andeq	r2, r0, fp, asr #24
    6888:	510b0000 	mrspl	r0, (UNDEF: 11)
    688c:	04000007 	streq	r0, [r0], #-7
    6890:	00002c4c 	andeq	r2, r0, ip, asr #24
    6894:	590b0100 	stmdbpl	fp, {r8}
    6898:	04000007 	streq	r0, [r0], #-7
    689c:	00002c4d 	andeq	r2, r0, sp, asr #24
    68a0:	710b0200 	mrsvc	r0, R11_fiq
    68a4:	04000007 	streq	r0, [r0], #-7
    68a8:	00002c4e 	andeq	r2, r0, lr, asr #24
    68ac:	500c0300 	andpl	r0, ip, r0, lsl #6
    68b0:	04006c6c 	streq	r6, [r0], #-3180	; 0xfffff394
    68b4:	00005e4f 	andeq	r5, r0, pc, asr #28
    68b8:	09000400 	stmdbeq	r0, {sl}
    68bc:	00001f1e 	andeq	r1, r0, lr, lsl pc
    68c0:	c5520440 	ldrbgt	r0, [r2, #-1088]	; 0xfffffbc0
    68c4:	0b000010 	bleq	690c <__bss_end+0x3790>
    68c8:	00000e40 	andeq	r0, r0, r0, asr #28
    68cc:	0fb35304 	svceq	0x00b35304
    68d0:	0b000000 	bleq	68d8 <__bss_end+0x375c>
    68d4:	00001ef1 	strdeq	r1, [r0], -r1	; <UNPREDICTABLE>
    68d8:	10c55404 	sbcne	r5, r5, r4, lsl #8
    68dc:	00040000 	andeq	r0, r4, r0
    68e0:	00005e12 	andeq	r5, r0, r2, lsl lr
    68e4:	0010d500 	andseq	sp, r0, r0, lsl #10
    68e8:	0ee61300 	cdpeq	3, 14, cr1, cr6, cr0, {0}
    68ec:	000e0000 	andeq	r0, lr, r0
    68f0:	0001da16 	andeq	sp, r1, r6, lsl sl
    68f4:	00690400 	rsbeq	r0, r9, r0, lsl #8
    68f8:	89070000 	stmdbhi	r7, {}	; <UNPREDICTABLE>
    68fc:	00001164 	andeq	r1, r0, r4, ror #2
    6900:	0000d417 	andeq	sp, r0, r7, lsl r4
    6904:	29170000 	ldmdbcs	r7, {}	; <UNPREDICTABLE>
    6908:	01000001 	tsteq	r0, r1
    690c:	0000e117 	andeq	lr, r0, r7, lsl r1
    6910:	06170200 	ldreq	r0, [r7], -r0, lsl #4
    6914:	03000001 	movweq	r0, #1
    6918:	00025c17 	andeq	r5, r2, r7, lsl ip
    691c:	a1170400 	tstge	r7, r0, lsl #8
    6920:	05000001 	streq	r0, [r0, #-1]
    6924:	00018917 	andeq	r8, r1, r7, lsl r9
    6928:	c4170600 	ldrgt	r0, [r7], #-1536	; 0xfffffa00
    692c:	07000001 	streq	r0, [r0, -r1]
    6930:	0000c817 	andeq	ip, r0, r7, lsl r8
    6934:	fb170800 	blx	5c893e <__bss_end+0x5c57c2>
    6938:	09000000 	stmdbeq	r0, {}	; <UNPREDICTABLE>
    693c:	00019617 	andeq	r9, r1, r7, lsl r6
    6940:	76170a00 	ldrvc	r0, [r7], -r0, lsl #20
    6944:	0b000002 	bleq	6954 <__bss_end+0x37d8>
    6948:	0001d417 	andeq	sp, r1, r7, lsl r4
    694c:	e6170c00 	ldr	r0, [r7], -r0, lsl #24
    6950:	0d000002 	stceq	0, cr0, [r0, #-8]
    6954:	00033117 	andeq	r3, r3, r7, lsl r1
    6958:	68170e00 	ldmdavs	r7, {r9, sl, fp}
    695c:	0f000002 	svceq	0x00000002
    6960:	00030117 	andeq	r0, r3, r7, lsl r1
    6964:	4f171000 	svcmi	0x00171000
    6968:	11000002 	tstne	r0, r2
    696c:	00031b17 	andeq	r1, r3, r7, lsl fp
    6970:	ee171200 	cdp	2, 1, cr1, cr7, cr0, {0}
    6974:	13000000 	movwne	r0, #0
    6978:	0002d817 	andeq	sp, r2, r7, lsl r8
    697c:	02001400 	andeq	r1, r0, #0, 8
    6980:	011b0801 	tsteq	fp, r1, lsl #16
    6984:	04020000 	streq	r0, [r2], #-0
    6988:	0001b207 	andeq	fp, r1, r7, lsl #4
    698c:	055d1800 	ldrbeq	r1, [sp, #-2048]	; 0xfffff800
    6990:	1f010000 	svcne	0x00010000
    6994:	00000fb3 			; <UNDEFINED> instruction: 0x00000fb3
    6998:	00002868 	andeq	r2, r0, r8, ror #16
    699c:	00000030 	andeq	r0, r0, r0, lsr r0
    69a0:	119b9c01 	orrsne	r9, fp, r1, lsl #24
    69a4:	f9190000 			; <UNDEFINED> instruction: 0xf9190000
    69a8:	01000016 	tsteq	r0, r6, lsl r0
    69ac:	00005e1f 	andeq	r5, r0, pc, lsl lr
    69b0:	00176200 	andseq	r6, r7, r0, lsl #4
    69b4:	9a1a0000 	bls	6869bc <__bss_end+0x683840>
    69b8:	01000016 	tsteq	r0, r6, lsl r0
    69bc:	000fb338 	andeq	fp, pc, r8, lsr r3	; <UNPREDICTABLE>
    69c0:	00289800 	eoreq	r9, r8, r0, lsl #16
    69c4:	00001000 	andeq	r1, r0, r0
    69c8:	189c0100 	ldmne	ip, {r8}
    69cc:	00001ee4 	andeq	r1, r0, r4, ror #29
    69d0:	004c5f01 	subeq	r5, ip, r1, lsl #30
    69d4:	28a80000 	stmiacs	r8!, {}	; <UNPREDICTABLE>
    69d8:	003c0000 	eorseq	r0, ip, r0
    69dc:	9c010000 	stcls	0, cr0, [r1], {-0}
    69e0:	000011d9 	ldrdeq	r1, [r0], -r9
    69e4:	001f1d19 	andseq	r1, pc, r9, lsl sp	; <UNPREDICTABLE>
    69e8:	d95f0100 	ldmdble	pc, {r8}^	; <UNPREDICTABLE>
    69ec:	83000011 	movwhi	r0, #17
    69f0:	00000017 	andeq	r0, r0, r7, lsl r0
    69f4:	10a00415 	adcne	r0, r0, r5, lsl r4
    69f8:	28180000 	ldmdacs	r8, {}	; <UNPREDICTABLE>
    69fc:	0100001f 	tsteq	r0, pc, lsl r0
    6a00:	00004c7a 	andeq	r4, r0, sl, ror ip
    6a04:	0028e400 	eoreq	lr, r8, r0, lsl #8
    6a08:	00003400 	andeq	r3, r0, r0, lsl #8
    6a0c:	089c0100 	ldmeq	ip, {r8}
    6a10:	19000012 	stmdbne	r0, {r1, r4}
    6a14:	00001f1d 	andeq	r1, r0, sp, lsl pc
    6a18:	11d97a01 	bicsne	r7, r9, r1, lsl #20
    6a1c:	17a10000 	strne	r0, [r1, r0]!
    6a20:	18000000 	stmdane	r0, {}	; <UNPREDICTABLE>
    6a24:	00000a96 	muleq	r0, r6, sl
    6a28:	004c9801 	subeq	r9, ip, r1, lsl #16
    6a2c:	29180000 	ldmdbcs	r8, {}	; <UNPREDICTABLE>
    6a30:	007c0000 	rsbseq	r0, ip, r0
    6a34:	9c010000 	stcls	0, cr0, [r1], {-0}
    6a38:	00001253 	andeq	r1, r0, r3, asr r2
    6a3c:	0007f819 	andeq	pc, r7, r9, lsl r8	; <UNPREDICTABLE>
    6a40:	53980100 	orrspl	r0, r8, #0, 2
    6a44:	cd000012 	stcgt	0, cr0, [r0, #-72]	; 0xffffffb8
    6a48:	1b000017 	blne	6aac <__bss_end+0x3930>
    6a4c:	00002970 	andeq	r2, r0, r0, ror r9
    6a50:	000013ed 	andeq	r1, r0, sp, ror #7
    6a54:	00001243 	andeq	r1, r0, r3, asr #4
    6a58:	0150011c 	cmpeq	r0, ip, lsl r1
    6a5c:	841d0035 	ldrhi	r0, [sp], #-53	; 0xffffffcb
    6a60:	ed000029 	stc	0, cr0, [r0, #-164]	; 0xffffff5c
    6a64:	1c000013 	stcne	0, cr0, [r0], {19}
    6a68:	35015001 	strcc	r5, [r1, #-1]
    6a6c:	04150000 	ldreq	r0, [r5], #-0
    6a70:	00000fb9 			; <UNDEFINED> instruction: 0x00000fb9
    6a74:	001ed518 	andseq	sp, lr, r8, lsl r5
    6a78:	4cbd0100 	ldfmis	f0, [sp]
    6a7c:	94000000 	strls	r0, [r0], #-0
    6a80:	48000029 	stmdami	r0, {r0, r3, r5}
    6a84:	01000000 	mrseq	r0, (UNDEF: 0)
    6a88:	0012829c 	mulseq	r2, ip, r2
    6a8c:	07f81900 	ldrbeq	r1, [r8, r0, lsl #18]!
    6a90:	bd010000 	stclt	0, cr0, [r1, #-0]
    6a94:	00001253 	andeq	r1, r0, r3, asr r2
    6a98:	00001804 	andeq	r1, r0, r4, lsl #16
    6a9c:	08c41800 	stmiaeq	r4, {fp, ip}^
    6aa0:	d7010000 	strle	r0, [r1, -r0]
    6aa4:	0000004c 	andeq	r0, r0, ip, asr #32
    6aa8:	000029dc 	ldrdeq	r2, [r0], -ip
    6aac:	0000006c 	andeq	r0, r0, ip, rrx
    6ab0:	12ab9c01 	adcne	r9, fp, #256	; 0x100
    6ab4:	0a190000 	beq	646abc <__bss_end+0x643940>
    6ab8:	0100001f 	tsteq	r0, pc, lsl r0
    6abc:	0012abd7 			; <UNDEFINED> instruction: 0x0012abd7
    6ac0:	00183800 	andseq	r3, r8, r0, lsl #16
    6ac4:	04150000 	ldreq	r0, [r5], #-0
    6ac8:	00001057 	andeq	r1, r0, r7, asr r0
    6acc:	001efe18 	andseq	pc, lr, r8, lsl lr	; <UNPREDICTABLE>
    6ad0:	4cfa0100 	ldfmie	f0, [sl]
    6ad4:	48000000 	stmdami	r0, {}	; <UNPREDICTABLE>
    6ad8:	5000002a 	andpl	r0, r0, sl, lsr #32
    6adc:	01000000 	mrseq	r0, (UNDEF: 0)
    6ae0:	0012da9c 	mulseq	r2, ip, sl
    6ae4:	1f0a1900 	svcne	0x000a1900
    6ae8:	fa010000 	blx	46af0 <__bss_end+0x43974>
    6aec:	000012ab 	andeq	r1, r0, fp, lsr #5
    6af0:	00001864 	andeq	r1, r0, r4, ror #16
    6af4:	062f1e00 	strteq	r1, [pc], -r0, lsl #28
    6af8:	1a010000 	bne	46b00 <__bss_end+0x43984>
    6afc:	00004c01 	andeq	r4, r0, r1, lsl #24
    6b00:	002a9800 	eoreq	r9, sl, r0, lsl #16
    6b04:	00009800 	andeq	r9, r0, r0, lsl #16
    6b08:	059c0100 	ldreq	r0, [ip, #256]	; 0x100
    6b0c:	1f000013 	svcne	0x00000013
    6b10:	00000a57 	andeq	r0, r0, r7, asr sl
    6b14:	05011a01 	streq	r1, [r1, #-2561]	; 0xfffff5ff
    6b18:	82000013 	andhi	r0, r0, #19
    6b1c:	00000018 	andeq	r0, r0, r8, lsl r0
    6b20:	0fde0415 	svceq	0x00de0415
    6b24:	851e0000 	ldrhi	r0, [lr, #-0]
    6b28:	0100001e 	tsteq	r0, lr, lsl r0
    6b2c:	004c0161 	subeq	r0, ip, r1, ror #2
    6b30:	2b300000 	blcs	c06b38 <__bss_end+0xc039bc>
    6b34:	00600000 	rsbeq	r0, r0, r0
    6b38:	9c010000 	stcls	0, cr0, [r1], {-0}
    6b3c:	00001336 	andeq	r1, r0, r6, lsr r3
    6b40:	000a571f 	andeq	r5, sl, pc, lsl r7
    6b44:	01610100 	cmneq	r1, r0, lsl #2
    6b48:	00001305 	andeq	r1, r0, r5, lsl #6
    6b4c:	000018ae 	andeq	r1, r0, lr, lsr #17
    6b50:	13481e00 	movtne	r1, #36352	; 0x8e00
    6b54:	c1010000 	mrsgt	r0, (UNDEF: 1)
    6b58:	00005e01 	andeq	r5, r0, r1, lsl #28
    6b5c:	002b9000 	eoreq	r9, fp, r0
    6b60:	00007c00 	andeq	r7, r0, r0, lsl #24
    6b64:	ba9c0100 	blt	fe706f6c <__bss_end+0xfe703df0>
    6b68:	20000013 	andcs	r0, r0, r3, lsl r0
    6b6c:	00000761 	andeq	r0, r0, r1, ror #14
    6b70:	5e01c301 	cdppl	3, 0, cr12, cr1, cr1, {0}
    6b74:	cc000000 	stcgt	0, cr0, [r0], {-0}
    6b78:	20000018 	andcs	r0, r0, r8, lsl r0
    6b7c:	00000751 	andeq	r0, r0, r1, asr r7
    6b80:	5e01c401 	cdppl	4, 0, cr12, cr1, cr1, {0}
    6b84:	03000000 	movweq	r0, #0
    6b88:	20000019 	andcs	r0, r0, r9, lsl r0
    6b8c:	00000759 	andeq	r0, r0, r9, asr r7
    6b90:	5e01c501 	cfsh32pl	mvfx12, mvfx1, #1
    6b94:	3f000000 	svccc	0x00000000
    6b98:	20000019 	andcs	r0, r0, r9, lsl r0
    6b9c:	00000771 	andeq	r0, r0, r1, ror r7
    6ba0:	5e01c601 	cfmadd32pl	mvax0, mvfx12, mvfx1, mvfx1
    6ba4:	76000000 	strvc	r0, [r0], -r0
    6ba8:	20000019 	andcs	r0, r0, r9, lsl r0
    6bac:	00001f15 	andeq	r1, r0, r5, lsl pc
    6bb0:	5e01c701 	cdppl	7, 0, cr12, cr1, cr1, {0}
    6bb4:	ad000000 	stcge	0, cr0, [r0, #-0]
    6bb8:	20000019 	andcs	r0, r0, r9, lsl r0
    6bbc:	00001354 	andeq	r1, r0, r4, asr r3
    6bc0:	5e01c801 	cdppl	8, 0, cr12, cr1, cr1, {0}
    6bc4:	ff000000 			; <UNDEFINED> instruction: 0xff000000
    6bc8:	21000019 	tstcs	r0, r9, lsl r0
    6bcc:	00002c04 	andeq	r2, r0, r4, lsl #24
    6bd0:	000013f8 	strdeq	r1, [r0], -r8
    6bd4:	0e402200 	cdpeq	2, 4, cr2, cr0, cr0, {0}
    6bd8:	0e010000 	cdpeq	0, 0, cr0, cr1, cr0, {0}
    6bdc:	00000fb3 			; <UNDEFINED> instruction: 0x00000fb3
    6be0:	2f840305 	svccs	0x00840305
    6be4:	c2220000 	eorgt	r0, r2, #0
    6be8:	0100001e 	tsteq	r0, lr, lsl r0
    6bec:	0001693f 	andeq	r6, r1, pc, lsr r9
    6bf0:	8c030500 	cfstr32hi	mvfx0, [r3], {-0}
    6bf4:	2200002f 	andcs	r0, r0, #47	; 0x2f
    6bf8:	00001f38 	andeq	r1, r0, r8, lsr pc
    6bfc:	06884001 	streq	r4, [r8], r1
    6c00:	03050000 	movweq	r0, #20480	; 0x5000
    6c04:	00002f88 	andeq	r2, r0, r8, lsl #31
    6c08:	000f7723 	andeq	r7, pc, r3, lsr #14
    6c0c:	000f7700 	andeq	r7, pc, r0, lsl #14
    6c10:	231b0500 	tstcs	fp, #0, 10
    6c14:	0000135d 	andeq	r1, r0, sp, asr r3
    6c18:	0000135d 	andeq	r1, r0, sp, asr r3
    6c1c:	Address 0x0000000000006c1c is out of bounds.


Disassembly of section .debug_abbrev:

00000000 <.debug_abbrev>:
       0:	25011101 	strcs	r1, [r1, #-257]	; 0xfffffeff
       4:	030b130e 	movweq	r1, #45838	; 0xb30e
       8:	100e1b0e 	andne	r1, lr, lr, lsl #22
       c:	02000017 	andeq	r0, r0, #23
      10:	0b0b0024 	bleq	2c00a8 <__bss_end+0x2bcf2c>
      14:	0e030b3e 	vmoveq.16	d3[0], r0
      18:	24030000 	strcs	r0, [r3], #-0
      1c:	3e0b0b00 	vmlacc.f64	d0, d11, d0
      20:	0008030b 	andeq	r0, r8, fp, lsl #6
      24:	01040400 	tsteq	r4, r0, lsl #8
      28:	0b0b0e03 	bleq	2c383c <__bss_end+0x2c06c0>
      2c:	0b3a1349 	bleq	e84d58 <__bss_end+0xe81bdc>
      30:	13010b3b 	movwne	r0, #6971	; 0x1b3b
      34:	28050000 	stmdacs	r5, {}	; <UNPREDICTABLE>
      38:	1c0e0300 	stcne	3, cr0, [lr], {-0}
      3c:	0600000b 	streq	r0, [r0], -fp
      40:	0e030113 	mcreq	1, 0, r0, cr3, cr3, {0}
      44:	0b3a0b0b 	bleq	e82c78 <__bss_end+0xe7fafc>
      48:	13010b3b 	movwne	r0, #6971	; 0x1b3b
      4c:	0d070000 	stceq	0, cr0, [r7, #-0]
      50:	3a0e0300 	bcc	380c58 <__bss_end+0x37dadc>
      54:	490b3b0b 	stmdbmi	fp, {r0, r1, r3, r8, r9, fp, ip, sp}
      58:	000b3813 	andeq	r3, fp, r3, lsl r8
      5c:	01010800 	tsteq	r1, r0, lsl #16
      60:	13011349 	movwne	r1, #4937	; 0x1349
      64:	21090000 	mrscs	r0, (UNDEF: 9)
      68:	2f134900 	svccs	0x00134900
      6c:	0a00000b 	beq	a0 <config_61+0x4>
      70:	0e030016 	mcreq	0, 0, r0, cr3, cr6, {0}
      74:	0b3b0b3a 	bleq	ec2d64 <__bss_end+0xebfbe8>
      78:	00001349 	andeq	r1, r0, r9, asr #6
      7c:	0300340b 	movweq	r3, #1035	; 0x40b
      80:	3b0b3a0e 	blcc	2ce8c0 <__bss_end+0x2cb744>
      84:	3f13490b 	svccc	0x0013490b
      88:	00180219 	andseq	r0, r8, r9, lsl r2
      8c:	00260c00 	eoreq	r0, r6, r0, lsl #24
      90:	00001349 	andeq	r1, r0, r9, asr #6
      94:	00110100 	andseq	r0, r1, r0, lsl #2
      98:	01110610 	tsteq	r1, r0, lsl r6
      9c:	08030112 	stmdaeq	r3, {r1, r4, r8}
      a0:	0825081b 	stmdaeq	r5!, {r0, r1, r3, r4, fp}
      a4:	00000513 	andeq	r0, r0, r3, lsl r5
      a8:	01110100 	tsteq	r1, r0, lsl #2
      ac:	0b130e25 	bleq	4c3948 <__bss_end+0x4c07cc>
      b0:	0e1b0e03 	cdpeq	14, 1, cr0, cr11, cr3, {0}
      b4:	06120111 			; <UNDEFINED> instruction: 0x06120111
      b8:	00001710 	andeq	r1, r0, r0, lsl r7
      bc:	0b002402 	bleq	90cc <__bss_end+0x5f50>
      c0:	030b3e0b 	movweq	r3, #48651	; 0xbe0b
      c4:	0300000e 	movweq	r0, #14
      c8:	0b0b0024 	bleq	2c0160 <__bss_end+0x2bcfe4>
      cc:	08030b3e 	stmdaeq	r3, {r1, r2, r3, r4, r5, r8, r9, fp}
      d0:	0f040000 	svceq	0x00040000
      d4:	490b0b00 	stmdbmi	fp, {r8, r9, fp}
      d8:	05000013 	streq	r0, [r0, #-19]	; 0xffffffed
      dc:	0b0b000f 	bleq	2c0120 <__bss_end+0x2bcfa4>
      e0:	2e060000 	cdpcs	0, 0, cr0, cr6, cr0, {0}
      e4:	03193f01 	tsteq	r9, #1, 30
      e8:	3b0b3a0e 	blcc	2ce928 <__bss_end+0x2cb7ac>
      ec:	1119270b 	tstne	r9, fp, lsl #14
      f0:	40061201 	andmi	r1, r6, r1, lsl #4
      f4:	19429718 	stmdbne	r2, {r3, r4, r8, r9, sl, ip, pc}^
      f8:	05070000 	streq	r0, [r7, #-0]
      fc:	3a0e0300 	bcc	380d04 <__bss_end+0x37db88>
     100:	490b3b0b 	stmdbmi	fp, {r0, r1, r3, r8, r9, fp, ip, sp}
     104:	00170213 	andseq	r0, r7, r3, lsl r2
     108:	00050800 	andeq	r0, r5, r0, lsl #16
     10c:	0b3a0803 	bleq	e82120 <__bss_end+0xe7efa4>
     110:	13490b3b 	movtne	r0, #39739	; 0x9b3b
     114:	00001702 	andeq	r1, r0, r2, lsl #14
     118:	03003409 	movweq	r3, #1033	; 0x409
     11c:	3b0b3a0e 	blcc	2ce95c <__bss_end+0x2cb7e0>
     120:	0213490b 	andseq	r4, r3, #180224	; 0x2c000
     124:	00000017 	andeq	r0, r0, r7, lsl r0
     128:	25011101 	strcs	r1, [r1, #-257]	; 0xfffffeff
     12c:	030b130e 	movweq	r1, #45838	; 0xb30e
     130:	100e1b0e 	andne	r1, lr, lr, lsl #22
     134:	02000017 	andeq	r0, r0, #23
     138:	0b0b0024 	bleq	2c01d0 <__bss_end+0x2bd054>
     13c:	0e030b3e 	vmoveq.16	d3[0], r0
     140:	24030000 	strcs	r0, [r3], #-0
     144:	3e0b0b00 	vmlacc.f64	d0, d11, d0
     148:	0008030b 	andeq	r0, r8, fp, lsl #6
     14c:	11010000 	mrsne	r0, (UNDEF: 1)
     150:	11061000 	mrsne	r1, (UNDEF: 6)
     154:	03011201 	movweq	r1, #4609	; 0x1201
     158:	25081b08 	strcs	r1, [r8, #-2824]	; 0xfffff4f8
     15c:	00051308 	andeq	r1, r5, r8, lsl #6
     160:	11010000 	mrsne	r0, (UNDEF: 1)
     164:	130e2501 	movwne	r2, #58625	; 0xe501
     168:	1b0e030b 	blne	380d9c <__bss_end+0x37dc20>
     16c:	0017100e 	andseq	r1, r7, lr
     170:	00240200 	eoreq	r0, r4, r0, lsl #4
     174:	0b3e0b0b 	bleq	f82da8 <__bss_end+0xf7fc2c>
     178:	00000e03 	andeq	r0, r0, r3, lsl #28
     17c:	0b002403 	bleq	9190 <__bss_end+0x6014>
     180:	030b3e0b 	movweq	r3, #48651	; 0xbe0b
     184:	00000008 	andeq	r0, r0, r8
     188:	25011101 	strcs	r1, [r1, #-257]	; 0xfffffeff
     18c:	030b130e 	movweq	r1, #45838	; 0xb30e
     190:	100e1b0e 	andne	r1, lr, lr, lsl #22
     194:	02000017 	andeq	r0, r0, #23
     198:	0b0b0024 	bleq	2c0230 <__bss_end+0x2bd0b4>
     19c:	0e030b3e 	vmoveq.16	d3[0], r0
     1a0:	24030000 	strcs	r0, [r3], #-0
     1a4:	3e0b0b00 	vmlacc.f64	d0, d11, d0
     1a8:	0008030b 	andeq	r0, r8, fp, lsl #6
     1ac:	11010000 	mrsne	r0, (UNDEF: 1)
     1b0:	130e2501 	movwne	r2, #58625	; 0xe501
     1b4:	1b0e030b 	blne	380de8 <__bss_end+0x37dc6c>
     1b8:	0017100e 	andseq	r1, r7, lr
     1bc:	00240200 	eoreq	r0, r4, r0, lsl #4
     1c0:	0b3e0b0b 	bleq	f82df4 <__bss_end+0xf7fc78>
     1c4:	00000e03 	andeq	r0, r0, r3, lsl #28
     1c8:	0b002403 	bleq	91dc <__bss_end+0x6060>
     1cc:	030b3e0b 	movweq	r3, #48651	; 0xbe0b
     1d0:	00000008 	andeq	r0, r0, r8
     1d4:	25011101 	strcs	r1, [r1, #-257]	; 0xfffffeff
     1d8:	030b130e 	movweq	r1, #45838	; 0xb30e
     1dc:	110e1b0e 	tstne	lr, lr, lsl #22
     1e0:	10061201 	andne	r1, r6, r1, lsl #4
     1e4:	02000017 	andeq	r0, r0, #23
     1e8:	0b0b0024 	bleq	2c0280 <__bss_end+0x2bd104>
     1ec:	0e030b3e 	vmoveq.16	d3[0], r0
     1f0:	16030000 	strne	r0, [r3], -r0
     1f4:	3a0e0300 	bcc	380dfc <__bss_end+0x37dc80>
     1f8:	490b3b0b 	stmdbmi	fp, {r0, r1, r3, r8, r9, fp, ip, sp}
     1fc:	04000013 	streq	r0, [r0], #-19	; 0xffffffed
     200:	0b0b0024 	bleq	2c0298 <__bss_end+0x2bd11c>
     204:	08030b3e 	stmdaeq	r3, {r1, r2, r3, r4, r5, r8, r9, fp}
     208:	13050000 	movwne	r0, #20480	; 0x5000
     20c:	3a0b0b01 	bcc	2c2e18 <__bss_end+0x2bfc9c>
     210:	010b3b0b 	tsteq	fp, fp, lsl #22
     214:	06000013 			; <UNDEFINED> instruction: 0x06000013
     218:	0e03000d 	cdpeq	0, 0, cr0, cr3, cr13, {0}
     21c:	0b3b0b3a 	bleq	ec2f0c <__bss_end+0xebfd90>
     220:	0b0b1349 	bleq	2c4f4c <__bss_end+0x2c1dd0>
     224:	0b0c0b0d 	bleq	302e60 <__bss_end+0x2ffce4>
     228:	00000b38 	andeq	r0, r0, r8, lsr fp
     22c:	0b011707 	bleq	45e50 <__bss_end+0x42cd4>
     230:	3b0b3a0b 	blcc	2cea64 <__bss_end+0x2cb8e8>
     234:	0013010b 	andseq	r0, r3, fp, lsl #2
     238:	000d0800 	andeq	r0, sp, r0, lsl #16
     23c:	0b3a0e03 	bleq	e83a50 <__bss_end+0xe808d4>
     240:	13490b3b 	movtne	r0, #39739	; 0x9b3b
     244:	13090000 	movwne	r0, #36864	; 0x9000
     248:	0b0e0301 	bleq	380e54 <__bss_end+0x37dcd8>
     24c:	3b0b3a0b 	blcc	2cea80 <__bss_end+0x2cb904>
     250:	0013010b 	andseq	r0, r3, fp, lsl #2
     254:	01130a00 	tsteq	r3, r0, lsl #20
     258:	050b0e03 	streq	r0, [fp, #-3587]	; 0xfffff1fd
     25c:	0b3b0b3a 	bleq	ec2f4c <__bss_end+0xebfdd0>
     260:	00001301 	andeq	r1, r0, r1, lsl #6
     264:	03000d0b 	movweq	r0, #3339	; 0xd0b
     268:	3b0b3a0e 	blcc	2ceaa8 <__bss_end+0x2cb92c>
     26c:	3813490b 	ldmdacc	r3, {r0, r1, r3, r8, fp, lr}
     270:	0c00000b 	stceq	0, cr0, [r0], {11}
     274:	0803000d 	stmdaeq	r3, {r0, r2, r3}
     278:	0b3b0b3a 	bleq	ec2f68 <__bss_end+0xebfdec>
     27c:	0b381349 	bleq	e04fa8 <__bss_end+0xe01e2c>
     280:	0d0d0000 	stceq	0, cr0, [sp, #-0]
     284:	3a0e0300 	bcc	380e8c <__bss_end+0x37dd10>
     288:	49053b0b 	stmdbmi	r5, {r0, r1, r3, r8, r9, fp, ip, sp}
     28c:	000b3813 	andeq	r3, fp, r3, lsl r8
     290:	000d0e00 	andeq	r0, sp, r0, lsl #28
     294:	0b3a0803 	bleq	e822a8 <__bss_end+0xe7f12c>
     298:	1349053b 	movtne	r0, #38203	; 0x953b
     29c:	00000b38 	andeq	r0, r0, r8, lsr fp
     2a0:	03000d0f 	movweq	r0, #3343	; 0xd0f
     2a4:	3b0b3a0e 	blcc	2ceae4 <__bss_end+0x2cb968>
     2a8:	38134905 	ldmdacc	r3, {r0, r2, r8, fp, lr}
     2ac:	10000005 	andne	r0, r0, r5
     2b0:	0803000d 	stmdaeq	r3, {r0, r2, r3}
     2b4:	053b0b3a 	ldreq	r0, [fp, #-2874]!	; 0xfffff4c6
     2b8:	05381349 	ldreq	r1, [r8, #-841]!	; 0xfffffcb7
     2bc:	35110000 	ldrcc	r0, [r1, #-0]
     2c0:	00134900 	andseq	r4, r3, r0, lsl #18
     2c4:	01011200 	mrseq	r1, R9_usr
     2c8:	13011349 	movwne	r1, #4937	; 0x1349
     2cc:	21130000 	tstcs	r3, r0
     2d0:	2f134900 	svccs	0x00134900
     2d4:	1400000b 	strne	r0, [r0], #-11
     2d8:	0e030016 	mcreq	0, 0, r0, cr3, cr6, {0}
     2dc:	053b0b3a 	ldreq	r0, [fp, #-2874]!	; 0xfffff4c6
     2e0:	00001349 	andeq	r1, r0, r9, asr #6
     2e4:	0b000f15 	bleq	3f40 <__bss_end+0xdc4>
     2e8:	0013490b 	andseq	r4, r3, fp, lsl #18
     2ec:	01041600 	tsteq	r4, r0, lsl #12
     2f0:	0b0b0e03 	bleq	2c3b04 <__bss_end+0x2c0988>
     2f4:	0b3a1349 	bleq	e85020 <__bss_end+0xe81ea4>
     2f8:	13010b3b 	movwne	r0, #6971	; 0x1b3b
     2fc:	28170000 	ldmdacs	r7, {}	; <UNPREDICTABLE>
     300:	1c0e0300 	stcne	3, cr0, [lr], {-0}
     304:	1800000b 	stmdane	r0, {r0, r1, r3}
     308:	0b0b0104 	bleq	2c0720 <__bss_end+0x2bd5a4>
     30c:	0b3a1349 	bleq	e85038 <__bss_end+0xe81ebc>
     310:	13010b3b 	movwne	r0, #6971	; 0x1b3b
     314:	28190000 	ldmdacs	r9, {}	; <UNPREDICTABLE>
     318:	1c0e0300 	stcne	3, cr0, [lr], {-0}
     31c:	1a000005 	bne	338 <set_pll+0xb8>
     320:	0b0b000f 	bleq	2c0364 <__bss_end+0x2bd1e8>
     324:	151b0000 	ldrne	r0, [fp, #-0]
     328:	49192700 	ldmdbmi	r9, {r8, r9, sl, sp}
     32c:	1c000013 	stcne	0, cr0, [r0], {19}
     330:	193f012e 	ldmdbne	pc!, {r1, r2, r3, r5, r8}	; <UNPREDICTABLE>
     334:	0b3a0e03 	bleq	e83b48 <__bss_end+0xe809cc>
     338:	19270b3b 	stmdbne	r7!, {r0, r1, r3, r4, r5, r8, r9, fp}
     33c:	01111349 	tsteq	r1, r9, asr #6
     340:	18400612 	stmdane	r0, {r1, r4, r9, sl}^
     344:	01194297 			; <UNDEFINED> instruction: 0x01194297
     348:	1d000013 	stcne	0, cr0, [r0, #-76]	; 0xffffffb4
     34c:	01018289 	smlabbeq	r1, r9, r2, r8
     350:	13310111 	teqne	r1, #1073741828	; 0x40000004
     354:	00001301 	andeq	r1, r0, r1, lsl #6
     358:	01828a1e 	orreq	r8, r2, lr, lsl sl
     35c:	91180200 	tstls	r8, r0, lsl #4
     360:	00001842 	andeq	r1, r0, r2, asr #16
     364:	0182891f 	orreq	r8, r2, pc, lsl r9
     368:	31011100 	mrscc	r1, (UNDEF: 17)
     36c:	20000013 	andcs	r0, r0, r3, lsl r0
     370:	01018289 	smlabbeq	r1, r9, r2, r8
     374:	13310111 	teqne	r1, #1073741828	; 0x40000004
     378:	2e210000 	cdpcs	0, 2, cr0, cr1, cr0, {0}
     37c:	03193f01 	tsteq	r9, #1, 30
     380:	3b0b3a0e 	blcc	2cebc0 <__bss_end+0x2cba44>
     384:	1119270b 	tstne	r9, fp, lsl #14
     388:	40061201 	andmi	r1, r6, r1, lsl #4
     38c:	19429718 	stmdbne	r2, {r3, r4, r8, r9, sl, ip, pc}^
     390:	00001301 	andeq	r1, r0, r1, lsl #6
     394:	03003422 	movweq	r3, #1058	; 0x422
     398:	3b0b3a0e 	blcc	2cebd8 <__bss_end+0x2cba5c>
     39c:	0213490b 	andseq	r4, r3, #180224	; 0x2c000
     3a0:	23000017 	movwcs	r0, #23
     3a4:	0e030034 	mcreq	0, 0, r0, cr3, cr4, {1}
     3a8:	0b3b0b3a 	bleq	ec3098 <__bss_end+0xebff1c>
     3ac:	0b1c1349 	bleq	7050d8 <__bss_end+0x701f5c>
     3b0:	89240000 	stmdbhi	r4!, {}	; <UNPREDICTABLE>
     3b4:	11010182 	smlabbne	r1, r2, r1, r0
     3b8:	19429501 	stmdbne	r2, {r0, r8, sl, ip, pc}^
     3bc:	13011331 	movwne	r1, #4913	; 0x1331
     3c0:	34250000 	strtcc	r0, [r5], #-0
     3c4:	3a0e0300 	bcc	380fcc <__bss_end+0x37de50>
     3c8:	490b3b0b 	stmdbmi	fp, {r0, r1, r3, r8, r9, fp, ip, sp}
     3cc:	26000013 			; <UNDEFINED> instruction: 0x26000013
     3d0:	0e030034 	mcreq	0, 0, r0, cr3, cr4, {1}
     3d4:	0b3b0b3a 	bleq	ec30c4 <__bss_end+0xebff48>
     3d8:	18021349 	stmdane	r2, {r0, r3, r6, r8, r9, ip}
     3dc:	34270000 	strtcc	r0, [r7], #-0
     3e0:	3a0e0300 	bcc	380fe8 <__bss_end+0x37de6c>
     3e4:	490b3b0b 	stmdbmi	fp, {r0, r1, r3, r8, r9, fp, ip, sp}
     3e8:	02193f13 	andseq	r3, r9, #19, 30	; 0x4c
     3ec:	28000018 	stmdacs	r0, {r3, r4}
     3f0:	0e030034 	mcreq	0, 0, r0, cr3, cr4, {1}
     3f4:	0b3b0b3a 	bleq	ec30e4 <__bss_end+0xebff68>
     3f8:	193f1349 	ldmdbne	pc!, {r0, r3, r6, r8, r9, ip}	; <UNPREDICTABLE>
     3fc:	0000193c 	andeq	r1, r0, ip, lsr r9
     400:	3f002e29 	svccc	0x00002e29
     404:	6e193c19 	mrcvs	12, 0, r3, cr9, cr9, {0}
     408:	3a0e030e 	bcc	381048 <__bss_end+0x37decc>
     40c:	000b3b0b 	andeq	r3, fp, fp, lsl #22
     410:	11010000 	mrsne	r0, (UNDEF: 1)
     414:	130e2501 	movwne	r2, #58625	; 0xe501
     418:	1b0e030b 	blne	38104c <__bss_end+0x37ded0>
     41c:	1201110e 	andne	r1, r1, #-2147483645	; 0x80000003
     420:	00171006 	andseq	r1, r7, r6
     424:	00240200 	eoreq	r0, r4, r0, lsl #4
     428:	0b3e0b0b 	bleq	f8305c <__bss_end+0xf7fee0>
     42c:	00000e03 	andeq	r0, r0, r3, lsl #28
     430:	0b002403 	bleq	9444 <__bss_end+0x62c8>
     434:	030b3e0b 	movweq	r3, #48651	; 0xbe0b
     438:	04000008 	streq	r0, [r0], #-8
     43c:	0e030016 	mcreq	0, 0, r0, cr3, cr6, {0}
     440:	0b3b0b3a 	bleq	ec3130 <__bss_end+0xebffb4>
     444:	00001349 	andeq	r1, r0, r9, asr #6
     448:	49003505 	stmdbmi	r0, {r0, r2, r8, sl, ip, sp}
     44c:	06000013 			; <UNDEFINED> instruction: 0x06000013
     450:	0e030104 	adfeqs	f0, f3, f4
     454:	13490b0b 	movtne	r0, #39691	; 0x9b0b
     458:	0b3b0b3a 	bleq	ec3148 <__bss_end+0xebffcc>
     45c:	00001301 	andeq	r1, r0, r1, lsl #6
     460:	03002807 	movweq	r2, #2055	; 0x807
     464:	000b1c0e 	andeq	r1, fp, lr, lsl #24
     468:	012e0800 			; <UNDEFINED> instruction: 0x012e0800
     46c:	0e03193f 	mcreq	9, 0, r1, cr3, cr15, {1}
     470:	0b3b0b3a 	bleq	ec3160 <__bss_end+0xebffe4>
     474:	01111927 	tsteq	r1, r7, lsr #18
     478:	18400612 	stmdane	r0, {r1, r4, r9, sl}^
     47c:	01194297 			; <UNDEFINED> instruction: 0x01194297
     480:	09000013 	stmdbeq	r0, {r0, r1, r4}
     484:	0e030034 	mcreq	0, 0, r0, cr3, cr4, {1}
     488:	0b3b0b3a 	bleq	ec3178 <__bss_end+0xebfffc>
     48c:	18021349 	stmdane	r2, {r0, r3, r6, r8, r9, ip}
     490:	340a0000 	strcc	r0, [sl], #-0
     494:	3a080300 	bcc	20109c <__bss_end+0x1fdf20>
     498:	490b3b0b 	stmdbmi	fp, {r0, r1, r3, r8, r9, fp, ip, sp}
     49c:	00170213 	andseq	r0, r7, r3, lsl r2
     4a0:	002e0b00 	eoreq	r0, lr, r0, lsl #22
     4a4:	0e03193f 	mcreq	9, 0, r1, cr3, cr15, {1}
     4a8:	0b3b0b3a 	bleq	ec3198 <__bss_end+0xec001c>
     4ac:	0b201927 	bleq	806950 <__bss_end+0x8037d4>
     4b0:	2e0c0000 	cdpcs	0, 0, cr0, cr12, cr0, {0}
     4b4:	11133100 	tstne	r3, r0, lsl #2
     4b8:	40061201 	andmi	r1, r6, r1, lsl #4
     4bc:	19429718 	stmdbne	r2, {r3, r4, r8, r9, sl, ip, pc}^
     4c0:	050d0000 	streq	r0, [sp, #-0]
     4c4:	3a080300 	bcc	2010cc <__bss_end+0x1fdf50>
     4c8:	490b3b0b 	stmdbmi	fp, {r0, r1, r3, r8, r9, fp, ip, sp}
     4cc:	00180213 	andseq	r0, r8, r3, lsl r2
     4d0:	002e0e00 	eoreq	r0, lr, r0, lsl #28
     4d4:	0e03193f 	mcreq	9, 0, r1, cr3, cr15, {1}
     4d8:	0b3b0b3a 	bleq	ec31c8 <__bss_end+0xec004c>
     4dc:	13491927 	movtne	r1, #39207	; 0x9927
     4e0:	06120111 			; <UNDEFINED> instruction: 0x06120111
     4e4:	42971840 	addsmi	r1, r7, #64, 16	; 0x400000
     4e8:	0f000019 	svceq	0x00000019
     4ec:	01018289 	smlabbeq	r1, r9, r2, r8
     4f0:	13310111 	teqne	r1, #1073741828	; 0x40000004
     4f4:	8a100000 	bhi	4004fc <__bss_end+0x3fd380>
     4f8:	02000182 	andeq	r0, r0, #-2147483616	; 0x80000020
     4fc:	18429118 	stmdane	r2, {r3, r4, r8, ip, pc}^
     500:	2e110000 	cdpcs	0, 1, cr0, cr1, cr0, {0}
     504:	03193f00 	tsteq	r9, #0, 30
     508:	3b0b3a0e 	blcc	2ced48 <__bss_end+0x2cbbcc>
     50c:	11192705 	tstne	r9, r5, lsl #14
     510:	40061201 	andmi	r1, r6, r1, lsl #4
     514:	19429718 	stmdbne	r2, {r3, r4, r8, r9, sl, ip, pc}^
     518:	2e120000 	cdpcs	0, 1, cr0, cr2, cr0, {0}
     51c:	03193f01 	tsteq	r9, #1, 30
     520:	3b0b3a0e 	blcc	2ced60 <__bss_end+0x2cbbe4>
     524:	11192705 	tstne	r9, r5, lsl #14
     528:	40061201 	andmi	r1, r6, r1, lsl #4
     52c:	19429718 	stmdbne	r2, {r3, r4, r8, r9, sl, ip, pc}^
     530:	00001301 	andeq	r1, r0, r1, lsl #6
     534:	03003413 	movweq	r3, #1043	; 0x413
     538:	3b0b3a0e 	blcc	2ced78 <__bss_end+0x2cbbfc>
     53c:	02134905 	andseq	r4, r3, #81920	; 0x14000
     540:	14000018 	strne	r0, [r0], #-24	; 0xffffffe8
     544:	08030005 	stmdaeq	r3, {r0, r2}
     548:	053b0b3a 	ldreq	r0, [fp, #-2874]!	; 0xfffff4c6
     54c:	17021349 	strne	r1, [r2, -r9, asr #6]
     550:	34150000 	ldrcc	r0, [r5], #-0
     554:	3a0e0300 	bcc	38115c <__bss_end+0x37dfe0>
     558:	490b3b0b 	stmdbmi	fp, {r0, r1, r3, r8, r9, fp, ip, sp}
     55c:	02193f13 	andseq	r3, r9, #19, 30	; 0x4c
     560:	16000018 			; <UNDEFINED> instruction: 0x16000018
     564:	193f002e 	ldmdbne	pc!, {r1, r2, r3, r5}	; <UNPREDICTABLE>
     568:	0e6e193c 	mcreq	9, 3, r1, cr14, cr12, {1}
     56c:	0b3a0e03 	bleq	e83d80 <__bss_end+0xe80c04>
     570:	00000b3b 	andeq	r0, r0, fp, lsr fp
     574:	01110100 	tsteq	r1, r0, lsl #2
     578:	0b130e25 	bleq	4c3e14 <__bss_end+0x4c0c98>
     57c:	0e1b0e03 	cdpeq	14, 1, cr0, cr11, cr3, {0}
     580:	06120111 			; <UNDEFINED> instruction: 0x06120111
     584:	00001710 	andeq	r1, r0, r0, lsl r7
     588:	0b002402 	bleq	9598 <__bss_end+0x641c>
     58c:	030b3e0b 	movweq	r3, #48651	; 0xbe0b
     590:	0300000e 	movweq	r0, #14
     594:	0e030016 	mcreq	0, 0, r0, cr3, cr6, {0}
     598:	0b3b0b3a 	bleq	ec3288 <__bss_end+0xec010c>
     59c:	00001349 	andeq	r1, r0, r9, asr #6
     5a0:	0b002404 	bleq	95b8 <__bss_end+0x643c>
     5a4:	030b3e0b 	movweq	r3, #48651	; 0xbe0b
     5a8:	05000008 	streq	r0, [r0, #-8]
     5ac:	0e030104 	adfeqs	f0, f3, f4
     5b0:	13490b0b 	movtne	r0, #39691	; 0x9b0b
     5b4:	0b3b0b3a 	bleq	ec32a4 <__bss_end+0xec0128>
     5b8:	00001301 	andeq	r1, r0, r1, lsl #6
     5bc:	03002806 	movweq	r2, #2054	; 0x806
     5c0:	000b1c0e 	andeq	r1, fp, lr, lsl #24
     5c4:	012e0700 			; <UNDEFINED> instruction: 0x012e0700
     5c8:	0e03193f 	mcreq	9, 0, r1, cr3, cr15, {1}
     5cc:	0b3b0b3a 	bleq	ec32bc <__bss_end+0xec0140>
     5d0:	13491927 	movtne	r1, #39207	; 0x9927
     5d4:	13010b20 	movwne	r0, #6944	; 0x1b20
     5d8:	34080000 	strcc	r0, [r8], #-0
     5dc:	3a0e0300 	bcc	3811e4 <__bss_end+0x37e068>
     5e0:	490b3b0b 	stmdbmi	fp, {r0, r1, r3, r8, r9, fp, ip, sp}
     5e4:	09000013 	stmdbeq	r0, {r0, r1, r4}
     5e8:	193f012e 	ldmdbne	pc!, {r1, r2, r3, r5, r8}	; <UNPREDICTABLE>
     5ec:	0b3a0e03 	bleq	e83e00 <__bss_end+0xe80c84>
     5f0:	19270b3b 	stmdbne	r7!, {r0, r1, r3, r4, r5, r8, r9, fp}
     5f4:	13010b20 	movwne	r0, #6944	; 0x1b20
     5f8:	050a0000 	streq	r0, [sl, #-0]
     5fc:	3a0e0300 	bcc	381204 <__bss_end+0x37e088>
     600:	490b3b0b 	stmdbmi	fp, {r0, r1, r3, r8, r9, fp, ip, sp}
     604:	0b000013 	bleq	658 <delay_us+0x40>
     608:	0e03012e 	adfeqsp	f0, f3, #0.5
     60c:	0b3b0b3a 	bleq	ec32fc <__bss_end+0xec0180>
     610:	13491927 	movtne	r1, #39207	; 0x9927
     614:	13010b20 	movwne	r0, #6944	; 0x1b20
     618:	2e0c0000 	cdpcs	0, 0, cr0, cr12, cr0, {0}
     61c:	11133101 	tstne	r3, r1, lsl #2
     620:	40061201 	andmi	r1, r6, r1, lsl #4
     624:	19429718 	stmdbne	r2, {r3, r4, r8, r9, sl, ip, pc}^
     628:	00001301 	andeq	r1, r0, r1, lsl #6
     62c:	3100050d 	tstcc	r0, sp, lsl #10
     630:	00180213 	andseq	r0, r8, r3, lsl r2
     634:	00340e00 	eorseq	r0, r4, r0, lsl #28
     638:	17021331 	smladxne	r2, r1, r3, r1
     63c:	2e0f0000 	cdpcs	0, 0, cr0, cr15, cr0, {0}
     640:	03193f00 	tsteq	r9, #0, 30
     644:	3b0b3a0e 	blcc	2cee84 <__bss_end+0x2cbd08>
     648:	1119270b 	tstne	r9, fp, lsl #14
     64c:	40061201 	andmi	r1, r6, r1, lsl #4
     650:	19429718 	stmdbne	r2, {r3, r4, r8, r9, sl, ip, pc}^
     654:	34100000 	ldrcc	r0, [r0], #-0
     658:	02133100 	andseq	r3, r3, #0, 2
     65c:	11000018 	tstne	r0, r8, lsl r0
     660:	193f012e 	ldmdbne	pc!, {r1, r2, r3, r5, r8}	; <UNPREDICTABLE>
     664:	0b3a0e03 	bleq	e83e78 <__bss_end+0xe80cfc>
     668:	19270b3b 	stmdbne	r7!, {r0, r1, r3, r4, r5, r8, r9, fp}
     66c:	06120111 			; <UNDEFINED> instruction: 0x06120111
     670:	42971840 	addsmi	r1, r7, #64, 16	; 0x400000
     674:	00130119 	andseq	r0, r3, r9, lsl r1
     678:	00341200 	eorseq	r1, r4, r0, lsl #4
     67c:	0b3a0e03 	bleq	e83e90 <__bss_end+0xe80d14>
     680:	13490b3b 	movtne	r0, #39739	; 0x9b3b
     684:	00001702 	andeq	r1, r0, r2, lsl #14
     688:	03003413 	movweq	r3, #1043	; 0x413
     68c:	3b0b3a08 	blcc	2ceeb4 <__bss_end+0x2cbd38>
     690:	0213490b 	andseq	r4, r3, #180224	; 0x2c000
     694:	14000017 	strne	r0, [r0], #-23	; 0xffffffe9
     698:	1331011d 	teqne	r1, #1073741831	; 0x40000007
     69c:	06120111 			; <UNDEFINED> instruction: 0x06120111
     6a0:	0b590b58 	bleq	1643408 <__bss_end+0x164028c>
     6a4:	00001301 	andeq	r1, r0, r1, lsl #6
     6a8:	11010b15 	tstne	r1, r5, lsl fp
     6ac:	00061201 	andeq	r1, r6, r1, lsl #4
     6b0:	82891600 	addhi	r1, r9, #0, 12
     6b4:	01110001 	tsteq	r1, r1
     6b8:	00001331 	andeq	r1, r0, r1, lsr r3
     6bc:	03000517 	movweq	r0, #1303	; 0x517
     6c0:	3b0b3a08 	blcc	2ceee8 <__bss_end+0x2cbd6c>
     6c4:	0213490b 	andseq	r4, r3, #180224	; 0x2c000
     6c8:	18000017 	stmdane	r0, {r0, r1, r2, r4}
     6cc:	0803000a 	stmdaeq	r3, {r1, r3}
     6d0:	0b3b0b3a 	bleq	ec33c0 <__bss_end+0xec0244>
     6d4:	00000111 	andeq	r0, r0, r1, lsl r1
     6d8:	31003419 	tstcc	r0, r9, lsl r4
     6dc:	1a000013 	bne	730 <set_event_counter+0x24>
     6e0:	13310005 	teqne	r1, #5
     6e4:	00001702 	andeq	r1, r0, r2, lsl #14
     6e8:	0182891b 	orreq	r8, r2, fp, lsl r9
     6ec:	31011101 	tstcc	r1, r1, lsl #2
     6f0:	1c000013 	stcne	0, cr0, [r0], {19}
     6f4:	0001828a 	andeq	r8, r1, sl, lsl #5
     6f8:	42911802 	addsmi	r1, r1, #131072	; 0x20000
     6fc:	1d000018 	stcne	0, cr0, [r0, #-96]	; 0xffffffa0
     700:	01018289 	smlabbeq	r1, r9, r2, r8
     704:	13310111 	teqne	r1, #1073741828	; 0x40000004
     708:	00001301 	andeq	r1, r0, r1, lsl #6
     70c:	0182891e 	orreq	r8, r2, lr, lsl r9
     710:	95011100 	strls	r1, [r1, #-256]	; 0xffffff00
     714:	13311942 	teqne	r1, #1081344	; 0x108000
     718:	051f0000 	ldreq	r0, [pc, #-0]	; 720 <set_event_counter+0x14>
     71c:	3a0e0300 	bcc	381324 <__bss_end+0x37e1a8>
     720:	490b3b0b 	stmdbmi	fp, {r0, r1, r3, r8, r9, fp, ip, sp}
     724:	00180213 	andseq	r0, r8, r3, lsl r2
     728:	012e2000 			; <UNDEFINED> instruction: 0x012e2000
     72c:	0e03193f 	mcreq	9, 0, r1, cr3, cr15, {1}
     730:	053b0b3a 	ldreq	r0, [fp, #-2874]!	; 0xfffff4c6
     734:	13491927 	movtne	r1, #39207	; 0x9927
     738:	06120111 			; <UNDEFINED> instruction: 0x06120111
     73c:	42971840 	addsmi	r1, r7, #64, 16	; 0x400000
     740:	00130119 	andseq	r0, r3, r9, lsl r1
     744:	00052100 	andeq	r2, r5, r0, lsl #2
     748:	0b3a0e03 	bleq	e83f5c <__bss_end+0xe80de0>
     74c:	1349053b 	movtne	r0, #38203	; 0x953b
     750:	00001702 	andeq	r1, r0, r2, lsl #14
     754:	03003422 	movweq	r3, #1058	; 0x422
     758:	3b0b3a0e 	blcc	2cef98 <__bss_end+0x2cbe1c>
     75c:	02134905 	andseq	r4, r3, #81920	; 0x14000
     760:	23000017 	movwcs	r0, #23
     764:	0e030034 	mcreq	0, 0, r0, cr3, cr4, {1}
     768:	0b3b0b3a 	bleq	ec3458 <__bss_end+0xec02dc>
     76c:	18021349 	stmdane	r2, {r0, r3, r6, r8, r9, ip}
     770:	2e240000 	cdpcs	0, 2, cr0, cr4, cr0, {0}
     774:	3c193f00 	ldccc	15, cr3, [r9], {-0}
     778:	030e6e19 	movweq	r6, #60953	; 0xee19
     77c:	3b0b3a0e 	blcc	2cefbc <__bss_end+0x2cbe40>
     780:	0000000b 	andeq	r0, r0, fp
     784:	25011101 	strcs	r1, [r1, #-257]	; 0xfffffeff
     788:	030b130e 	movweq	r1, #45838	; 0xb30e
     78c:	110e1b0e 	tstne	lr, lr, lsl #22
     790:	10061201 	andne	r1, r6, r1, lsl #4
     794:	02000017 	andeq	r0, r0, #23
     798:	0b0b0024 	bleq	2c0830 <__bss_end+0x2bd6b4>
     79c:	0e030b3e 	vmoveq.16	d3[0], r0
     7a0:	24030000 	strcs	r0, [r3], #-0
     7a4:	3e0b0b00 	vmlacc.f64	d0, d11, d0
     7a8:	0008030b 	andeq	r0, r8, fp, lsl #6
     7ac:	00160400 	andseq	r0, r6, r0, lsl #8
     7b0:	0b3a0e03 	bleq	e83fc4 <__bss_end+0xe80e48>
     7b4:	13490b3b 	movtne	r0, #39739	; 0x9b3b
     7b8:	13050000 	movwne	r0, #20480	; 0x5000
     7bc:	0b0e0301 	bleq	3813c8 <__bss_end+0x37e24c>
     7c0:	3b0b3a0b 	blcc	2ceff4 <__bss_end+0x2cbe78>
     7c4:	0013010b 	andseq	r0, r3, fp, lsl #2
     7c8:	000d0600 	andeq	r0, sp, r0, lsl #12
     7cc:	0b3a0e03 	bleq	e83fe0 <__bss_end+0xe80e64>
     7d0:	13490b3b 	movtne	r0, #39739	; 0x9b3b
     7d4:	00000b38 	andeq	r0, r0, r8, lsr fp
     7d8:	03000d07 	movweq	r0, #3335	; 0xd07
     7dc:	3b0b3a08 	blcc	2cf004 <__bss_end+0x2cbe88>
     7e0:	3813490b 	ldmdacc	r3, {r0, r1, r3, r8, fp, lr}
     7e4:	0800000b 	stmdaeq	r0, {r0, r1, r3}
     7e8:	193f012e 	ldmdbne	pc!, {r1, r2, r3, r5, r8}	; <UNPREDICTABLE>
     7ec:	0b3a0e03 	bleq	e84000 <__bss_end+0xe80e84>
     7f0:	19270b3b 	stmdbne	r7!, {r0, r1, r3, r4, r5, r8, r9, fp}
     7f4:	06120111 			; <UNDEFINED> instruction: 0x06120111
     7f8:	42971840 	addsmi	r1, r7, #64, 16	; 0x400000
     7fc:	00130119 	andseq	r0, r3, r9, lsl r1
     800:	00050900 	andeq	r0, r5, r0, lsl #18
     804:	0b3a0e03 	bleq	e84018 <__bss_end+0xe80e9c>
     808:	13490b3b 	movtne	r0, #39739	; 0x9b3b
     80c:	00001802 	andeq	r1, r0, r2, lsl #16
     810:	0b000f0a 	bleq	4440 <__bss_end+0x12c4>
     814:	0013490b 	andseq	r4, r3, fp, lsl #18
     818:	012e0b00 			; <UNDEFINED> instruction: 0x012e0b00
     81c:	0e03193f 	mcreq	9, 0, r1, cr3, cr15, {1}
     820:	0b3b0b3a 	bleq	ec3510 <__bss_end+0xec0394>
     824:	01111927 	tsteq	r1, r7, lsr #18
     828:	18400612 	stmdane	r0, {r1, r4, r9, sl}^
     82c:	00194297 	mulseq	r9, r7, r2
     830:	11010000 	mrsne	r0, (UNDEF: 1)
     834:	11061000 	mrsne	r1, (UNDEF: 6)
     838:	03011201 	movweq	r1, #4609	; 0x1201
     83c:	25081b08 	strcs	r1, [r8, #-2824]	; 0xfffff4f8
     840:	00051308 	andeq	r1, r5, r8, lsl #6
     844:	11010000 	mrsne	r0, (UNDEF: 1)
     848:	130e2501 	movwne	r2, #58625	; 0xe501
     84c:	1b0e030b 	blne	381480 <__bss_end+0x37e304>
     850:	1201110e 	andne	r1, r1, #-2147483645	; 0x80000003
     854:	00171006 	andseq	r1, r7, r6
     858:	00240200 	eoreq	r0, r4, r0, lsl #4
     85c:	0b3e0b0b 	bleq	f83490 <__bss_end+0xf80314>
     860:	00000e03 	andeq	r0, r0, r3, lsl #28
     864:	0b002403 	bleq	9878 <__bss_end+0x66fc>
     868:	030b3e0b 	movweq	r3, #48651	; 0xbe0b
     86c:	04000008 	streq	r0, [r0], #-8
     870:	0e030016 	mcreq	0, 0, r0, cr3, cr6, {0}
     874:	0b3b0b3a 	bleq	ec3564 <__bss_end+0xec03e8>
     878:	00001349 	andeq	r1, r0, r9, asr #6
     87c:	03011305 	movweq	r1, #4869	; 0x1305
     880:	3a0b0b0e 	bcc	2c34c0 <__bss_end+0x2c0344>
     884:	010b3b0b 	tsteq	fp, fp, lsl #22
     888:	06000013 			; <UNDEFINED> instruction: 0x06000013
     88c:	0e03000d 	cdpeq	0, 0, cr0, cr3, cr13, {0}
     890:	0b3b0b3a 	bleq	ec3580 <__bss_end+0xec0404>
     894:	0b381349 	bleq	e055c0 <__bss_end+0xe02444>
     898:	0d070000 	stceq	0, cr0, [r7, #-0]
     89c:	3a080300 	bcc	2014a4 <__bss_end+0x1fe328>
     8a0:	490b3b0b 	stmdbmi	fp, {r0, r1, r3, r8, r9, fp, ip, sp}
     8a4:	000b3813 	andeq	r3, fp, r3, lsl r8
     8a8:	01040800 	tsteq	r4, r0, lsl #16
     8ac:	0b0b0e03 	bleq	2c40c0 <__bss_end+0x2c0f44>
     8b0:	0b3a1349 	bleq	e855dc <__bss_end+0xe82460>
     8b4:	13010b3b 	movwne	r0, #6971	; 0x1b3b
     8b8:	28090000 	stmdacs	r9, {}	; <UNPREDICTABLE>
     8bc:	1c0e0300 	stcne	3, cr0, [lr], {-0}
     8c0:	0a00000b 	beq	8f4 <inv_loop2>
     8c4:	193f012e 	ldmdbne	pc!, {r1, r2, r3, r5, r8}	; <UNPREDICTABLE>
     8c8:	0b3a0e03 	bleq	e840dc <__bss_end+0xe80f60>
     8cc:	19270b3b 	stmdbne	r7!, {r0, r1, r3, r4, r5, r8, r9, fp}
     8d0:	06120111 			; <UNDEFINED> instruction: 0x06120111
     8d4:	42971840 	addsmi	r1, r7, #64, 16	; 0x400000
     8d8:	00130119 	andseq	r0, r3, r9, lsl r1
     8dc:	00050b00 	andeq	r0, r5, r0, lsl #22
     8e0:	0b3a0e03 	bleq	e840f4 <__bss_end+0xe80f78>
     8e4:	13490b3b 	movtne	r0, #39739	; 0x9b3b
     8e8:	00001802 	andeq	r1, r0, r2, lsl #16
     8ec:	0b000f0c 	bleq	4524 <__bss_end+0x13a8>
     8f0:	0013490b 	andseq	r4, r3, fp, lsl #18
     8f4:	012e0d00 			; <UNDEFINED> instruction: 0x012e0d00
     8f8:	0e03193f 	mcreq	9, 0, r1, cr3, cr15, {1}
     8fc:	053b0b3a 	ldreq	r0, [fp, #-2874]!	; 0xfffff4c6
     900:	01111927 	tsteq	r1, r7, lsr #18
     904:	18400612 	stmdane	r0, {r1, r4, r9, sl}^
     908:	01194297 			; <UNDEFINED> instruction: 0x01194297
     90c:	0e000013 	mcreq	0, 0, r0, cr0, cr3, {0}
     910:	0e030005 	cdpeq	0, 0, cr0, cr3, cr5, {0}
     914:	053b0b3a 	ldreq	r0, [fp, #-2874]!	; 0xfffff4c6
     918:	18021349 	stmdane	r2, {r0, r3, r6, r8, r9, ip}
     91c:	340f0000 	strcc	r0, [pc], #-0	; 924 <inv_finished+0x4>
     920:	3a080300 	bcc	201528 <__bss_end+0x1fe3ac>
     924:	49053b0b 	stmdbmi	r5, {r0, r1, r3, r8, r9, fp, ip, sp}
     928:	00170213 	andseq	r0, r7, r3, lsl r2
     92c:	00341000 	eorseq	r1, r4, r0
     930:	0b3a0e03 	bleq	e84144 <__bss_end+0xe80fc8>
     934:	1349053b 	movtne	r0, #38203	; 0x953b
     938:	00001802 	andeq	r1, r0, r2, lsl #16
     93c:	01828911 	orreq	r8, r2, r1, lsl r9
     940:	95011101 	strls	r1, [r1, #-257]	; 0xfffffeff
     944:	13311942 	teqne	r1, #1081344	; 0x108000
     948:	8a120000 	bhi	480950 <__bss_end+0x47d7d4>
     94c:	02000182 	andeq	r0, r0, #-2147483616	; 0x80000020
     950:	18429118 	stmdane	r2, {r3, r4, r8, ip, pc}^
     954:	2e130000 	cdpcs	0, 1, cr0, cr3, cr0, {0}
     958:	03193f00 	tsteq	r9, #0, 30
     95c:	3b0b3a0e 	blcc	2cf19c <__bss_end+0x2cc020>
     960:	11192705 	tstne	r9, r5, lsl #14
     964:	40061201 	andmi	r1, r6, r1, lsl #4
     968:	19429718 	stmdbne	r2, {r3, r4, r8, r9, sl, ip, pc}^
     96c:	34140000 	ldrcc	r0, [r4], #-0
     970:	3a0e0300 	bcc	381578 <__bss_end+0x37e3fc>
     974:	490b3b0b 	stmdbmi	fp, {r0, r1, r3, r8, r9, fp, ip, sp}
     978:	00180213 	andseq	r0, r8, r3, lsl r2
     97c:	00341500 	eorseq	r1, r4, r0, lsl #10
     980:	0b3a0e03 	bleq	e84194 <__bss_end+0xe81018>
     984:	13490b3b 	movtne	r0, #39739	; 0x9b3b
     988:	00000a1c 	andeq	r0, r0, ip, lsl sl
     98c:	49002616 	stmdbmi	r0, {r1, r2, r4, r9, sl, sp}
     990:	17000013 	smladne	r0, r3, r0, r0
     994:	13490101 	movtne	r0, #37121	; 0x9101
     998:	00001301 	andeq	r1, r0, r1, lsl #6
     99c:	49002118 	stmdbmi	r0, {r3, r4, r8, sp}
     9a0:	000b2f13 	andeq	r2, fp, r3, lsl pc
     9a4:	00341900 	eorseq	r1, r4, r0, lsl #18
     9a8:	0b3a0e03 	bleq	e841bc <__bss_end+0xe81040>
     9ac:	13490b3b 	movtne	r0, #39739	; 0x9b3b
     9b0:	1802193f 	stmdane	r2, {r0, r1, r2, r3, r4, r5, r8, fp, ip}
     9b4:	01000000 	mrseq	r0, (UNDEF: 0)
     9b8:	0e250111 	mcreq	1, 1, r0, cr5, cr1, {0}
     9bc:	0e030b13 	vmoveq.32	d3[0], r0
     9c0:	01110e1b 	tsteq	r1, fp, lsl lr
     9c4:	17100612 			; <UNDEFINED> instruction: 0x17100612
     9c8:	24020000 	strcs	r0, [r2], #-0
     9cc:	3e0b0b00 	vmlacc.f64	d0, d11, d0
     9d0:	000e030b 	andeq	r0, lr, fp, lsl #6
     9d4:	00160300 	andseq	r0, r6, r0, lsl #6
     9d8:	0b3a0e03 	bleq	e841ec <__bss_end+0xe81070>
     9dc:	13490b3b 	movtne	r0, #39739	; 0x9b3b
     9e0:	24040000 	strcs	r0, [r4], #-0
     9e4:	3e0b0b00 	vmlacc.f64	d0, d11, d0
     9e8:	0008030b 	andeq	r0, r8, fp, lsl #6
     9ec:	01130500 	tsteq	r3, r0, lsl #10
     9f0:	0b3a0b0b 	bleq	e83624 <__bss_end+0xe804a8>
     9f4:	13010b3b 	movwne	r0, #6971	; 0x1b3b
     9f8:	0d060000 	stceq	0, cr0, [r6, #-0]
     9fc:	3a0e0300 	bcc	381604 <__bss_end+0x37e488>
     a00:	490b3b0b 	stmdbmi	fp, {r0, r1, r3, r8, r9, fp, ip, sp}
     a04:	0d0b0b13 	vstreq	d0, [fp, #-76]	; 0xffffffb4
     a08:	380b0c0b 	stmdacc	fp, {r0, r1, r3, sl, fp}
     a0c:	0700000b 	streq	r0, [r0, -fp]
     a10:	0b0b0117 	bleq	2c0e74 <__bss_end+0x2bdcf8>
     a14:	0b3b0b3a 	bleq	ec3704 <__bss_end+0xec0588>
     a18:	00001301 	andeq	r1, r0, r1, lsl #6
     a1c:	03000d08 	movweq	r0, #3336	; 0xd08
     a20:	3b0b3a0e 	blcc	2cf260 <__bss_end+0x2cc0e4>
     a24:	0013490b 	andseq	r4, r3, fp, lsl #18
     a28:	01130900 	tsteq	r3, r0, lsl #18
     a2c:	0b0b0e03 	bleq	2c4240 <__bss_end+0x2c10c4>
     a30:	0b3b0b3a 	bleq	ec3720 <__bss_end+0xec05a4>
     a34:	00001301 	andeq	r1, r0, r1, lsl #6
     a38:	0301130a 	movweq	r1, #4874	; 0x130a
     a3c:	3a050b0e 	bcc	14367c <__bss_end+0x140500>
     a40:	010b3b0b 	tsteq	fp, fp, lsl #22
     a44:	0b000013 	bleq	a98 <enable_cache+0x18>
     a48:	0e03000d 	cdpeq	0, 0, cr0, cr3, cr13, {0}
     a4c:	0b3b0b3a 	bleq	ec373c <__bss_end+0xec05c0>
     a50:	0b381349 	bleq	e0577c <__bss_end+0xe02600>
     a54:	0d0c0000 	stceq	0, cr0, [ip, #-0]
     a58:	3a080300 	bcc	201660 <__bss_end+0x1fe4e4>
     a5c:	490b3b0b 	stmdbmi	fp, {r0, r1, r3, r8, r9, fp, ip, sp}
     a60:	000b3813 	andeq	r3, fp, r3, lsl r8
     a64:	000d0d00 	andeq	r0, sp, r0, lsl #26
     a68:	0b3a0e03 	bleq	e8427c <__bss_end+0xe81100>
     a6c:	1349053b 	movtne	r0, #38203	; 0x953b
     a70:	00000b38 	andeq	r0, r0, r8, lsr fp
     a74:	03000d0e 	movweq	r0, #3342	; 0xd0e
     a78:	3b0b3a08 	blcc	2cf2a0 <__bss_end+0x2cc124>
     a7c:	38134905 	ldmdacc	r3, {r0, r2, r8, fp, lr}
     a80:	0f00000b 	svceq	0x0000000b
     a84:	0e03000d 	cdpeq	0, 0, cr0, cr3, cr13, {0}
     a88:	053b0b3a 	ldreq	r0, [fp, #-2874]!	; 0xfffff4c6
     a8c:	05381349 	ldreq	r1, [r8, #-841]!	; 0xfffffcb7
     a90:	0d100000 	ldceq	0, cr0, [r0, #-0]
     a94:	3a080300 	bcc	20169c <__bss_end+0x1fe520>
     a98:	49053b0b 	stmdbmi	r5, {r0, r1, r3, r8, r9, fp, ip, sp}
     a9c:	00053813 	andeq	r3, r5, r3, lsl r8
     aa0:	00351100 	eorseq	r1, r5, r0, lsl #2
     aa4:	00001349 	andeq	r1, r0, r9, asr #6
     aa8:	49010112 	stmdbmi	r1, {r1, r4, r8}
     aac:	00130113 	andseq	r0, r3, r3, lsl r1
     ab0:	00211300 	eoreq	r1, r1, r0, lsl #6
     ab4:	0b2f1349 	bleq	bc57e0 <__bss_end+0xbc2664>
     ab8:	16140000 	ldrne	r0, [r4], -r0
     abc:	3a0e0300 	bcc	3816c4 <__bss_end+0x37e548>
     ac0:	49053b0b 	stmdbmi	r5, {r0, r1, r3, r8, r9, fp, ip, sp}
     ac4:	15000013 	strne	r0, [r0, #-19]	; 0xffffffed
     ac8:	0b0b000f 	bleq	2c0b0c <__bss_end+0x2bd990>
     acc:	00001349 	andeq	r1, r0, r9, asr #6
     ad0:	03010416 	movweq	r0, #5142	; 0x1416
     ad4:	490b0b0e 	stmdbmi	fp, {r1, r2, r3, r8, r9, fp}
     ad8:	3b0b3a13 	blcc	2cf32c <__bss_end+0x2cc1b0>
     adc:	0013010b 	andseq	r0, r3, fp, lsl #2
     ae0:	00281700 	eoreq	r1, r8, r0, lsl #14
     ae4:	0b1c0e03 	bleq	7042f8 <__bss_end+0x70117c>
     ae8:	2e180000 	cdpcs	0, 1, cr0, cr8, cr0, {0}
     aec:	3a0e0301 	bcc	3816f8 <__bss_end+0x37e57c>
     af0:	27053b0b 	strcs	r3, [r5, -fp, lsl #22]
     af4:	010b2019 	tsteq	fp, r9, lsl r0
     af8:	19000013 	stmdbne	r0, {r0, r1, r4}
     afc:	0e030005 	cdpeq	0, 0, cr0, cr3, cr5, {0}
     b00:	053b0b3a 	ldreq	r0, [fp, #-2874]!	; 0xfffff4c6
     b04:	00001349 	andeq	r1, r0, r9, asr #6
     b08:	0300341a 	movweq	r3, #1050	; 0x41a
     b0c:	3b0b3a0e 	blcc	2cf34c <__bss_end+0x2cc1d0>
     b10:	00134905 	andseq	r4, r3, r5, lsl #18
     b14:	00341b00 	eorseq	r1, r4, r0, lsl #22
     b18:	0b3a0803 	bleq	e82b2c <__bss_end+0xe7f9b0>
     b1c:	1349053b 	movtne	r0, #38203	; 0x953b
     b20:	2e1c0000 	cdpcs	0, 1, cr0, cr12, cr0, {0}
     b24:	3a0e0301 	bcc	381730 <__bss_end+0x37e5b4>
     b28:	270b3b0b 	strcs	r3, [fp, -fp, lsl #22]
     b2c:	20134919 	andscs	r4, r3, r9, lsl r9
     b30:	0013010b 	andseq	r0, r3, fp, lsl #2
     b34:	00051d00 	andeq	r1, r5, r0, lsl #26
     b38:	0b3a0e03 	bleq	e8434c <__bss_end+0xe811d0>
     b3c:	13490b3b 	movtne	r0, #39739	; 0x9b3b
     b40:	341e0000 	ldrcc	r0, [lr], #-0
     b44:	3a0e0300 	bcc	38174c <__bss_end+0x37e5d0>
     b48:	490b3b0b 	stmdbmi	fp, {r0, r1, r3, r8, r9, fp, ip, sp}
     b4c:	1f000013 	svcne	0x00000013
     b50:	08030034 	stmdaeq	r3, {r2, r4, r5}
     b54:	0b3b0b3a 	bleq	ec3844 <__bss_end+0xec06c8>
     b58:	00001349 	andeq	r1, r0, r9, asr #6
     b5c:	03000520 	movweq	r0, #1312	; 0x520
     b60:	3b0b3a08 	blcc	2cf388 <__bss_end+0x2cc20c>
     b64:	00134905 	andseq	r4, r3, r5, lsl #18
     b68:	012e2100 			; <UNDEFINED> instruction: 0x012e2100
     b6c:	0b3a0e03 	bleq	e84380 <__bss_end+0xe81204>
     b70:	1927053b 	stmdbne	r7!, {r0, r1, r3, r4, r5, r8, sl}
     b74:	0b201349 	bleq	8058a0 <__bss_end+0x802724>
     b78:	00001301 	andeq	r1, r0, r1, lsl #6
     b7c:	3f002e22 	svccc	0x00002e22
     b80:	3a0e0319 	bcc	3817ec <__bss_end+0x37e670>
     b84:	27053b0b 	strcs	r3, [r5, -fp, lsl #22]
     b88:	000b2019 	andeq	r2, fp, r9, lsl r0
     b8c:	012e2300 			; <UNDEFINED> instruction: 0x012e2300
     b90:	01111331 	tsteq	r1, r1, lsr r3
     b94:	18400612 	stmdane	r0, {r1, r4, r9, sl}^
     b98:	01194296 			; <UNDEFINED> instruction: 0x01194296
     b9c:	24000013 	strcs	r0, [r0], #-19	; 0xffffffed
     ba0:	13310005 	teqne	r1, #5
     ba4:	00001702 	andeq	r1, r0, r2, lsl #14
     ba8:	31003425 	tstcc	r0, r5, lsr #8
     bac:	00170213 	andseq	r0, r7, r3, lsl r2
     bb0:	00342600 	eorseq	r2, r4, r0, lsl #12
     bb4:	0b1c1331 	bleq	705880 <__bss_end+0x702704>
     bb8:	0b270000 	bleq	9c0bc0 <__bss_end+0x9bda44>
     bbc:	01175501 	tsteq	r7, r1, lsl #10
     bc0:	28000013 	stmdacs	r0, {r0, r1, r4}
     bc4:	13310005 	teqne	r1, #5
     bc8:	00001802 	andeq	r1, r0, r2, lsl #16
     bcc:	55010b29 	strpl	r0, [r1, #-2857]	; 0xfffff4d7
     bd0:	2a000017 	bcs	c34 <mem_preload_tlb+0x104>
     bd4:	13310034 	teqne	r1, #52	; 0x34
     bd8:	342b0000 	strtcc	r0, [fp], #-0
     bdc:	1c133100 	ldfnes	f3, [r3], {-0}
     be0:	2c00000d 	stccs	0, cr0, [r0], {13}
     be4:	00018289 	andeq	r8, r1, r9, lsl #5
     be8:	13310111 	teqne	r1, #1073741828	; 0x40000004
     bec:	892d0000 	pushhi	{}	; <UNPREDICTABLE>
     bf0:	11010182 	smlabbne	r1, r2, r1, r0
     bf4:	00133101 	andseq	r3, r3, r1, lsl #2
     bf8:	828a2e00 	addhi	r2, sl, #0, 28
     bfc:	18020001 	stmdane	r2, {r0}
     c00:	00184291 	mulseq	r8, r1, r2
     c04:	012e2f00 			; <UNDEFINED> instruction: 0x012e2f00
     c08:	0e03193f 	mcreq	9, 0, r1, cr3, cr15, {1}
     c0c:	053b0b3a 	ldreq	r0, [fp, #-2874]!	; 0xfffff4c6
     c10:	01111927 	tsteq	r1, r7, lsr #18
     c14:	18400612 	stmdane	r0, {r1, r4, r9, sl}^
     c18:	01194297 			; <UNDEFINED> instruction: 0x01194297
     c1c:	30000013 	andcc	r0, r0, r3, lsl r0
     c20:	1331001d 	teqne	r1, #29
     c24:	17550152 			; <UNDEFINED> instruction: 0x17550152
     c28:	05590b58 	ldrbeq	r0, [r9, #-2904]	; 0xfffff4a8
     c2c:	05310000 	ldreq	r0, [r1, #-0]!
     c30:	3a0e0300 	bcc	381838 <__bss_end+0x37e6bc>
     c34:	49053b0b 	stmdbmi	r5, {r0, r1, r3, r8, r9, fp, ip, sp}
     c38:	00170213 	andseq	r0, r7, r3, lsl r2
     c3c:	00343200 	eorseq	r3, r4, r0, lsl #4
     c40:	0b3a0803 	bleq	e82c54 <__bss_end+0xe7fad8>
     c44:	1349053b 	movtne	r0, #38203	; 0x953b
     c48:	00001702 	andeq	r1, r0, r2, lsl #14
     c4c:	03003433 	movweq	r3, #1075	; 0x433
     c50:	3b0b3a0e 	blcc	2cf490 <__bss_end+0x2cc314>
     c54:	02134905 	andseq	r4, r3, #81920	; 0x14000
     c58:	34000017 	strcc	r0, [r0], #-23	; 0xffffffe9
     c5c:	1331011d 	teqne	r1, #1073741831	; 0x40000007
     c60:	17550152 			; <UNDEFINED> instruction: 0x17550152
     c64:	05590b58 	ldrbeq	r0, [r9, #-2904]	; 0xfffff4a8
     c68:	00001301 	andeq	r1, r0, r1, lsl #6
     c6c:	31000535 	tstcc	r0, r5, lsr r5
     c70:	000b1c13 	andeq	r1, fp, r3, lsl ip
     c74:	00343600 	eorseq	r3, r4, r0, lsl #12
     c78:	061c1331 			; <UNDEFINED> instruction: 0x061c1331
     c7c:	2e370000 	cdpcs	0, 3, cr0, cr7, cr0, {0}
     c80:	03193f01 	tsteq	r9, #1, 30
     c84:	3b0b3a0e 	blcc	2cf4c4 <__bss_end+0x2cc348>
     c88:	49192705 	ldmdbmi	r9, {r0, r2, r8, r9, sl, sp}
     c8c:	12011113 	andne	r1, r1, #-1073741820	; 0xc0000004
     c90:	97184006 	ldrls	r4, [r8, -r6]
     c94:	13011942 	movwne	r1, #6466	; 0x1942
     c98:	05380000 	ldreq	r0, [r8, #-0]!
     c9c:	00133100 	andseq	r3, r3, r0, lsl #2
     ca0:	011d3900 	tsteq	sp, r0, lsl #18
     ca4:	01111331 	tsteq	r1, r1, lsr r3
     ca8:	0b580612 	bleq	16024f8 <__bss_end+0x15ff37c>
     cac:	00000559 	andeq	r0, r0, r9, asr r5
     cb0:	4900263a 	stmdbmi	r0, {r1, r3, r4, r5, r9, sl, sp}
     cb4:	3b000013 	blcc	d08 <jump_to_resume0_nommu+0x8>
     cb8:	08030005 	stmdaeq	r3, {r0, r2}
     cbc:	053b0b3a 	ldreq	r0, [fp, #-2874]!	; 0xfffff4c6
     cc0:	17021349 	strne	r1, [r2, -r9, asr #6]
     cc4:	053c0000 	ldreq	r0, [ip, #-0]!
     cc8:	3a080300 	bcc	2018d0 <__bss_end+0x1fe754>
     ccc:	49053b0b 	stmdbmi	r5, {r0, r1, r3, r8, r9, fp, ip, sp}
     cd0:	00180213 	andseq	r0, r8, r3, lsl r2
     cd4:	011d3d00 	tsteq	sp, r0, lsl #26
     cd8:	01521331 	cmpeq	r2, r1, lsr r3
     cdc:	0b581755 	bleq	1606a38 <__bss_end+0x16038bc>
     ce0:	00000559 	andeq	r0, r0, r9, asr r5
     ce4:	31002e3e 	tstcc	r0, lr, lsr lr
     ce8:	12011113 	andne	r1, r1, #-1073741820	; 0xc0000004
     cec:	97184006 	ldrls	r4, [r8, -r6]
     cf0:	00001942 	andeq	r1, r0, r2, asr #18
     cf4:	31001d3f 	tstcc	r0, pc, lsr sp
     cf8:	12011113 	andne	r1, r1, #-1073741820	; 0xc0000004
     cfc:	590b5806 	stmdbpl	fp, {r1, r2, fp, ip, lr}
     d00:	40000005 	andmi	r0, r0, r5
     d04:	0e030034 	mcreq	0, 0, r0, cr3, cr4, {1}
     d08:	0b3b0b3a 	bleq	ec39f8 <__bss_end+0xec087c>
     d0c:	18021349 	stmdane	r2, {r0, r3, r6, r8, r9, ip}
     d10:	2e410000 	cdpcs	0, 4, cr0, cr1, cr0, {0}
     d14:	3c193f00 	ldccc	15, cr3, [r9], {-0}
     d18:	030e6e19 	movweq	r6, #60953	; 0xee19
     d1c:	3b0b3a0e 	blcc	2cf55c <__bss_end+0x2cc3e0>
     d20:	0000000b 	andeq	r0, r0, fp
     d24:	25011101 	strcs	r1, [r1, #-257]	; 0xfffffeff
     d28:	030b130e 	movweq	r1, #45838	; 0xb30e
     d2c:	110e1b0e 	tstne	lr, lr, lsl #22
     d30:	10061201 	andne	r1, r6, r1, lsl #4
     d34:	02000017 	andeq	r0, r0, #23
     d38:	0b0b0024 	bleq	2c0dd0 <__bss_end+0x2bdc54>
     d3c:	0e030b3e 	vmoveq.16	d3[0], r0
     d40:	16030000 	strne	r0, [r3], -r0
     d44:	3a0e0300 	bcc	38194c <__bss_end+0x37e7d0>
     d48:	490b3b0b 	stmdbmi	fp, {r0, r1, r3, r8, r9, fp, ip, sp}
     d4c:	04000013 	streq	r0, [r0], #-19	; 0xffffffed
     d50:	0b0b0024 	bleq	2c0de8 <__bss_end+0x2bdc6c>
     d54:	08030b3e 	stmdaeq	r3, {r1, r2, r3, r4, r5, r8, r9, fp}
     d58:	04050000 	streq	r0, [r5], #-0
     d5c:	0b0e0301 	bleq	381968 <__bss_end+0x37e7ec>
     d60:	3a13490b 	bcc	4d3194 <__bss_end+0x4d0018>
     d64:	010b3b0b 	tsteq	fp, fp, lsl #22
     d68:	06000013 			; <UNDEFINED> instruction: 0x06000013
     d6c:	0e030028 	cdpeq	0, 0, cr0, cr3, cr8, {1}
     d70:	00000b1c 	andeq	r0, r0, ip, lsl fp
     d74:	0b000f07 	bleq	4998 <__bss_end+0x181c>
     d78:	0800000b 	stmdaeq	r0, {r0, r1, r3}
     d7c:	0e030113 	mcreq	1, 0, r0, cr3, cr3, {0}
     d80:	0b3a0b0b 	bleq	e839b4 <__bss_end+0xe80838>
     d84:	13010b3b 	movwne	r0, #6971	; 0x1b3b
     d88:	0d090000 	stceq	0, cr0, [r9, #-0]
     d8c:	490e0300 	stmdbmi	lr, {r8, r9}
     d90:	340b3813 	strcc	r3, [fp], #-2067	; 0xfffff7ed
     d94:	0a000019 	beq	e00 <__save_processor_state+0x50>
     d98:	0e03012e 	adfeqsp	f0, f3, #0.5
     d9c:	0b3b0b3a 	bleq	ec3a8c <__bss_end+0xec0910>
     da0:	13491927 	movtne	r1, #39207	; 0x9927
     da4:	13010b20 	movwne	r0, #6944	; 0x1b20
     da8:	050b0000 	streq	r0, [fp, #-0]
     dac:	3a0e0300 	bcc	3819b4 <__bss_end+0x37e838>
     db0:	490b3b0b 	stmdbmi	fp, {r0, r1, r3, r8, r9, fp, ip, sp}
     db4:	0c000013 	stceq	0, cr0, [r0], {19}
     db8:	08030005 	stmdaeq	r3, {r0, r2}
     dbc:	0b3b0b3a 	bleq	ec3aac <__bss_end+0xec0930>
     dc0:	00001349 	andeq	r1, r0, r9, asr #6
     dc4:	0300340d 	movweq	r3, #1037	; 0x40d
     dc8:	3b0b3a08 	blcc	2cf5f0 <__bss_end+0x2cc474>
     dcc:	0013490b 	andseq	r4, r3, fp, lsl #18
     dd0:	000f0e00 	andeq	r0, pc, r0, lsl #28
     dd4:	13490b0b 	movtne	r0, #39691	; 0x9b0b
     dd8:	260f0000 	strcs	r0, [pc], -r0
     ddc:	00134900 	andseq	r4, r3, r0, lsl #18
     de0:	00341000 	eorseq	r1, r4, r0
     de4:	0b3a0e03 	bleq	e845f8 <__bss_end+0xe8147c>
     de8:	13490b3b 	movtne	r0, #39739	; 0x9b3b
     dec:	01110000 	tsteq	r1, r0
     df0:	01134901 	tsteq	r3, r1, lsl #18
     df4:	12000013 	andne	r0, r0, #19
     df8:	13490021 	movtne	r0, #36897	; 0x9021
     dfc:	00000b2f 	andeq	r0, r0, pc, lsr #22
     e00:	03012e13 	movweq	r2, #7699	; 0x1e13
     e04:	3b0b3a0e 	blcc	2cf644 <__bss_end+0x2cc4c8>
     e08:	4919270b 	ldmdbmi	r9, {r0, r1, r3, r8, r9, sl, sp}
     e0c:	12011113 	andne	r1, r1, #-1073741820	; 0xc0000004
     e10:	96184006 	ldrls	r4, [r8], -r6
     e14:	13011942 	movwne	r1, #6466	; 0x1942
     e18:	05140000 	ldreq	r0, [r4, #-0]
     e1c:	3a0e0300 	bcc	381a24 <__bss_end+0x37e8a8>
     e20:	490b3b0b 	stmdbmi	fp, {r0, r1, r3, r8, r9, fp, ip, sp}
     e24:	00170213 	andseq	r0, r7, r3, lsl r2
     e28:	00341500 	eorseq	r1, r4, r0, lsl #10
     e2c:	0b3a0e03 	bleq	e84640 <__bss_end+0xe814c4>
     e30:	13490b3b 	movtne	r0, #39739	; 0x9b3b
     e34:	00001802 	andeq	r1, r0, r2, lsl #16
     e38:	03003416 	movweq	r3, #1046	; 0x416
     e3c:	3b0b3a08 	blcc	2cf664 <__bss_end+0x2cc4e8>
     e40:	0213490b 	andseq	r4, r3, #180224	; 0x2c000
     e44:	17000017 	smladne	r0, r7, r0, r0
     e48:	0e03012e 	adfeqsp	f0, f3, #0.5
     e4c:	053b0b3a 	ldreq	r0, [fp, #-2874]!	; 0xfffff4c6
     e50:	13491927 	movtne	r1, #39207	; 0x9927
     e54:	06120111 			; <UNDEFINED> instruction: 0x06120111
     e58:	42971840 	addsmi	r1, r7, #64, 16	; 0x400000
     e5c:	00130119 	andseq	r0, r3, r9, lsl r1
     e60:	00051800 	andeq	r1, r5, r0, lsl #16
     e64:	0b3a0e03 	bleq	e84678 <__bss_end+0xe814fc>
     e68:	1349053b 	movtne	r0, #38203	; 0x953b
     e6c:	00001702 	andeq	r1, r0, r2, lsl #14
     e70:	03000519 	movweq	r0, #1305	; 0x519
     e74:	3b0b3a08 	blcc	2cf69c <__bss_end+0x2cc520>
     e78:	02134905 	andseq	r4, r3, #81920	; 0x14000
     e7c:	1a000017 	bne	ee0 <__save_processor_state+0x130>
     e80:	0e030034 	mcreq	0, 0, r0, cr3, cr4, {1}
     e84:	053b0b3a 	ldreq	r0, [fp, #-2874]!	; 0xfffff4c6
     e88:	18021349 	stmdane	r2, {r0, r3, r6, r8, r9, ip}
     e8c:	1d1b0000 	ldcne	0, cr0, [fp, #-0]
     e90:	52133101 	andspl	r3, r3, #1073741824	; 0x40000000
     e94:	58175501 	ldmdapl	r7, {r0, r8, sl, ip, lr}
     e98:	0005590b 	andeq	r5, r5, fp, lsl #18
     e9c:	00051c00 	andeq	r1, r5, r0, lsl #24
     ea0:	17021331 	smladxne	r2, r1, r3, r1
     ea4:	0b1d0000 	bleq	740eac <__bss_end+0x73dd30>
     ea8:	00175501 	andseq	r5, r7, r1, lsl #10
     eac:	00341e00 	eorseq	r1, r4, r0, lsl #28
     eb0:	17021331 	smladxne	r2, r1, r3, r1
     eb4:	2e1f0000 	cdpcs	0, 1, cr0, cr15, cr0, {0}
     eb8:	11133101 	tstne	r3, r1, lsl #2
     ebc:	40061201 	andmi	r1, r6, r1, lsl #4
     ec0:	19429718 	stmdbne	r2, {r3, r4, r8, r9, sl, ip, pc}^
     ec4:	00001301 	andeq	r1, r0, r1, lsl #6
     ec8:	31003420 	tstcc	r0, r0, lsr #8
     ecc:	00180213 	andseq	r0, r8, r3, lsl r2
     ed0:	00052100 	andeq	r2, r5, r0, lsl #2
     ed4:	0b1c1331 	bleq	705ba0 <__bss_end+0x702a24>
     ed8:	2e220000 	cdpcs	0, 2, cr0, cr2, cr0, {0}
     edc:	03193f01 	tsteq	r9, #1, 30
     ee0:	3b0b3a0e 	blcc	2cf720 <__bss_end+0x2cc5a4>
     ee4:	49192705 	ldmdbmi	r9, {r0, r2, r8, r9, sl, sp}
     ee8:	12011113 	andne	r1, r1, #-1073741820	; 0xc0000004
     eec:	97184006 	ldrls	r4, [r8, -r6]
     ef0:	13011942 	movwne	r1, #6466	; 0x1942
     ef4:	18230000 	stmdane	r3!, {}	; <UNPREDICTABLE>
     ef8:	24000000 	strcs	r0, [r0], #-0
     efc:	0e030034 	mcreq	0, 0, r0, cr3, cr4, {1}
     f00:	053b0b3a 	ldreq	r0, [fp, #-2874]!	; 0xfffff4c6
     f04:	17021349 	strne	r1, [r2, -r9, asr #6]
     f08:	34250000 	strtcc	r0, [r5], #-0
     f0c:	3a080300 	bcc	201b14 <__bss_end+0x1fe998>
     f10:	49053b0b 	stmdbmi	r5, {r0, r1, r3, r8, r9, fp, ip, sp}
     f14:	00170213 	andseq	r0, r7, r3, lsl r2
     f18:	011d2600 	tsteq	sp, r0, lsl #12
     f1c:	01521331 	cmpeq	r2, r1, lsr r3
     f20:	0b581755 	bleq	1606c7c <__bss_end+0x1603b00>
     f24:	13010559 	movwne	r0, #5465	; 0x1559
     f28:	1d270000 	stcne	0, cr0, [r7, #-0]
     f2c:	11133101 	tstne	r3, r1, lsl #2
     f30:	58061201 	stmdapl	r6, {r0, r9, ip}
     f34:	0105590b 	tsteq	r5, fp, lsl #18
     f38:	28000013 	stmdacs	r0, {r0, r1, r4}
     f3c:	13310005 	teqne	r1, #5
     f40:	0b290000 	bleq	a40f48 <__bss_end+0xa3ddcc>
     f44:	12011101 	andne	r1, r1, #1073741824	; 0x40000000
     f48:	2a000006 	bcs	f68 <__save_processor_state+0x1b8>
     f4c:	13310034 	teqne	r1, #52	; 0x34
     f50:	892b0000 	stmdbhi	fp!, {}	; <UNPREDICTABLE>
     f54:	11010182 	smlabbne	r1, r2, r1, r0
     f58:	01133101 	tsteq	r3, r1, lsl #2
     f5c:	2c000013 	stccs	0, cr0, [r0], {19}
     f60:	0001828a 	andeq	r8, r1, sl, lsl #5
     f64:	42911802 	addsmi	r1, r1, #131072	; 0x20000
     f68:	2d000018 	stccs	0, cr0, [r0, #-96]	; 0xffffffa0
     f6c:	01018289 	smlabbeq	r1, r9, r2, r8
     f70:	13310111 	teqne	r1, #1073741828	; 0x40000004
     f74:	2e2e0000 	cdpcs	0, 2, cr0, cr14, cr0, {0}
     f78:	3c193f00 	ldccc	15, cr3, [r9], {-0}
     f7c:	030e6e19 	movweq	r6, #60953	; 0xee19
     f80:	3b0b3a0e 	blcc	2cf7c0 <__bss_end+0x2cc644>
     f84:	0000000b 	andeq	r0, r0, fp
     f88:	10001101 	andne	r1, r0, r1, lsl #2
     f8c:	12011106 	andne	r1, r1, #-2147483647	; 0x80000001
     f90:	1b080301 	blne	201b9c <__bss_end+0x1fea20>
     f94:	13082508 	movwne	r2, #34056	; 0x8508
     f98:	00000005 	andeq	r0, r0, r5
     f9c:	25011101 	strcs	r1, [r1, #-257]	; 0xfffffeff
     fa0:	030b130e 	movweq	r1, #45838	; 0xb30e
     fa4:	110e1b0e 	tstne	lr, lr, lsl #22
     fa8:	10061201 	andne	r1, r6, r1, lsl #4
     fac:	02000017 	andeq	r0, r0, #23
     fb0:	0b0b0024 	bleq	2c1048 <__bss_end+0x2bdecc>
     fb4:	0e030b3e 	vmoveq.16	d3[0], r0
     fb8:	16030000 	strne	r0, [r3], -r0
     fbc:	3a0e0300 	bcc	381bc4 <__bss_end+0x37ea48>
     fc0:	490b3b0b 	stmdbmi	fp, {r0, r1, r3, r8, r9, fp, ip, sp}
     fc4:	04000013 	streq	r0, [r0], #-19	; 0xffffffed
     fc8:	0b0b0024 	bleq	2c1060 <__bss_end+0x2bdee4>
     fcc:	08030b3e 	stmdaeq	r3, {r1, r2, r3, r4, r5, r8, r9, fp}
     fd0:	2e050000 	cdpcs	0, 0, cr0, cr5, cr0, {0}
     fd4:	03193f01 	tsteq	r9, #1, 30
     fd8:	3b0b3a0e 	blcc	2cf818 <__bss_end+0x2cc69c>
     fdc:	1119270b 	tstne	r9, fp, lsl #14
     fe0:	40061201 	andmi	r1, r6, r1, lsl #4
     fe4:	19429718 	stmdbne	r2, {r3, r4, r8, r9, sl, ip, pc}^
     fe8:	00001301 	andeq	r1, r0, r1, lsl #6
     fec:	01828906 	orreq	r8, r2, r6, lsl #18
     ff0:	95011101 	strls	r1, [r1, #-257]	; 0xfffffeff
     ff4:	13311942 	teqne	r1, #1081344	; 0x108000
     ff8:	8a070000 	bhi	1c1000 <__bss_end+0x1bde84>
     ffc:	02000182 	andeq	r0, r0, #-2147483616	; 0x80000020
    1000:	18429118 	stmdane	r2, {r3, r4, r8, ip, pc}^
    1004:	2e080000 	cdpcs	0, 0, cr0, cr8, cr0, {0}
    1008:	03193f01 	tsteq	r9, #1, 30
    100c:	3b0b3a0e 	blcc	2cf84c <__bss_end+0x2cc6d0>
    1010:	4919270b 	ldmdbmi	r9, {r0, r1, r3, r8, r9, sl, sp}
    1014:	12011113 	andne	r1, r1, #-1073741820	; 0xc0000004
    1018:	97184006 	ldrls	r4, [r8, -r6]
    101c:	13011942 	movwne	r1, #6466	; 0x1942
    1020:	05090000 	streq	r0, [r9, #-0]
    1024:	3a0e0300 	bcc	381c2c <__bss_end+0x37eab0>
    1028:	490b3b0b 	stmdbmi	fp, {r0, r1, r3, r8, r9, fp, ip, sp}
    102c:	00170213 	andseq	r0, r7, r3, lsl r2
    1030:	00340a00 	eorseq	r0, r4, r0, lsl #20
    1034:	0b3a0e03 	bleq	e84848 <__bss_end+0xe816cc>
    1038:	13490b3b 	movtne	r0, #39739	; 0x9b3b
    103c:	00001702 	andeq	r1, r0, r2, lsl #14
    1040:	3f002e0b 	svccc	0x00002e0b
    1044:	6e193c19 	mrcvs	12, 0, r3, cr9, cr9, {0}
    1048:	3a0e030e 	bcc	381c88 <__bss_end+0x37eb0c>
    104c:	000b3b0b 	andeq	r3, fp, fp, lsl #22
    1050:	11010000 	mrsne	r0, (UNDEF: 1)
    1054:	130e2501 	movwne	r2, #58625	; 0xe501
    1058:	1b0e030b 	blne	381c8c <__bss_end+0x37eb10>
    105c:	1201110e 	andne	r1, r1, #-2147483645	; 0x80000003
    1060:	00171006 	andseq	r1, r7, r6
    1064:	00240200 	eoreq	r0, r4, r0, lsl #4
    1068:	0b3e0b0b 	bleq	f83c9c <__bss_end+0xf80b20>
    106c:	00000e03 	andeq	r0, r0, r3, lsl #28
    1070:	03001603 	movweq	r1, #1539	; 0x603
    1074:	3b0b3a0e 	blcc	2cf8b4 <__bss_end+0x2cc738>
    1078:	0013490b 	andseq	r4, r3, fp, lsl #18
    107c:	00240400 	eoreq	r0, r4, r0, lsl #8
    1080:	0b3e0b0b 	bleq	f83cb4 <__bss_end+0xf80b38>
    1084:	00000803 	andeq	r0, r0, r3, lsl #16
    1088:	49003505 	stmdbmi	r0, {r0, r2, r8, sl, ip, sp}
    108c:	06000013 			; <UNDEFINED> instruction: 0x06000013
    1090:	0e030104 	adfeqs	f0, f3, f4
    1094:	13490b0b 	movtne	r0, #39691	; 0x9b0b
    1098:	0b3b0b3a 	bleq	ec3d88 <__bss_end+0xec0c0c>
    109c:	00001301 	andeq	r1, r0, r1, lsl #6
    10a0:	03002807 	movweq	r2, #2055	; 0x807
    10a4:	000b1c0e 	andeq	r1, fp, lr, lsl #24
    10a8:	000f0800 	andeq	r0, pc, r0, lsl #16
    10ac:	00000b0b 	andeq	r0, r0, fp, lsl #22
    10b0:	3f012e09 	svccc	0x00012e09
    10b4:	3a0e0319 	bcc	381d20 <__bss_end+0x37eba4>
    10b8:	270b3b0b 	strcs	r3, [fp, -fp, lsl #22]
    10bc:	11134919 	tstne	r3, r9, lsl r9
    10c0:	40061201 	andmi	r1, r6, r1, lsl #4
    10c4:	19429718 	stmdbne	r2, {r3, r4, r8, r9, sl, ip, pc}^
    10c8:	00001301 	andeq	r1, r0, r1, lsl #6
    10cc:	0300340a 	movweq	r3, #1034	; 0x40a
    10d0:	3b0b3a08 	blcc	2cf8f8 <__bss_end+0x2cc77c>
    10d4:	0213490b 	andseq	r4, r3, #180224	; 0x2c000
    10d8:	0b000017 	bleq	113c <__save_processor_state+0x38c>
    10dc:	01018289 	smlabbeq	r1, r9, r2, r8
    10e0:	13310111 	teqne	r1, #1073741828	; 0x40000004
    10e4:	8a0c0000 	bhi	3010ec <__bss_end+0x2fdf70>
    10e8:	02000182 	andeq	r0, r0, #-2147483616	; 0x80000020
    10ec:	18429118 	stmdane	r2, {r3, r4, r8, ip, pc}^
    10f0:	340d0000 	strcc	r0, [sp], #-0
    10f4:	3a0e0300 	bcc	381cfc <__bss_end+0x37eb80>
    10f8:	490b3b0b 	stmdbmi	fp, {r0, r1, r3, r8, r9, fp, ip, sp}
    10fc:	00180213 	andseq	r0, r8, r3, lsl r2
    1100:	00050e00 	andeq	r0, r5, r0, lsl #28
    1104:	0b3a0803 	bleq	e83118 <__bss_end+0xe7ff9c>
    1108:	13490b3b 	movtne	r0, #39739	; 0x9b3b
    110c:	00001702 	andeq	r1, r0, r2, lsl #14
    1110:	0300340f 	movweq	r3, #1039	; 0x40f
    1114:	3b0b3a0e 	blcc	2cf954 <__bss_end+0x2cc7d8>
    1118:	0213490b 	andseq	r4, r3, #180224	; 0x2c000
    111c:	10000017 	andne	r0, r0, r7, lsl r0
    1120:	0e030034 	mcreq	0, 0, r0, cr3, cr4, {1}
    1124:	0b3b0b3a 	bleq	ec3e14 <__bss_end+0xec0c98>
    1128:	00001349 	andeq	r1, r0, r9, asr #6
    112c:	3f002e11 	svccc	0x00002e11
    1130:	6e193c19 	mrcvs	12, 0, r3, cr9, cr9, {0}
    1134:	3a0e030e 	bcc	381d74 <__bss_end+0x37ebf8>
    1138:	000b3b0b 	andeq	r3, fp, fp, lsl #22
    113c:	11010000 	mrsne	r0, (UNDEF: 1)
    1140:	130e2501 	movwne	r2, #58625	; 0xe501
    1144:	1b0e030b 	blne	381d78 <__bss_end+0x37ebfc>
    1148:	1201110e 	andne	r1, r1, #-2147483645	; 0x80000003
    114c:	00171006 	andseq	r1, r7, r6
    1150:	00240200 	eoreq	r0, r4, r0, lsl #4
    1154:	0b3e0b0b 	bleq	f83d88 <__bss_end+0xf80c0c>
    1158:	00000e03 	andeq	r0, r0, r3, lsl #28
    115c:	03001603 	movweq	r1, #1539	; 0x603
    1160:	3b0b3a0e 	blcc	2cf9a0 <__bss_end+0x2cc824>
    1164:	0013490b 	andseq	r4, r3, fp, lsl #18
    1168:	00240400 	eoreq	r0, r4, r0, lsl #8
    116c:	0b3e0b0b 	bleq	f83da0 <__bss_end+0xf80c24>
    1170:	00000803 	andeq	r0, r0, r3, lsl #16
    1174:	03011305 	movweq	r1, #4869	; 0x1305
    1178:	3a050b0e 	bcc	143db8 <__bss_end+0x140c3c>
    117c:	010b3b0b 	tsteq	fp, fp, lsl #22
    1180:	06000013 			; <UNDEFINED> instruction: 0x06000013
    1184:	0e03000d 	cdpeq	0, 0, cr0, cr3, cr13, {0}
    1188:	0b3b0b3a 	bleq	ec3e78 <__bss_end+0xec0cfc>
    118c:	0b381349 	bleq	e05eb8 <__bss_end+0xe02d3c>
    1190:	01070000 	mrseq	r0, (UNDEF: 7)
    1194:	01134901 	tsteq	r3, r1, lsl #18
    1198:	08000013 	stmdaeq	r0, {r0, r1, r4}
    119c:	13490021 	movtne	r0, #36897	; 0x9021
    11a0:	00000b2f 	andeq	r0, r0, pc, lsr #22
    11a4:	3f012e09 	svccc	0x00012e09
    11a8:	3a0e0319 	bcc	381e14 <__bss_end+0x37ec98>
    11ac:	270b3b0b 	strcs	r3, [fp, -fp, lsl #22]
    11b0:	11134919 	tstne	r3, r9, lsl r9
    11b4:	40061201 	andmi	r1, r6, r1, lsl #4
    11b8:	19429718 	stmdbne	r2, {r3, r4, r8, r9, sl, ip, pc}^
    11bc:	00001301 	andeq	r1, r0, r1, lsl #6
    11c0:	0300050a 	movweq	r0, #1290	; 0x50a
    11c4:	3b0b3a0e 	blcc	2cfa04 <__bss_end+0x2cc888>
    11c8:	0213490b 	andseq	r4, r3, #180224	; 0x2c000
    11cc:	0b000017 	bleq	1230 <__restore_processor_state+0x7c>
    11d0:	08030034 	stmdaeq	r3, {r2, r4, r5}
    11d4:	0b3b0b3a 	bleq	ec3ec4 <__bss_end+0xec0d48>
    11d8:	17021349 	strne	r1, [r2, -r9, asr #6]
    11dc:	0f0c0000 	svceq	0x000c0000
    11e0:	490b0b00 	stmdbmi	fp, {r8, r9, fp}
    11e4:	0d000013 	stceq	0, cr0, [r0, #-76]	; 0xffffffb4
    11e8:	193f012e 	ldmdbne	pc!, {r1, r2, r3, r5, r8}	; <UNPREDICTABLE>
    11ec:	0b3a0e03 	bleq	e84a00 <__bss_end+0xe81884>
    11f0:	19270b3b 	stmdbne	r7!, {r0, r1, r3, r4, r5, r8, r9, fp}
    11f4:	01111349 	tsteq	r1, r9, asr #6
    11f8:	18400612 	stmdane	r0, {r1, r4, r9, sl}^
    11fc:	00194297 	mulseq	r9, r7, r2
    1200:	11010000 	mrsne	r0, (UNDEF: 1)
    1204:	130e2501 	movwne	r2, #58625	; 0xe501
    1208:	1b0e030b 	blne	381e3c <__bss_end+0x37ecc0>
    120c:	1201110e 	andne	r1, r1, #-2147483645	; 0x80000003
    1210:	00171006 	andseq	r1, r7, r6
    1214:	00240200 	eoreq	r0, r4, r0, lsl #4
    1218:	0b3e0b0b 	bleq	f83e4c <__bss_end+0xf80cd0>
    121c:	00000e03 	andeq	r0, r0, r3, lsl #28
    1220:	03001603 	movweq	r1, #1539	; 0x603
    1224:	3b0b3a0e 	blcc	2cfa64 <__bss_end+0x2cc8e8>
    1228:	0013490b 	andseq	r4, r3, fp, lsl #18
    122c:	00240400 	eoreq	r0, r4, r0, lsl #8
    1230:	0b3e0b0b 	bleq	f83e64 <__bss_end+0xf80ce8>
    1234:	00000803 	andeq	r0, r0, r3, lsl #16
    1238:	49003505 	stmdbmi	r0, {r0, r2, r8, sl, ip, sp}
    123c:	06000013 			; <UNDEFINED> instruction: 0x06000013
    1240:	13490101 	movtne	r0, #37121	; 0x9101
    1244:	00001301 	andeq	r1, r0, r1, lsl #6
    1248:	49002107 	stmdbmi	r0, {r0, r1, r2, r8, sp}
    124c:	000b2f13 	andeq	r2, fp, r3, lsl pc
    1250:	01130800 	tsteq	r3, r0, lsl #16
    1254:	0b0b0e03 	bleq	2c4a68 <__bss_end+0x2c18ec>
    1258:	0b3b0b3a 	bleq	ec3f48 <__bss_end+0xec0dcc>
    125c:	00001301 	andeq	r1, r0, r1, lsl #6
    1260:	03000d09 	movweq	r0, #3337	; 0xd09
    1264:	3b0b3a0e 	blcc	2cfaa4 <__bss_end+0x2cc928>
    1268:	3813490b 	ldmdacc	r3, {r0, r1, r3, r8, fp, lr}
    126c:	0a00000b 	beq	12a0 <__restore_processor_state+0xec>
    1270:	0e030104 	adfeqs	f0, f3, f4
    1274:	13490b0b 	movtne	r0, #39691	; 0x9b0b
    1278:	0b3b0b3a 	bleq	ec3f68 <__bss_end+0xec0dec>
    127c:	00001301 	andeq	r1, r0, r1, lsl #6
    1280:	0300280b 	movweq	r2, #2059	; 0x80b
    1284:	000b1c0e 	andeq	r1, fp, lr, lsl #24
    1288:	012e0c00 			; <UNDEFINED> instruction: 0x012e0c00
    128c:	0e03193f 	mcreq	9, 0, r1, cr3, cr15, {1}
    1290:	0b3b0b3a 	bleq	ec3f80 <__bss_end+0xec0e04>
    1294:	13491927 	movtne	r1, #39207	; 0x9927
    1298:	06120111 			; <UNDEFINED> instruction: 0x06120111
    129c:	42971840 	addsmi	r1, r7, #64, 16	; 0x400000
    12a0:	00130119 	andseq	r0, r3, r9, lsl r1
    12a4:	00050d00 	andeq	r0, r5, r0, lsl #26
    12a8:	0b3a0e03 	bleq	e84abc <__bss_end+0xe81940>
    12ac:	13490b3b 	movtne	r0, #39739	; 0x9b3b
    12b0:	00001702 	andeq	r1, r0, r2, lsl #14
    12b4:	0b000f0e 	bleq	4ef4 <__bss_end+0x1d78>
    12b8:	0013490b 	andseq	r4, r3, fp, lsl #18
    12bc:	002e0f00 	eoreq	r0, lr, r0, lsl #30
    12c0:	0e03193f 	mcreq	9, 0, r1, cr3, cr15, {1}
    12c4:	0b3b0b3a 	bleq	ec3fb4 <__bss_end+0xec0e38>
    12c8:	13491927 	movtne	r1, #39207	; 0x9927
    12cc:	06120111 			; <UNDEFINED> instruction: 0x06120111
    12d0:	42971840 	addsmi	r1, r7, #64, 16	; 0x400000
    12d4:	10000019 	andne	r0, r0, r9, lsl r0
    12d8:	193f002e 	ldmdbne	pc!, {r1, r2, r3, r5}	; <UNPREDICTABLE>
    12dc:	0b3a0e03 	bleq	e84af0 <__bss_end+0xe81974>
    12e0:	19270b3b 	stmdbne	r7!, {r0, r1, r3, r4, r5, r8, r9, fp}
    12e4:	06120111 			; <UNDEFINED> instruction: 0x06120111
    12e8:	42971840 	addsmi	r1, r7, #64, 16	; 0x400000
    12ec:	11000019 	tstne	r0, r9, lsl r0
    12f0:	0e030034 	mcreq	0, 0, r0, cr3, cr4, {1}
    12f4:	0b3b0b3a 	bleq	ec3fe4 <__bss_end+0xec0e68>
    12f8:	18021349 	stmdane	r2, {r0, r3, r6, r8, r9, ip}
    12fc:	01000000 	mrseq	r0, (UNDEF: 0)
    1300:	0e250111 	mcreq	1, 1, r0, cr5, cr1, {0}
    1304:	0e030b13 	vmoveq.32	d3[0], r0
    1308:	17100e1b 			; <UNDEFINED> instruction: 0x17100e1b
    130c:	24020000 	strcs	r0, [r2], #-0
    1310:	3e0b0b00 	vmlacc.f64	d0, d11, d0
    1314:	000e030b 	andeq	r0, lr, fp, lsl #6
    1318:	00240300 	eoreq	r0, r4, r0, lsl #6
    131c:	0b3e0b0b 	bleq	f83f50 <__bss_end+0xf80dd4>
    1320:	00000803 	andeq	r0, r0, r3, lsl #16
    1324:	01110100 	tsteq	r1, r0, lsl #2
    1328:	0b130e25 	bleq	4c4bc4 <__bss_end+0x4c1a48>
    132c:	0e1b0e03 	cdpeq	14, 1, cr0, cr11, cr3, {0}
    1330:	00001710 	andeq	r1, r0, r0, lsl r7
    1334:	0b002402 	bleq	a344 <__bss_end+0x71c8>
    1338:	030b3e0b 	movweq	r3, #48651	; 0xbe0b
    133c:	0300000e 	movweq	r0, #14
    1340:	0b0b0024 	bleq	2c13d8 <__bss_end+0x2be25c>
    1344:	08030b3e 	stmdaeq	r3, {r1, r2, r3, r4, r5, r8, r9, fp}
    1348:	01000000 	mrseq	r0, (UNDEF: 0)
    134c:	0e250111 	mcreq	1, 1, r0, cr5, cr1, {0}
    1350:	0e030b13 	vmoveq.32	d3[0], r0
    1354:	01110e1b 	tsteq	r1, fp, lsl lr
    1358:	17100612 			; <UNDEFINED> instruction: 0x17100612
    135c:	24020000 	strcs	r0, [r2], #-0
    1360:	3e0b0b00 	vmlacc.f64	d0, d11, d0
    1364:	000e030b 	andeq	r0, lr, fp, lsl #6
    1368:	00160300 	andseq	r0, r6, r0, lsl #6
    136c:	0b3a0e03 	bleq	e84b80 <__bss_end+0xe81a04>
    1370:	13490b3b 	movtne	r0, #39739	; 0x9b3b
    1374:	24040000 	strcs	r0, [r4], #-0
    1378:	3e0b0b00 	vmlacc.f64	d0, d11, d0
    137c:	0008030b 	andeq	r0, r8, fp, lsl #6
    1380:	01130500 	tsteq	r3, r0, lsl #10
    1384:	0b3a0b0b 	bleq	e83fb8 <__bss_end+0xe80e3c>
    1388:	13010b3b 	movwne	r0, #6971	; 0x1b3b
    138c:	0d060000 	stceq	0, cr0, [r6, #-0]
    1390:	3a0e0300 	bcc	381f98 <__bss_end+0x37ee1c>
    1394:	490b3b0b 	stmdbmi	fp, {r0, r1, r3, r8, r9, fp, ip, sp}
    1398:	0d0b0b13 	vstreq	d0, [fp, #-76]	; 0xffffffb4
    139c:	380b0c0b 	stmdacc	fp, {r0, r1, r3, sl, fp}
    13a0:	0700000b 	streq	r0, [r0, -fp]
    13a4:	0b0b0117 	bleq	2c1808 <__bss_end+0x2be68c>
    13a8:	0b3b0b3a 	bleq	ec4098 <__bss_end+0xec0f1c>
    13ac:	00001301 	andeq	r1, r0, r1, lsl #6
    13b0:	03000d08 	movweq	r0, #3336	; 0xd08
    13b4:	3b0b3a0e 	blcc	2cfbf4 <__bss_end+0x2cca78>
    13b8:	0013490b 	andseq	r4, r3, fp, lsl #18
    13bc:	01130900 	tsteq	r3, r0, lsl #18
    13c0:	0b0b0e03 	bleq	2c4bd4 <__bss_end+0x2c1a58>
    13c4:	0b3b0b3a 	bleq	ec40b4 <__bss_end+0xec0f38>
    13c8:	00001301 	andeq	r1, r0, r1, lsl #6
    13cc:	0301130a 	movweq	r1, #4874	; 0x130a
    13d0:	3a050b0e 	bcc	144010 <__bss_end+0x140e94>
    13d4:	010b3b0b 	tsteq	fp, fp, lsl #22
    13d8:	0b000013 	bleq	142c <__restore_processor_state+0x278>
    13dc:	0e03000d 	cdpeq	0, 0, cr0, cr3, cr13, {0}
    13e0:	0b3b0b3a 	bleq	ec40d0 <__bss_end+0xec0f54>
    13e4:	0b381349 	bleq	e06110 <__bss_end+0xe02f94>
    13e8:	0d0c0000 	stceq	0, cr0, [ip, #-0]
    13ec:	3a080300 	bcc	201ff4 <__bss_end+0x1fee78>
    13f0:	490b3b0b 	stmdbmi	fp, {r0, r1, r3, r8, r9, fp, ip, sp}
    13f4:	000b3813 	andeq	r3, fp, r3, lsl r8
    13f8:	000d0d00 	andeq	r0, sp, r0, lsl #26
    13fc:	0b3a0e03 	bleq	e84c10 <__bss_end+0xe81a94>
    1400:	1349053b 	movtne	r0, #38203	; 0x953b
    1404:	00000b38 	andeq	r0, r0, r8, lsr fp
    1408:	03000d0e 	movweq	r0, #3342	; 0xd0e
    140c:	3b0b3a08 	blcc	2cfc34 <__bss_end+0x2ccab8>
    1410:	38134905 	ldmdacc	r3, {r0, r2, r8, fp, lr}
    1414:	0f00000b 	svceq	0x0000000b
    1418:	0e03000d 	cdpeq	0, 0, cr0, cr3, cr13, {0}
    141c:	053b0b3a 	ldreq	r0, [fp, #-2874]!	; 0xfffff4c6
    1420:	05381349 	ldreq	r1, [r8, #-841]!	; 0xfffffcb7
    1424:	0d100000 	ldceq	0, cr0, [r0, #-0]
    1428:	3a080300 	bcc	202030 <__bss_end+0x1feeb4>
    142c:	49053b0b 	stmdbmi	r5, {r0, r1, r3, r8, r9, fp, ip, sp}
    1430:	00053813 	andeq	r3, r5, r3, lsl r8
    1434:	00351100 	eorseq	r1, r5, r0, lsl #2
    1438:	00001349 	andeq	r1, r0, r9, asr #6
    143c:	49010112 	stmdbmi	r1, {r1, r4, r8}
    1440:	00130113 	andseq	r0, r3, r3, lsl r1
    1444:	00211300 	eoreq	r1, r1, r0, lsl #6
    1448:	0b2f1349 	bleq	bc6174 <__bss_end+0xbc2ff8>
    144c:	16140000 	ldrne	r0, [r4], -r0
    1450:	3a0e0300 	bcc	382058 <__bss_end+0x37eedc>
    1454:	49053b0b 	stmdbmi	r5, {r0, r1, r3, r8, r9, fp, ip, sp}
    1458:	15000013 	strne	r0, [r0, #-19]	; 0xffffffed
    145c:	0b0b000f 	bleq	2c14a0 <__bss_end+0x2be324>
    1460:	00001349 	andeq	r1, r0, r9, asr #6
    1464:	03010416 	movweq	r0, #5142	; 0x1416
    1468:	490b0b0e 	stmdbmi	fp, {r1, r2, r3, r8, r9, fp}
    146c:	3b0b3a13 	blcc	2cfcc0 <__bss_end+0x2ccb44>
    1470:	0013010b 	andseq	r0, r3, fp, lsl #2
    1474:	00281700 	eoreq	r1, r8, r0, lsl #14
    1478:	0b1c0e03 	bleq	704c8c <__bss_end+0x701b10>
    147c:	2e180000 	cdpcs	0, 1, cr0, cr8, cr0, {0}
    1480:	03193f01 	tsteq	r9, #1, 30
    1484:	3b0b3a0e 	blcc	2cfcc4 <__bss_end+0x2ccb48>
    1488:	4919270b 	ldmdbmi	r9, {r0, r1, r3, r8, r9, sl, sp}
    148c:	12011113 	andne	r1, r1, #-1073741820	; 0xc0000004
    1490:	97184006 	ldrls	r4, [r8, -r6]
    1494:	13011942 	movwne	r1, #6466	; 0x1942
    1498:	05190000 	ldreq	r0, [r9, #-0]
    149c:	3a0e0300 	bcc	3820a4 <__bss_end+0x37ef28>
    14a0:	490b3b0b 	stmdbmi	fp, {r0, r1, r3, r8, r9, fp, ip, sp}
    14a4:	00170213 	andseq	r0, r7, r3, lsl r2
    14a8:	002e1a00 	eoreq	r1, lr, r0, lsl #20
    14ac:	0e03193f 	mcreq	9, 0, r1, cr3, cr15, {1}
    14b0:	0b3b0b3a 	bleq	ec41a0 <__bss_end+0xec1024>
    14b4:	13491927 	movtne	r1, #39207	; 0x9927
    14b8:	06120111 			; <UNDEFINED> instruction: 0x06120111
    14bc:	42971840 	addsmi	r1, r7, #64, 16	; 0x400000
    14c0:	1b000019 	blne	152c <restore_processor_state>
    14c4:	01018289 	smlabbeq	r1, r9, r2, r8
    14c8:	13310111 	teqne	r1, #1073741828	; 0x40000004
    14cc:	00001301 	andeq	r1, r0, r1, lsl #6
    14d0:	01828a1c 	orreq	r8, r2, ip, lsl sl
    14d4:	91180200 	tstls	r8, r0, lsl #4
    14d8:	00001842 	andeq	r1, r0, r2, asr #16
    14dc:	0182891d 	orreq	r8, r2, sp, lsl r9
    14e0:	31011101 	tstcc	r1, r1, lsl #2
    14e4:	1e000013 	mcrne	0, 0, r0, cr0, cr3, {0}
    14e8:	193f012e 	ldmdbne	pc!, {r1, r2, r3, r5, r8}	; <UNPREDICTABLE>
    14ec:	0b3a0e03 	bleq	e84d00 <__bss_end+0xe81b84>
    14f0:	1927053b 	stmdbne	r7!, {r0, r1, r3, r4, r5, r8, sl}
    14f4:	01111349 	tsteq	r1, r9, asr #6
    14f8:	18400612 	stmdane	r0, {r1, r4, r9, sl}^
    14fc:	01194297 			; <UNDEFINED> instruction: 0x01194297
    1500:	1f000013 	svcne	0x00000013
    1504:	0e030005 	cdpeq	0, 0, cr0, cr3, cr5, {0}
    1508:	053b0b3a 	ldreq	r0, [fp, #-2874]!	; 0xfffff4c6
    150c:	17021349 	strne	r1, [r2, -r9, asr #6]
    1510:	34200000 	strtcc	r0, [r0], #-0
    1514:	3a0e0300 	bcc	38211c <__bss_end+0x37efa0>
    1518:	49053b0b 	stmdbmi	r5, {r0, r1, r3, r8, r9, fp, ip, sp}
    151c:	00170213 	andseq	r0, r7, r3, lsl r2
    1520:	82892100 	addhi	r2, r9, #0, 2
    1524:	01110001 	tsteq	r1, r1
    1528:	31194295 			; <UNDEFINED> instruction: 0x31194295
    152c:	22000013 	andcs	r0, r0, #19
    1530:	0e030034 	mcreq	0, 0, r0, cr3, cr4, {1}
    1534:	0b3b0b3a 	bleq	ec4224 <__bss_end+0xec10a8>
    1538:	18021349 	stmdane	r2, {r0, r3, r6, r8, r9, ip}
    153c:	2e230000 	cdpcs	0, 2, cr0, cr3, cr0, {0}
    1540:	3c193f00 	ldccc	15, cr3, [r9], {-0}
    1544:	030e6e19 	movweq	r6, #60953	; 0xee19
    1548:	3b0b3a0e 	blcc	2cfd88 <__bss_end+0x2ccc0c>
    154c:	0000000b 	andeq	r0, r0, fp

Disassembly of section .debug_aranges:

00000000 <.debug_aranges>:
   0:	00000014 	andeq	r0, r0, r4, lsl r0
   4:	00000002 	andeq	r0, r0, r2
   8:	00040000 	andeq	r0, r4, r0
	...
  18:	0000001c 	andeq	r0, r0, ip, lsl r0
  1c:	01c00002 	biceq	r0, r0, r2
  20:	00040000 	andeq	r0, r4, r0
  24:	00000000 	andeq	r0, r0, r0
  28:	00000030 	andeq	r0, r0, r0, lsr r0
  2c:	000000b0 	strheq	r0, [r0], -r0	; <UNPREDICTABLE>
	...
  38:	0000001c 	andeq	r0, r0, ip, lsl r0
  3c:	02640002 	rsbeq	r0, r4, #2
  40:	00040000 	andeq	r0, r4, r0
  44:	00000000 	andeq	r0, r0, r0
  48:	000000e0 	andeq	r0, r0, r0, ror #1
  4c:	0000002c 	andeq	r0, r0, ip, lsr #32
	...
  58:	00000014 	andeq	r0, r0, r4, lsl r0
  5c:	033a0002 	teqeq	sl, #2
  60:	00040000 	andeq	r0, r4, r0
	...
  70:	0000001c 	andeq	r0, r0, ip, lsl r0
  74:	03a50002 			; <UNDEFINED> instruction: 0x03a50002
  78:	00040000 	andeq	r0, r4, r0
  7c:	00000000 	andeq	r0, r0, r0
  80:	0000010c 	andeq	r0, r0, ip, lsl #2
  84:	00000028 	andeq	r0, r0, r8, lsr #32
	...
  90:	00000014 	andeq	r0, r0, r4, lsl r0
  94:	04460002 	strbeq	r0, [r6], #-2
  98:	00040000 	andeq	r0, r4, r0
	...
  a8:	00000014 	andeq	r0, r0, r4, lsl r0
  ac:	04b10002 	ldrteq	r0, [r1], #2
  b0:	00040000 	andeq	r0, r4, r0
	...
  c0:	00000014 	andeq	r0, r0, r4, lsl r0
  c4:	051c0002 	ldreq	r0, [ip, #-2]
  c8:	00040000 	andeq	r0, r4, r0
	...
  d8:	0000001c 	andeq	r0, r0, ip, lsl r0
  dc:	05870002 	streq	r0, [r7, #2]
  e0:	00040000 	andeq	r0, r4, r0
  e4:	00000000 	andeq	r0, r0, r0
  e8:	00000134 	andeq	r0, r0, r4, lsr r1
  ec:	000002b8 			; <UNDEFINED> instruction: 0x000002b8
	...
  f8:	0000001c 	andeq	r0, r0, ip, lsl r0
  fc:	1d3c0002 	ldcne	0, cr0, [ip, #-8]!
 100:	00040000 	andeq	r0, r4, r0
 104:	00000000 	andeq	r0, r0, r0
 108:	000003ec 	andeq	r0, r0, ip, ror #7
 10c:	00000178 	andeq	r0, r0, r8, ror r1
	...
 118:	0000001c 	andeq	r0, r0, ip, lsl r0
 11c:	20340002 	eorscs	r0, r4, r2
 120:	00040000 	andeq	r0, r4, r0
 124:	00000000 	andeq	r0, r0, r0
 128:	00000564 	andeq	r0, r0, r4, ror #10
 12c:	00000200 	andeq	r0, r0, r0, lsl #4
	...
 138:	0000001c 	andeq	r0, r0, ip, lsl r0
 13c:	25550002 	ldrbcs	r0, [r5, #-2]
 140:	00040000 	andeq	r0, r4, r0
 144:	00000000 	andeq	r0, r0, r0
 148:	00000780 	andeq	r0, r0, r0, lsl #15
 14c:	000000e0 	andeq	r0, r0, r0, ror #1
	...
 158:	0000001c 	andeq	r0, r0, ip, lsl r0
 15c:	26b60002 	ldrtcs	r0, [r6], r2
 160:	00040000 	andeq	r0, r4, r0
 164:	00000000 	andeq	r0, r0, r0
 168:	00000860 	andeq	r0, r0, r0, ror #16
 16c:	00000550 	andeq	r0, r0, r0, asr r5
	...
 178:	0000001c 	andeq	r0, r0, ip, lsl r0
 17c:	27570002 	ldrbcs	r0, [r7, -r2]
 180:	00040000 	andeq	r0, r4, r0
 184:	00000000 	andeq	r0, r0, r0
 188:	00000db0 			; <UNDEFINED> instruction: 0x00000db0
 18c:	000007ac 	andeq	r0, r0, ip, lsr #15
	...
 198:	0000001c 	andeq	r0, r0, ip, lsl r0
 19c:	2d6d0002 	stclcs	0, cr0, [sp, #-8]!
 1a0:	00040000 	andeq	r0, r4, r0
 1a4:	00000000 	andeq	r0, r0, r0
 1a8:	0000155c 	andeq	r1, r0, ip, asr r5
 1ac:	000004c8 	andeq	r0, r0, r8, asr #9
	...
 1b8:	0000001c 	andeq	r0, r0, ip, lsl r0
 1bc:	437d0002 	cmnmi	sp, #2
 1c0:	00040000 	andeq	r0, r4, r0
 1c4:	00000000 	andeq	r0, r0, r0
 1c8:	00001a24 	andeq	r1, r0, r4, lsr #20
 1cc:	00000850 	andeq	r0, r0, r0, asr r8
	...
 1d8:	0000001c 	andeq	r0, r0, ip, lsl r0
 1dc:	4d1b0002 	ldcmi	0, cr0, [fp, #-8]
 1e0:	00040000 	andeq	r0, r4, r0
 1e4:	00000000 	andeq	r0, r0, r0
 1e8:	00002274 	andeq	r2, r0, r4, ror r2
 1ec:	000001dc 	ldrdeq	r0, [r0], -ip
	...
 1f8:	0000001c 	andeq	r0, r0, ip, lsl r0
 1fc:	4db80002 	ldcmi	0, cr0, [r8, #8]!
 200:	00040000 	andeq	r0, r4, r0
 204:	00000000 	andeq	r0, r0, r0
 208:	00002450 	andeq	r2, r0, r0, asr r4
 20c:	00000060 	andeq	r0, r0, r0, rrx
	...
 218:	0000001c 	andeq	r0, r0, ip, lsl r0
 21c:	4eda0002 	cdpmi	0, 13, cr0, cr10, cr2, {0}
 220:	00040000 	andeq	r0, r4, r0
 224:	00000000 	andeq	r0, r0, r0
 228:	000024b0 			; <UNDEFINED> instruction: 0x000024b0
 22c:	00000180 	andeq	r0, r0, r0, lsl #3
	...
 238:	0000001c 	andeq	r0, r0, ip, lsl r0
 23c:	51d90002 	bicspl	r0, r9, r2
 240:	00040000 	andeq	r0, r4, r0
 244:	00000000 	andeq	r0, r0, r0
 248:	00002630 	andeq	r2, r0, r0, lsr r6
 24c:	00000058 	andeq	r0, r0, r8, asr r0
	...
 258:	0000001c 	andeq	r0, r0, ip, lsl r0
 25c:	52fa0002 	rscspl	r0, sl, #2
 260:	00040000 	andeq	r0, r4, r0
 264:	00000000 	andeq	r0, r0, r0
 268:	00002688 	andeq	r2, r0, r8, lsl #13
 26c:	000001e0 	andeq	r0, r0, r0, ror #3
	...
 278:	00000014 	andeq	r0, r0, r4, lsl r0
 27c:	57450002 	strbpl	r0, [r5, -r2]
 280:	00040000 	andeq	r0, r4, r0
	...
 290:	00000014 	andeq	r0, r0, r4, lsl r0
 294:	57b00002 	ldrpl	r0, [r0, r2]!
 298:	00040000 	andeq	r0, r4, r0
	...
 2a8:	0000001c 	andeq	r0, r0, ip, lsl r0
 2ac:	581b0002 	ldmdapl	fp, {r1}
 2b0:	00040000 	andeq	r0, r4, r0
 2b4:	00000000 	andeq	r0, r0, r0
 2b8:	00002868 	andeq	r2, r0, r8, ror #16
 2bc:	000003a4 	andeq	r0, r0, r4, lsr #7
	...

Disassembly of section .debug_line:

00000000 <.debug_line>:
       0:	000000b8 	strheq	r0, [r0], -r8
       4:	00b20002 	adcseq	r0, r2, r2
       8:	01020000 	mrseq	r0, (UNDEF: 2)
       c:	000d0efb 	strdeq	r0, [sp], -fp
      10:	01010101 	tsteq	r1, r1, lsl #2
      14:	01000000 	mrseq	r0, (UNDEF: 0)
      18:	61010000 	mrsvs	r0, (UNDEF: 1)
      1c:	2f686372 	svccs	0x00686372
      20:	2f6d7261 	svccs	0x006d7261
      24:	6863616d 	stmdavs	r3!, {r0, r2, r3, r5, r6, r8, sp, lr}^
      28:	6e75732d 	cdpvs	3, 7, cr7, cr5, cr13, {1}
      2c:	702f6978 	eorvc	r6, pc, r8, ror r9	; <UNPREDICTABLE>
      30:	74732f6d 	ldrbtvc	r2, [r3], #-3949	; 0xfffff093
      34:	62646e61 	rsbvs	r6, r4, #1552	; 0x610
      38:	75732f79 	ldrbvc	r2, [r3, #-3961]!	; 0xfffff087
      3c:	2f726570 	svccs	0x00726570
      40:	75736572 	ldrbvc	r6, [r3, #-1394]!	; 0xfffffa8e
      44:	2e2f656d 	cfsh64cs	mvdx6, mvdx15, #61
      48:	002e2e2f 	eoreq	r2, lr, pc, lsr #28
      4c:	6c636e69 	stclvs	14, cr6, [r3], #-420	; 0xfffffe5c
      50:	2f656475 	svccs	0x00656475
      54:	756e696c 	strbvc	r6, [lr, #-2412]!	; 0xfffff694
      58:	6f702f78 	svcvs	0x00702f78
      5c:	00726577 	rsbseq	r6, r2, r7, ror r5
      60:	68637261 	stmdavs	r3!, {r0, r5, r6, r9, ip, sp, lr}^
      64:	6d72612f 	ldfvse	f6, [r2, #-188]!	; 0xffffff44
      68:	63616d2f 	cmnvs	r1, #3008	; 0xbc0
      6c:	75732d68 	ldrbvc	r2, [r3, #-3432]!	; 0xfffff298
      70:	2f69786e 	svccs	0x0069786e
      74:	732f6d70 			; <UNDEFINED> instruction: 0x732f6d70
      78:	646e6174 	strbtvs	r6, [lr], #-372	; 0xfffffe8c
      7c:	732f7962 			; <UNDEFINED> instruction: 0x732f7962
      80:	72657075 	rsbvc	r7, r5, #117	; 0x75
      84:	7365722f 	cmnvc	r5, #-268435454	; 0xf0000002
      88:	00656d75 	rsbeq	r6, r5, r5, ror sp
      8c:	70757300 	rsbsvc	r7, r5, r0, lsl #6
      90:	695f7265 	ldmdbvs	pc, {r0, r2, r5, r6, r9, ip, sp, lr}^	; <UNPREDICTABLE>
      94:	0100682e 	tsteq	r0, lr, lsr #16
      98:	78610000 	stmdavc	r1!, {}^	; <UNPREDICTABLE>
      9c:	65645f70 	strbvs	r5, [r4, #-3952]!	; 0xfffff090
      a0:	646e6570 	strbtvs	r6, [lr], #-1392	; 0xfffffa90
      a4:	0200682e 	andeq	r6, r0, #3014656	; 0x2e0000
      a8:	65720000 	ldrbvs	r0, [r2, #-0]!
      ac:	656d7573 	strbvs	r7, [sp, #-1395]!	; 0xfffffa8d
      b0:	6165685f 	cmnvs	r5, pc, asr r8
      b4:	00632e64 	rsbeq	r2, r3, r4, ror #28
      b8:	00000003 	andeq	r0, r0, r3
      bc:	00000091 	muleq	r0, r1, r0
      c0:	004c0002 	subeq	r0, ip, r2
      c4:	01020000 	mrseq	r0, (UNDEF: 2)
      c8:	000d0efb 	strdeq	r0, [sp], -fp
      cc:	01010101 	tsteq	r1, r1, lsl #2
      d0:	01000000 	mrseq	r0, (UNDEF: 0)
      d4:	61010000 	mrsvs	r0, (UNDEF: 1)
      d8:	2f686372 	svccs	0x00686372
      dc:	2f6d7261 	svccs	0x006d7261
      e0:	6863616d 	stmdavs	r3!, {r0, r2, r3, r5, r6, r8, sp, lr}^
      e4:	6e75732d 	cdpvs	3, 7, cr7, cr5, cr13, {1}
      e8:	702f6978 	eorvc	r6, pc, r8, ror r9	; <UNPREDICTABLE>
      ec:	74732f6d 	ldrbtvc	r2, [r3], #-3949	; 0xfffff093
      f0:	62646e61 	rsbvs	r6, r4, #1552	; 0x610
      f4:	75732f79 	ldrbvc	r2, [r3, #-3961]!	; 0xfffff087
      f8:	2f726570 	svccs	0x00726570
      fc:	75736572 	ldrbvc	r6, [r3, #-1394]!	; 0xfffffa8e
     100:	0000656d 	andeq	r6, r0, sp, ror #10
     104:	75736572 	ldrbvc	r6, [r3, #-1394]!	; 0xfffffa8e
     108:	2e31656d 	cdpcs	5, 3, cr6, cr1, cr13, {3}
     10c:	00010053 	andeq	r0, r1, r3, asr r0
     110:	05000000 	streq	r0, [r0, #-0]
     114:	00003002 	andeq	r3, r0, r2
     118:	00c30300 	sbceq	r0, r3, r0, lsl #6
     11c:	2f2f2f01 	svccs	0x002f2f01
     120:	2f332f2f 	svccs	0x00332f2f
     124:	302f2f2f 	eorcc	r2, pc, pc, lsr #30
     128:	2e21032f 	cdpcs	3, 2, cr0, cr1, cr15, {1}
     12c:	302f302f 	eorcc	r3, pc, pc, lsr #32
     130:	2f2f2f2f 	svccs	0x002f2f2f
     134:	2f2f2f32 	svccs	0x002f2f32
     138:	2f2f322f 	svccs	0x002f322f
     13c:	302f342f 	eorcc	r3, pc, pc, lsr #8
     140:	2f2f2f2f 	svccs	0x002f2f2f
     144:	03302f31 	teqeq	r0, #49, 30	; 0xc4
     148:	34362e54 	ldrtcc	r2, [r6], #-3668	; 0xfffff1ac
     14c:	01000202 	tsteq	r0, r2, lsl #4
     150:	00006f01 	andeq	r6, r0, r1, lsl #30
     154:	44000200 	strmi	r0, [r0], #-512	; 0xfffffe00
     158:	02000000 	andeq	r0, r0, #0
     15c:	0d0efb01 	vstreq	d15, [lr, #-4]
     160:	01010100 	mrseq	r0, (UNDEF: 17)
     164:	00000001 	andeq	r0, r0, r1
     168:	01000001 	tsteq	r0, r1
     16c:	68637261 	stmdavs	r3!, {r0, r5, r6, r9, ip, sp, lr}^
     170:	6d72612f 	ldfvse	f6, [r2, #-188]!	; 0xffffff44
     174:	63616d2f 	cmnvs	r1, #3008	; 0xbc0
     178:	75732d68 	ldrbvc	r2, [r3, #-3432]!	; 0xfffff298
     17c:	2f69786e 	svccs	0x0069786e
     180:	732f6d70 			; <UNDEFINED> instruction: 0x732f6d70
     184:	646e6174 	strbtvs	r6, [lr], #-372	; 0xfffffe8c
     188:	732f7962 			; <UNDEFINED> instruction: 0x732f7962
     18c:	72657075 	rsbvc	r7, r5, #117	; 0x75
     190:	6f630000 	svcvs	0x00630000
     194:	6e6f6d6d 	cdpvs	13, 6, cr6, cr15, cr13, {3}
     198:	0100632e 	tsteq	r0, lr, lsr #6
     19c:	00000000 	andeq	r0, r0, r0
     1a0:	00e00205 	rsceq	r0, r0, r5, lsl #4
     1a4:	23030000 	movwcs	r0, #12288	; 0x3000
     1a8:	004c1501 	subeq	r1, ip, r1, lsl #10
     1ac:	83020402 	movwhi	r0, #9218	; 0x2402
     1b0:	02040200 	andeq	r0, r4, #0, 4
     1b4:	0402002d 	streq	r0, [r2], #-45	; 0xffffffd3
     1b8:	02002f02 	andeq	r2, r0, #2, 30
     1bc:	022d0204 	eoreq	r0, sp, #4, 4	; 0x40000000
     1c0:	01010004 	tsteq	r1, r4
     1c4:	00000019 	andeq	r0, r0, r9, lsl r0
     1c8:	00130002 	andseq	r0, r3, r2
     1cc:	01020000 	mrseq	r0, (UNDEF: 2)
     1d0:	000d0efb 	strdeq	r0, [sp], -fp
     1d4:	01010101 	tsteq	r1, r1, lsl #2
     1d8:	01000000 	mrseq	r0, (UNDEF: 0)
     1dc:	00010000 	andeq	r0, r1, r0
     1e0:	00006700 	andeq	r6, r0, r0, lsl #14
     1e4:	49000200 	stmdbmi	r0, {r9}
     1e8:	02000000 	andeq	r0, r0, #0
     1ec:	0d0efb01 	vstreq	d15, [lr, #-4]
     1f0:	01010100 	mrseq	r0, (UNDEF: 17)
     1f4:	00000001 	andeq	r0, r0, r1
     1f8:	01000001 	tsteq	r0, r1
     1fc:	68637261 	stmdavs	r3!, {r0, r5, r6, r9, ip, sp, lr}^
     200:	6d72612f 	ldfvse	f6, [r2, #-188]!	; 0xffffff44
     204:	63616d2f 	cmnvs	r1, #3008	; 0xbc0
     208:	75732d68 	ldrbvc	r2, [r3, #-3432]!	; 0xfffff298
     20c:	2f69786e 	svccs	0x0069786e
     210:	732f6d70 			; <UNDEFINED> instruction: 0x732f6d70
     214:	646e6174 	strbtvs	r6, [lr], #-372	; 0xfffffe8c
     218:	732f7962 			; <UNDEFINED> instruction: 0x732f7962
     21c:	72657075 	rsbvc	r7, r5, #117	; 0x75
     220:	75730000 	ldrbvc	r0, [r3, #-0]!
     224:	5f726570 	svcpl	0x00726570
     228:	616c6564 	cmnvs	ip, r4, ror #10
     22c:	00532e79 	subseq	r2, r3, r9, ror lr
     230:	00000001 	andeq	r0, r0, r1
     234:	0c020500 	cfstr32eq	mvfx0, [r2], {-0}
     238:	03000001 	movweq	r0, #1
     23c:	2f2f010d 	svccs	0x002f010d
     240:	2f2f2f30 	svccs	0x002f2f30
     244:	022f302f 	eoreq	r3, pc, #47	; 0x2f
     248:	01010002 	tsteq	r1, r2
     24c:	00000019 	andeq	r0, r0, r9, lsl r0
     250:	00130002 	andseq	r0, r3, r2
     254:	01020000 	mrseq	r0, (UNDEF: 2)
     258:	000d0efb 	strdeq	r0, [sp], -fp
     25c:	01010101 	tsteq	r1, r1, lsl #2
     260:	01000000 	mrseq	r0, (UNDEF: 0)
     264:	00010000 	andeq	r0, r1, r0
     268:	00001900 	andeq	r1, r0, r0, lsl #18
     26c:	13000200 	movwne	r0, #512	; 0x200
     270:	02000000 	andeq	r0, r0, #0
     274:	0d0efb01 	vstreq	d15, [lr, #-4]
     278:	01010100 	mrseq	r0, (UNDEF: 17)
     27c:	00000001 	andeq	r0, r0, r1
     280:	01000001 	tsteq	r0, r1
     284:	00190000 	andseq	r0, r9, r0
     288:	00020000 	andeq	r0, r2, r0
     28c:	00000013 	andeq	r0, r0, r3, lsl r0
     290:	0efb0102 	cdpeq	1, 15, cr0, cr11, cr2, {0}
     294:	0101000d 	tsteq	r1, sp
     298:	00000101 	andeq	r0, r0, r1, lsl #2
     29c:	00000100 	andeq	r0, r0, r0, lsl #2
     2a0:	13000001 	movwne	r0, #1
     2a4:	02000002 	andeq	r0, r0, #2
     2a8:	00017100 	andeq	r7, r1, r0, lsl #2
     2ac:	fb010200 	blx	40ab6 <__bss_end+0x3d93a>
     2b0:	01000d0e 	tsteq	r0, lr, lsl #26
     2b4:	00010101 	andeq	r0, r1, r1, lsl #2
     2b8:	00010000 	andeq	r0, r1, r0
     2bc:	72610100 	rsbvc	r0, r1, #0, 2
     2c0:	612f6863 			; <UNDEFINED> instruction: 0x612f6863
     2c4:	6d2f6d72 	stcvs	13, cr6, [pc, #-456]!	; 104 <mem_memcpy+0x24>
     2c8:	2d686361 	stclcs	3, cr6, [r8, #-388]!	; 0xfffffe7c
     2cc:	786e7573 	stmdavc	lr!, {r0, r1, r4, r5, r6, r8, sl, ip, sp, lr}^
     2d0:	6d702f69 	ldclvs	15, cr2, [r0, #-420]!	; 0xfffffe5c
     2d4:	6174732f 	cmnvs	r4, pc, lsr #6
     2d8:	7962646e 	stmdbvc	r2!, {r1, r2, r3, r5, r6, sl, sp, lr}^
     2dc:	7075732f 	rsbsvc	r7, r5, pc, lsr #6
     2e0:	722f7265 	eorvc	r7, pc, #1342177286	; 0x50000006
     2e4:	6d757365 	ldclvs	3, cr7, [r5, #-404]!	; 0xfffffe6c
     2e8:	72610065 	rsbvc	r0, r1, #101	; 0x65
     2ec:	612f6863 			; <UNDEFINED> instruction: 0x612f6863
     2f0:	6d2f6d72 	stcvs	13, cr6, [pc, #-456]!	; 130 <loop2+0x18>
     2f4:	2d686361 	stclcs	3, cr6, [r8, #-388]!	; 0xfffffe7c
     2f8:	786e7573 	stmdavc	lr!, {r0, r1, r4, r5, r6, r8, sl, ip, sp, lr}^
     2fc:	6d702f69 	ldclvs	15, cr2, [r0, #-420]!	; 0xfffffe5c
     300:	6174732f 	cmnvs	r4, pc, lsr #6
     304:	7962646e 	stmdbvc	r2!, {r1, r2, r3, r5, r6, sl, sp, lr}^
     308:	7075732f 	rsbsvc	r7, r5, pc, lsr #6
     30c:	722f7265 	eorvc	r7, pc, #1342177286	; 0x50000006
     310:	6d757365 	ldclvs	3, cr7, [r5, #-404]!	; 0xfffffe6c
     314:	2f2e2f65 	svccs	0x002e2f65
     318:	2e2f2e2e 	cdpcs	14, 2, cr2, cr15, cr14, {1}
     31c:	2e2e2f2e 	cdpcs	15, 2, cr2, cr14, cr14, {1}
     320:	63726100 	cmnvs	r2, #0, 2
     324:	72612f68 	rsbvc	r2, r1, #104, 30	; 0x1a0
     328:	616d2f6d 	cmnvs	sp, sp, ror #30
     32c:	732d6863 			; <UNDEFINED> instruction: 0x732d6863
     330:	69786e75 	ldmdbvs	r8!, {r0, r2, r4, r5, r6, r9, sl, fp, sp, lr}^
     334:	2f6d702f 	svccs	0x006d702f
     338:	6e617473 	mcrvs	4, 3, r7, cr1, cr3, {3}
     33c:	2f796264 	svccs	0x00796264
     340:	65707573 	ldrbvs	r7, [r0, #-1395]!	; 0xfffffa8d
     344:	65722f72 	ldrbvs	r2, [r2, #-3954]!	; 0xfffff08e
     348:	656d7573 	strbvs	r7, [sp, #-1395]!	; 0xfffffa8d
     34c:	2e2f2e2f 	cdpcs	14, 2, cr2, cr15, cr15, {1}
     350:	6e69002e 	cdpvs	0, 6, cr0, cr9, cr14, {1}
     354:	64756c63 	ldrbtvs	r6, [r5], #-3171	; 0xfffff39d
     358:	696c2f65 	stmdbvs	ip!, {r0, r2, r5, r6, r8, r9, sl, fp, sp}^
     35c:	2f78756e 	svccs	0x0078756e
     360:	65776f70 	ldrbvs	r6, [r7, #-3952]!	; 0xfffff090
     364:	72000072 	andvc	r0, r0, #114	; 0x72
     368:	6d757365 	ldclvs	3, cr7, [r5, #-404]!	; 0xfffffe6c
     36c:	635f3165 	cmpvs	pc, #1073741849	; 0x40000019
     370:	7261705f 	rsbvc	r7, r1, #95	; 0x5f
     374:	00632e74 	rsbeq	r2, r3, r4, ror lr
     378:	70000001 	andvc	r0, r0, r1
     37c:	79745f6d 	ldmdbvc	r4!, {r0, r2, r3, r5, r6, r8, r9, sl, fp, ip, lr}^
     380:	2e736570 	mrccs	5, 3, r6, cr3, cr0, {3}
     384:	00020068 	andeq	r0, r2, r8, rrx
     388:	6d656d00 	stclvs	13, cr6, [r5, #-0]
     38c:	6d63635f 	stclvs	3, cr6, [r3, #-380]!	; 0xfffffe84
     390:	75732d75 	ldrbvc	r2, [r3, #-3445]!	; 0xfffff28b
     394:	7769386e 	strbvc	r3, [r9, -lr, ror #16]!
     398:	2e317035 	mrccs	0, 1, r7, cr1, cr5, {1}
     39c:	00020068 	andeq	r0, r2, r8, rrx
     3a0:	6d656d00 	stclvs	13, cr6, [r5, #-0]
     3a4:	6b6c635f 	blvs	1b19128 <__bss_end+0x1b15fac>
     3a8:	0200682e 	andeq	r6, r0, #3014656	; 0x2e0000
     3ac:	6d700000 	ldclvs	0, cr0, [r0, #-0]
     3b0:	0200682e 	andeq	r6, r0, #3014656	; 0x2e0000
     3b4:	6d700000 	ldclvs	0, cr0, [r0, #-0]
     3b8:	6265645f 	rsbvs	r6, r5, #1593835520	; 0x5f000000
     3bc:	682e6775 	stmdavs	lr!, {r0, r2, r4, r5, r6, r8, r9, sl, sp, lr}
     3c0:	00000200 	andeq	r0, r0, r0, lsl #4
     3c4:	5f6d656d 	svcpl	0x006d656d
     3c8:	2e757063 	cdpcs	0, 7, cr7, cr5, cr3, {3}
     3cc:	00020068 	andeq	r0, r2, r8, rrx
     3d0:	6d656d00 	stclvs	13, cr6, [r5, #-0]
     3d4:	6d69745f 	cfstrdvs	mvd7, [r9, #-380]!	; 0xfffffe84
     3d8:	2e676e69 	cdpcs	14, 6, cr6, cr7, cr9, {3}
     3dc:	00020068 	andeq	r0, r2, r8, rrx
     3e0:	6d656d00 	stclvs	13, cr6, [r5, #-0]
     3e4:	7265735f 	rsbvc	r7, r5, #2080374785	; 0x7c000001
     3e8:	2e6c6169 	powcsez	f6, f4, #1.0
     3ec:	00020068 	andeq	r0, r2, r8, rrx
     3f0:	6d656d00 	stclvs	13, cr6, [r5, #-0]
     3f4:	6972705f 	ldmdbvs	r2!, {r0, r1, r2, r3, r4, r6, ip, sp, lr}^
     3f8:	2e6b746e 	cdpcs	4, 6, cr7, cr11, cr14, {3}
     3fc:	00020068 	andeq	r0, r2, r8, rrx
     400:	6d6f6300 	stclvs	3, cr6, [pc, #-0]	; 408 <busy_waiting+0x1c>
     404:	2e6e6f6d 	cdpcs	15, 6, cr6, cr14, cr13, {3}
     408:	00030068 	andeq	r0, r3, r8, rrx
     40c:	70786100 	rsbsvc	r6, r8, r0, lsl #2
     410:	7065645f 	rsbvc	r6, r5, pc, asr r4
     414:	2e646e65 	cdpcs	14, 6, cr6, cr4, cr5, {3}
     418:	00040068 	andeq	r0, r4, r8, rrx
     41c:	05000000 	streq	r0, [r0, #-0]
     420:	00013402 	andeq	r3, r1, r2, lsl #8
     424:	013d0300 	teqeq	sp, r0, lsl #6
     428:	4a100330 	bmi	4010f0 <__bss_end+0x3fdf74>
     42c:	032e7103 			; <UNDEFINED> instruction: 0x032e7103
     430:	03342e09 	teqeq	r4, #9, 28	; 0x90
     434:	4b312e7a 	blmi	c4be24 <__bss_end+0xc48ca8>
     438:	6b4c2f4b 	blvs	130c16c <__bss_end+0x1308ff0>
     43c:	032e1503 			; <UNDEFINED> instruction: 0x032e1503
     440:	4b322e6b 	blmi	c8bdf4 <__bss_end+0xc88c78>
     444:	4a0a0350 	bmi	28118c <__bss_end+0x27e010>
     448:	362e7703 	strtcc	r7, [lr], -r3, lsl #14
     44c:	660c034b 	strvs	r0, [ip], -fp, asr #6
     450:	5703694b 	strpl	r6, [r3, -fp, asr #18]
     454:	821a034a 	andshi	r0, sl, #671088641	; 0x28000001
     458:	83839f67 	orrhi	r9, r3, #412	; 0x19c
     45c:	f42f2d4b 			; <UNDEFINED> instruction: 0xf42f2d4b
     460:	3c081403 	cfstrscc	mvf1, [r8], {3}
     464:	302e1303 	eorcc	r1, lr, r3, lsl #6
     468:	01040200 	mrseq	r0, R12_usr
     46c:	0b036dd8 	bleq	dbbd4 <__bss_end+0xd8a58>
     470:	4a750366 	bmi	1d41210 <__bss_end+0x1d3e094>
     474:	2a513030 	bcs	144c53c <__bss_end+0x14493c0>
     478:	68322a32 	ldmdavs	r2!, {r1, r4, r5, r9, fp, sp}
     47c:	660a034e 	strvs	r0, [sl], -lr, asr #6
     480:	0351524b 	cmpeq	r1, #-1342177276	; 0xb0000004
     484:	03352e79 	teqeq	r5, #1936	; 0x790
     488:	2f672e2a 	svccs	0x00672e2a
     48c:	00f9034d 	rscseq	r0, r9, sp, asr #6
     490:	2b315166 	blcs	c54a30 <__bss_end+0xc518b4>
     494:	2e090369 	cdpcs	3, 0, cr0, cr9, cr9, {3}
     498:	2e2d032f 	cdpcs	3, 2, cr0, cr13, cr15, {1}
     49c:	032e5303 			; <UNDEFINED> instruction: 0x032e5303
     4a0:	4b2e7efa 	blmi	ba0090 <__bss_end+0xb9cf14>
     4a4:	032fa031 			; <UNDEFINED> instruction: 0x032fa031
     4a8:	034b4a74 	movteq	r4, #47732	; 0xba74
     4ac:	2f827fb6 	svccs	0x00827fb6
     4b0:	2c302c68 	ldccs	12, cr2, [r0], #-416	; 0xfffffe60
     4b4:	00060230 	andeq	r0, r6, r0, lsr r2
     4b8:	00ec0101 	rsceq	r0, ip, r1, lsl #2
     4bc:	00020000 	andeq	r0, r2, r0
     4c0:	00000095 	muleq	r0, r5, r0
     4c4:	0efb0102 	cdpeq	1, 15, cr0, cr11, cr2, {0}
     4c8:	0101000d 	tsteq	r1, sp
     4cc:	00000101 	andeq	r0, r0, r1, lsl #2
     4d0:	00000100 	andeq	r0, r0, r0, lsl #2
     4d4:	63726101 	cmnvs	r2, #1073741824	; 0x40000000
     4d8:	72612f68 	rsbvc	r2, r1, #104, 30	; 0x1a0
     4dc:	616d2f6d 	cmnvs	sp, sp, ror #30
     4e0:	732d6863 			; <UNDEFINED> instruction: 0x732d6863
     4e4:	69786e75 	ldmdbvs	r8!, {r0, r2, r4, r5, r6, r9, sl, fp, sp, lr}^
     4e8:	2f6d702f 	svccs	0x006d702f
     4ec:	6e617473 	mcrvs	4, 3, r7, cr1, cr3, {3}
     4f0:	2f796264 	svccs	0x00796264
     4f4:	69002e2e 	stmdbvs	r0, {r1, r2, r3, r5, r9, sl, fp, sp}
     4f8:	756c636e 	strbvc	r6, [ip, #-878]!	; 0xfffffc92
     4fc:	6c2f6564 	cfstr32vs	mvfx6, [pc], #-400	; 374 <set_pll+0xf4>
     500:	78756e69 	ldmdavc	r5!, {r0, r3, r5, r6, r9, sl, fp, sp, lr}^
     504:	776f702f 	strbvc	r7, [pc, -pc, lsr #32]!
     508:	00007265 	andeq	r7, r0, r5, ror #4
     50c:	645f6d70 	ldrbvs	r6, [pc], #-3440	; 514 <io_init_high+0x14>
     510:	67756265 	ldrbvs	r6, [r5, -r5, ror #4]!
     514:	0100632e 	tsteq	r0, lr, lsr #6
     518:	656d0000 	strbvs	r0, [sp, #-0]!
     51c:	72705f6d 	rsbsvc	r5, r0, #436	; 0x1b4
     520:	6b746e69 	blvs	1d1becc <__bss_end+0x1d18d50>
     524:	0100682e 	tsteq	r0, lr, lsr #16
     528:	656d0000 	strbvs	r0, [sp, #-0]!
     52c:	69745f6d 	ldmdbvs	r4!, {r0, r2, r3, r5, r6, r8, r9, sl, fp, ip, lr}^
     530:	676e696d 	strbvs	r6, [lr, -sp, ror #18]!
     534:	0100682e 	tsteq	r0, lr, lsr #16
     538:	6d700000 	ldclvs	0, cr0, [r0, #-0]
     53c:	7079745f 	rsbsvc	r7, r9, pc, asr r4
     540:	682e7365 	stmdavs	lr!, {r0, r2, r5, r6, r8, r9, ip, sp, lr}
     544:	00000100 	andeq	r0, r0, r0, lsl #2
     548:	5f707861 	svcpl	0x00707861
     54c:	65706564 	ldrbvs	r6, [r0, #-1380]!	; 0xfffffa9c
     550:	682e646e 	stmdavs	lr!, {r1, r2, r3, r5, r6, sl, sp, lr}
     554:	00000200 	andeq	r0, r0, r0, lsl #4
     558:	02050000 	andeq	r0, r5, #0
     55c:	000003ec 	andeq	r0, r0, ip, ror #7
     560:	30011503 	andcc	r1, r1, r3, lsl #10
     564:	01040200 	mrseq	r0, R12_usr
     568:	aa036a4b 	bge	dae9c <__bss_end+0xd7d20>
     56c:	fa16ba01 	blx	5aed78 <__bss_end+0x5abbfc>
     570:	492f0133 	stmdbmi	pc!, {r0, r1, r4, r5, r8}	; <UNPREDICTABLE>
     574:	302f4b2f 	eorcc	r4, pc, pc, lsr #22
     578:	3167134d 	cmncc	r7, sp, asr #6
     57c:	312b312e 			; <UNDEFINED> instruction: 0x312b312e
     580:	314fb92f 	cmpcc	pc, pc, lsr #18
     584:	4c2f2d2f 	stcmi	13, cr2, [pc], #-188	; 4d0 <save_cpux_mem_status_nommu+0x4>
     588:	2f2d2f4d 	svccs	0x002d2f4d
     58c:	4a09034c 	bmi	2412c4 <__bss_end+0x23e148>
     590:	6716c014 			; <UNDEFINED> instruction: 0x6716c014
     594:	6815502f 	ldmdavs	r5, {r0, r1, r2, r3, r5, ip, lr}
     598:	4a09032f 	bmi	24125c <__bss_end+0x23e0e0>
     59c:	32484c30 	subcc	r4, r8, #48, 24	; 0x3000
     5a0:	302f2f2c 	eorcc	r2, pc, ip, lsr #30
     5a4:	0004022f 	andeq	r0, r4, pc, lsr #4
     5a8:	013f0101 	teqeq	pc, r1, lsl #2
     5ac:	00020000 	andeq	r0, r2, r0
     5b0:	000000c7 	andeq	r0, r0, r7, asr #1
     5b4:	0efb0102 	cdpeq	1, 15, cr0, cr11, cr2, {0}
     5b8:	0101000d 	tsteq	r1, sp
     5bc:	00000101 	andeq	r0, r0, r1, lsl #2
     5c0:	00000100 	andeq	r0, r0, r0, lsl #2
     5c4:	63726101 	cmnvs	r2, #1073741824	; 0x40000000
     5c8:	72612f68 	rsbvc	r2, r1, #104, 30	; 0x1a0
     5cc:	616d2f6d 	cmnvs	sp, sp, ror #30
     5d0:	732d6863 			; <UNDEFINED> instruction: 0x732d6863
     5d4:	69786e75 	ldmdbvs	r8!, {r0, r2, r4, r5, r6, r9, sl, fp, sp, lr}^
     5d8:	2f6d702f 	svccs	0x006d702f
     5dc:	6e617473 	mcrvs	4, 3, r7, cr1, cr3, {3}
     5e0:	2f796264 	svccs	0x00796264
     5e4:	61002e2e 	tstvs	r0, lr, lsr #28
     5e8:	2f686372 	svccs	0x00686372
     5ec:	2f6d7261 	svccs	0x006d7261
     5f0:	6863616d 	stmdavs	r3!, {r0, r2, r3, r5, r6, r8, sp, lr}^
     5f4:	6e75732d 	cdpvs	3, 7, cr7, cr5, cr13, {1}
     5f8:	702f6978 	eorvc	r6, pc, r8, ror r9	; <UNPREDICTABLE>
     5fc:	74732f6d 	ldrbtvc	r2, [r3], #-3949	; 0xfffff093
     600:	62646e61 	rsbvs	r6, r4, #1552	; 0x610
     604:	2e2e2f79 	mcrcs	15, 1, r2, cr14, cr9, {3}
     608:	69002e2f 	stmdbvs	r0, {r0, r1, r2, r3, r5, r9, sl, fp, sp}
     60c:	756c636e 	strbvc	r6, [ip, #-878]!	; 0xfffffc92
     610:	6c2f6564 	cfstr32vs	mvfx6, [pc], #-400	; 488 <show_mem_status+0x10>
     614:	78756e69 	ldmdavc	r5!, {r0, r3, r5, r6, r9, sl, fp, sp, lr}^
     618:	776f702f 	strbvc	r7, [pc, -pc, lsr #32]!
     61c:	00007265 	andeq	r7, r0, r5, ror #4
     620:	5f6d656d 	svcpl	0x006d656d
     624:	696d6974 	stmdbvs	sp!, {r2, r4, r5, r6, r8, fp, sp, lr}^
     628:	632e676e 			; <UNDEFINED> instruction: 0x632e676e
     62c:	00000100 	andeq	r0, r0, r0, lsl #2
     630:	745f6d70 	ldrbvc	r6, [pc], #-3440	; 638 <delay_us+0x20>
     634:	73657079 	cmnvc	r5, #121	; 0x79
     638:	0100682e 	tsteq	r0, lr, lsr #16
     63c:	6d700000 	ldclvs	0, cr0, [r0, #-0]
     640:	6265645f 	rsbvs	r6, r5, #1593835520	; 0x5f000000
     644:	682e6775 	stmdavs	lr!, {r0, r2, r4, r5, r6, r8, r9, sl, sp, lr}
     648:	00000200 	andeq	r0, r0, r0, lsl #4
     64c:	5f707861 	svcpl	0x00707861
     650:	65706564 	ldrbvs	r6, [r0, #-1380]!	; 0xfffffa9c
     654:	682e646e 	stmdavs	lr!, {r1, r2, r3, r5, r6, sl, sp, lr}
     658:	00000300 	andeq	r0, r0, r0, lsl #6
     65c:	5f6d656d 	svcpl	0x006d656d
     660:	2e6b6c63 	cdpcs	12, 6, cr6, cr11, cr3, {3}
     664:	00020068 	andeq	r0, r2, r8, rrx
     668:	6d656d00 	stclvs	13, cr6, [r5, #-0]
     66c:	7669645f 			; <UNDEFINED> instruction: 0x7669645f
     670:	6362696c 	cmnvs	r2, #108, 18	; 0x1b0000
     674:	0200682e 	andeq	r6, r0, #3014656	; 0x2e0000
     678:	00000000 	andeq	r0, r0, r0
     67c:	05640205 	strbeq	r0, [r4, #-517]!	; 0xfffffdfb
     680:	16030000 	strne	r0, [r3], -r0
     684:	2f691a01 	svccs	0x00691a01
     688:	2f4d4e33 	svccs	0x004d4e33
     68c:	8514502f 	ldrhi	r5, [r4, #-47]	; 0xffffffd1
     690:	6b85156b 	blvs	fe145c44 <__bss_end+0xfe142ac8>
     694:	15313015 	ldrne	r3, [r1, #-21]!	; 0xffffffeb
     698:	70036a32 	andvc	r6, r3, r2, lsr sl
     69c:	4a19032e 	bmi	64135c <__bss_end+0x63e1e0>
     6a0:	03366dbc 	teqeq	r6, #188, 26	; 0x2f00
     6a4:	2f2f9e32 	svccs	0x002f9e32
     6a8:	034a4d03 	movteq	r4, #44291	; 0xad03
     6ac:	32036655 	andcc	r6, r3, #89128960	; 0x5500000
     6b0:	032f852e 			; <UNDEFINED> instruction: 0x032f852e
     6b4:	4e667fa3 	cdpmi	15, 6, cr7, cr6, cr3, {5}
     6b8:	032f2f4d 			; <UNDEFINED> instruction: 0x032f2f4d
     6bc:	032e00d8 			; <UNDEFINED> instruction: 0x032e00d8
     6c0:	3a036646 	bcc	d9fe0 <__bss_end+0xd6e64>
     6c4:	822b032e 	eorhi	r0, fp, #-1207959552	; 0xb8000000
     6c8:	2f2e2d13 	svccs	0x002e2d13
     6cc:	4f492d30 	svcmi	0x00492d30
     6d0:	20032c4c 	andcs	r2, r3, ip, asr #24
     6d4:	2f691a2e 	svccs	0x00691a2e
     6d8:	504d4e33 	subpl	r4, sp, r3, lsr lr
     6dc:	30316c66 	eorscc	r6, r1, r6, ror #24
     6e0:	6c66512f 	stfvse	f5, [r6], #-188	; 0xffffff44
     6e4:	312f3031 			; <UNDEFINED> instruction: 0x312f3031
     6e8:	01000202 	tsteq	r0, r2, lsl #4
     6ec:	0000b801 	andeq	fp, r0, r1, lsl #16
     6f0:	7f000200 	svcvc	0x00000200
     6f4:	02000000 	andeq	r0, r0, #0
     6f8:	0d0efb01 	vstreq	d15, [lr, #-4]
     6fc:	01010100 	mrseq	r0, (UNDEF: 17)
     700:	00000001 	andeq	r0, r0, r1
     704:	01000001 	tsteq	r0, r1
     708:	68637261 	stmdavs	r3!, {r0, r5, r6, r9, ip, sp, lr}^
     70c:	6d72612f 	ldfvse	f6, [r2, #-188]!	; 0xffffff44
     710:	63616d2f 	cmnvs	r1, #3008	; 0xbc0
     714:	75732d68 	ldrbvc	r2, [r3, #-3432]!	; 0xfffff298
     718:	2f69786e 	svccs	0x0069786e
     71c:	732f6d70 			; <UNDEFINED> instruction: 0x732f6d70
     720:	646e6174 	strbtvs	r6, [lr], #-372	; 0xfffffe8c
     724:	2e2f7962 	cdpcs	9, 2, cr7, cr15, cr2, {3}
     728:	7261002e 	rsbvc	r0, r1, #46	; 0x2e
     72c:	612f6863 			; <UNDEFINED> instruction: 0x612f6863
     730:	6d2f6d72 	stcvs	13, cr6, [pc, #-456]!	; 570 <init_perfcounters+0xc>
     734:	2d686361 	stclcs	3, cr6, [r8, #-388]!	; 0xfffffe7c
     738:	786e7573 	stmdavc	lr!, {r0, r1, r4, r5, r6, r8, sl, ip, sp, lr}^
     73c:	6d702f69 	ldclvs	15, cr2, [r0, #-420]!	; 0xfffffe5c
     740:	6174732f 	cmnvs	r4, pc, lsr #6
     744:	7962646e 	stmdbvc	r2!, {r1, r2, r3, r5, r6, sl, sp, lr}^
     748:	2f2e2e2f 	svccs	0x002e2e2f
     74c:	6d00002e 	stcvs	0, cr0, [r0, #-184]	; 0xffffff48
     750:	6d5f6d65 	ldclvs	13, cr6, [pc, #-404]	; 5c4 <restore_perfcounter+0x10>
     754:	705f756d 	subsvc	r7, pc, sp, ror #10
     758:	00632e63 	rsbeq	r2, r3, r3, ror #28
     75c:	70000001 	andvc	r0, r0, r1
     760:	00682e6d 	rsbeq	r2, r8, sp, ror #28
     764:	70000002 	andvc	r0, r0, r2
     768:	79745f6d 	ldmdbvc	r4!, {r0, r2, r3, r5, r6, r8, r9, sl, fp, ip, lr}^
     76c:	2e736570 	mrccs	5, 3, r6, cr3, cr0, {3}
     770:	00010068 	andeq	r0, r1, r8, rrx
     774:	05000000 	streq	r0, [r0, #-0]
     778:	00078002 	andeq	r8, r7, r2
     77c:	01110300 	tsteq	r1, r0, lsl #6
     780:	4f4d4c14 	svcmi	0x004d4c14
     784:	6b4d4b4b 	blvs	13534b8 <__bss_end+0x135033c>
     788:	4e4c4c16 	mcrmi	12, 2, r4, cr12, cr6, {0}
     78c:	4c4e4b4b 	mcrrmi	11, 4, r4, lr, cr11
     790:	4e2f2f2f 	cdpmi	15, 2, cr2, cr15, cr15, {1}
     794:	4e4c4c16 	mcrmi	12, 2, r4, cr12, cr6, {0}
     798:	674b2f4b 	strbvs	r2, [fp, -fp, asr #30]
     79c:	32131313 	andscc	r1, r3, #1275068416	; 0x4c000000
     7a0:	2f2f2f4c 	svccs	0x002f2f4c
     7a4:	01000402 	tsteq	r0, r2, lsl #8
     7a8:	0001b001 	andeq	fp, r1, r1
     7ac:	49000200 	stmdbmi	r0, {r9}
     7b0:	02000000 	andeq	r0, r0, #0
     7b4:	0d0efb01 	vstreq	d15, [lr, #-4]
     7b8:	01010100 	mrseq	r0, (UNDEF: 17)
     7bc:	00000001 	andeq	r0, r0, r1
     7c0:	01000001 	tsteq	r0, r1
     7c4:	68637261 	stmdavs	r3!, {r0, r5, r6, r9, ip, sp, lr}^
     7c8:	6d72612f 	ldfvse	f6, [r2, #-188]!	; 0xffffff44
     7cc:	63616d2f 	cmnvs	r1, #3008	; 0xbc0
     7d0:	75732d68 	ldrbvc	r2, [r3, #-3432]!	; 0xfffff298
     7d4:	2f69786e 	svccs	0x0069786e
     7d8:	732f6d70 			; <UNDEFINED> instruction: 0x732f6d70
     7dc:	646e6174 	strbtvs	r6, [lr], #-372	; 0xfffffe8c
     7e0:	2e2f7962 	cdpcs	9, 2, cr7, cr15, cr2, {3}
     7e4:	6d00002e 	stcvs	0, cr0, [r0, #-184]	; 0xffffff48
     7e8:	6d5f6d65 	ldclvs	13, cr6, [pc, #-404]	; 65c <delay_us+0x44>
     7ec:	705f756d 	subsvc	r7, pc, sp, ror #10
     7f0:	73615f63 	cmnvc	r1, #396	; 0x18c
     7f4:	00532e6d 	subseq	r2, r3, sp, ror #28
     7f8:	00000001 	andeq	r0, r0, r1
     7fc:	60020500 	andvs	r0, r2, r0, lsl #10
     800:	03000008 	movweq	r0, #8
     804:	2f2f010a 	svccs	0x002f010a
     808:	332f2f33 			; <UNDEFINED> instruction: 0x332f2f33
     80c:	6b2f332f 	blvs	bcd4d0 <__bss_end+0xbca354>
     810:	1303302f 	movwne	r3, #12335	; 0x302f
     814:	2f2f2f4a 	svccs	0x002f2f4a
     818:	2f302f2f 	svccs	0x00302f2f
     81c:	2f2f2f2f 	svccs	0x002f2f2f
     820:	2f2f2f2f 	svccs	0x002f2f2f
     824:	2f2f2f2f 	svccs	0x002f2f2f
     828:	2f30302f 	svccs	0x0030302f
     82c:	2f2f2f2f 	svccs	0x002f2f2f
     830:	2f2f302f 	svccs	0x002f302f
     834:	2f2f3030 	svccs	0x002f3030
     838:	2f2f3330 	svccs	0x002f3330
     83c:	332f2f2f 			; <UNDEFINED> instruction: 0x332f2f2f
     840:	2f2f2f2f 	svccs	0x002f2f2f
     844:	2f302f2f 	svccs	0x00302f2f
     848:	2f2f2f2f 	svccs	0x002f2f2f
     84c:	2f2f2f2f 	svccs	0x002f2f2f
     850:	2f2f2f2f 	svccs	0x002f2f2f
     854:	2f30302f 	svccs	0x0030302f
     858:	2f2f2f2f 	svccs	0x002f2f2f
     85c:	2f2f302f 	svccs	0x002f302f
     860:	2f2f3030 	svccs	0x002f3030
     864:	2f342f2f 	svccs	0x00342f2f
     868:	2f2f2f2f 	svccs	0x002f2f2f
     86c:	332f2f2f 			; <UNDEFINED> instruction: 0x332f2f2f
     870:	2f2f2f2f 	svccs	0x002f2f2f
     874:	332f2f2f 			; <UNDEFINED> instruction: 0x332f2f2f
     878:	2f2f2f2f 	svccs	0x002f2f2f
     87c:	2f332f2f 	svccs	0x00332f2f
     880:	2f2f2f2f 	svccs	0x002f2f2f
     884:	2f2f342f 	svccs	0x002f342f
     888:	2f2f2f2f 	svccs	0x002f2f2f
     88c:	2f2f2f33 	svccs	0x002f2f33
     890:	2f2f2f2f 	svccs	0x002f2f2f
     894:	2f2f2f33 	svccs	0x002f2f33
     898:	032f2f2f 			; <UNDEFINED> instruction: 0x032f2f2f
     89c:	2f2f2e0a 	svccs	0x002f2e0a
     8a0:	342f2f2f 	strtcc	r2, [pc], #-3887	; 8a8 <invalidate_dcache+0x8>
     8a4:	2f2f2f2f 	svccs	0x002f2f2f
     8a8:	2f332f2f 	svccs	0x00332f2f
     8ac:	2f2f2f2f 	svccs	0x002f2f2f
     8b0:	2e09032f 	cdpcs	3, 0, cr0, cr9, cr15, {1}
     8b4:	3030302f 	eorscc	r3, r0, pc, lsr #32
     8b8:	2f2f2f2f 	svccs	0x002f2f2f
     8bc:	2f2f3033 	svccs	0x002f3033
     8c0:	2f2f2f2f 	svccs	0x002f2f2f
     8c4:	2f2f312f 	svccs	0x002f312f
     8c8:	2f2f2f2f 	svccs	0x002f2f2f
     8cc:	2f2f2f2f 	svccs	0x002f2f2f
     8d0:	2f2f2f2f 	svccs	0x002f2f2f
     8d4:	2f2f2f2f 	svccs	0x002f2f2f
     8d8:	2f2f2f2f 	svccs	0x002f2f2f
     8dc:	2f2f2f2f 	svccs	0x002f2f2f
     8e0:	2f2f2f2f 	svccs	0x002f2f2f
     8e4:	2f2f2f2f 	svccs	0x002f2f2f
     8e8:	2f2f2f2f 	svccs	0x002f2f2f
     8ec:	2f2f302f 	svccs	0x002f302f
     8f0:	2f2f2f2f 	svccs	0x002f2f2f
     8f4:	2f2f2f2f 	svccs	0x002f2f2f
     8f8:	312f2f2f 			; <UNDEFINED> instruction: 0x312f2f2f
     8fc:	032f302f 			; <UNDEFINED> instruction: 0x032f302f
     900:	2f2f2e0a 	svccs	0x002f2e0a
     904:	2f30c02f 	svccs	0x0030c02f
     908:	2f34302f 	svccs	0x0034302f
     90c:	30f82f2f 	rscscc	r2, r8, pc, lsr #30
     910:	03302f2f 	teqeq	r0, #47, 30	; 0xbc
     914:	2f2f2e0d 	svccs	0x002f2e0d
     918:	820c0330 	andhi	r0, ip, #48, 6	; 0xc0000000
     91c:	2f2f2f2f 	svccs	0x002f2f2f
     920:	2f502f2f 	svccs	0x00502f2f
     924:	302f2f6d 	eorcc	r2, pc, sp, ror #30
     928:	302f2f30 	eorcc	r2, pc, r0, lsr pc	; <UNPREDICTABLE>
     92c:	a403302f 	strge	r3, [r3], #-47	; 0xffffffd1
     930:	03352e7c 	teqeq	r5, #124, 28	; 0x7c0
     934:	03312e39 	teqeq	r1, #912	; 0x390
     938:	302e01e8 	eorcc	r0, lr, r8, ror #3
     93c:	30303230 	eorscc	r3, r0, r0, lsr r2
     940:	30303030 	eorscc	r3, r0, r0, lsr r0
     944:	30303030 	eorscc	r3, r0, r0, lsr r0
     948:	30303030 	eorscc	r3, r0, r0, lsr r0
     94c:	30303030 	eorscc	r3, r0, r0, lsr r0
     950:	30303130 	eorscc	r3, r0, r0, lsr r1
     954:	30303030 	eorscc	r3, r0, r0, lsr r0
     958:	01000202 	tsteq	r0, r2, lsl #4
     95c:	00013b01 	andeq	r3, r1, r1, lsl #22
     960:	a5000200 	strge	r0, [r0, #-512]	; 0xfffffe00
     964:	02000000 	andeq	r0, r0, #0
     968:	0d0efb01 	vstreq	d15, [lr, #-4]
     96c:	01010100 	mrseq	r0, (UNDEF: 17)
     970:	00000001 	andeq	r0, r0, r1
     974:	01000001 	tsteq	r0, r1
     978:	68637261 	stmdavs	r3!, {r0, r5, r6, r9, ip, sp, lr}^
     97c:	6d72612f 	ldfvse	f6, [r2, #-188]!	; 0xffffff44
     980:	63616d2f 	cmnvs	r1, #3008	; 0xbc0
     984:	75732d68 	ldrbvc	r2, [r3, #-3432]!	; 0xfffff298
     988:	2f69786e 	svccs	0x0069786e
     98c:	732f6d70 			; <UNDEFINED> instruction: 0x732f6d70
     990:	646e6174 	strbtvs	r6, [lr], #-372	; 0xfffffe8c
     994:	2e2f7962 	cdpcs	9, 2, cr7, cr15, cr2, {3}
     998:	7261002e 	rsbvc	r0, r1, #46	; 0x2e
     99c:	612f6863 			; <UNDEFINED> instruction: 0x612f6863
     9a0:	6d2f6d72 	stcvs	13, cr6, [pc, #-456]!	; 7e0 <restore_secure_mmu_state+0x24>
     9a4:	2d686361 	stclcs	3, cr6, [r8, #-388]!	; 0xfffffe7c
     9a8:	786e7573 	stmdavc	lr!, {r0, r1, r4, r5, r6, r8, sl, ip, sp, lr}^
     9ac:	6d702f69 	ldclvs	15, cr2, [r0, #-420]!	; 0xfffffe5c
     9b0:	6174732f 	cmnvs	r4, pc, lsr #6
     9b4:	7962646e 	stmdbvc	r2!, {r1, r2, r3, r5, r6, sl, sp, lr}^
     9b8:	2f2e2e2f 	svccs	0x002e2e2f
     9bc:	6e69002e 	cdpvs	0, 6, cr0, cr9, cr14, {1}
     9c0:	64756c63 	ldrbtvs	r6, [r5], #-3171	; 0xfffff39d
     9c4:	696c2f65 	stmdbvs	ip!, {r0, r2, r5, r6, r8, r9, sl, fp, sp}^
     9c8:	2f78756e 	svccs	0x0078756e
     9cc:	65776f70 	ldrbvs	r6, [r7, #-3952]!	; 0xfffff090
     9d0:	6d000072 	stcvs	0, cr0, [r0, #-456]	; 0xfffffe38
     9d4:	635f6d65 	cmpvs	pc, #6464	; 0x1940
     9d8:	632e7570 			; <UNDEFINED> instruction: 0x632e7570
     9dc:	00000100 	andeq	r0, r0, r0, lsl #2
     9e0:	5f6d656d 	svcpl	0x006d656d
     9e4:	2e757063 	cdpcs	0, 7, cr7, cr5, cr3, {3}
     9e8:	00020068 	andeq	r0, r2, r8, rrx
     9ec:	5f6d7000 	svcpl	0x006d7000
     9f0:	65707974 	ldrbvs	r7, [r0, #-2420]!	; 0xfffff68c
     9f4:	00682e73 	rsbeq	r2, r8, r3, ror lr
     9f8:	61000001 	tstvs	r0, r1
     9fc:	645f7078 	ldrbvs	r7, [pc], #-120	; a04 <flush_icache+0x1c>
     a00:	6e657065 	cdpvs	0, 6, cr7, cr5, cr5, {3}
     a04:	00682e64 	rsbeq	r2, r8, r4, ror #28
     a08:	00000003 	andeq	r0, r0, r3
     a0c:	b0020500 	andlt	r0, r2, r0, lsl #10
     a10:	0300000d 	movweq	r0, #13
     a14:	1601018a 	strne	r0, [r1], -sl, lsl #3
     a18:	f3f21003 	vswp	d17, d3
     a1c:	f6f3f3f8 			; <UNDEFINED> instruction: 0xf6f3f3f8
     a20:	f3f3f3f6 	vrsra.u64	<illegal reg q15.5>, q11, #13
     a24:	f6f6f3f6 			; <UNDEFINED> instruction: 0xf6f6f3f6
     a28:	03f3f3f3 	mvnseq	pc, #-872415229	; 0xcc000003
     a2c:	f3f3f20b 	vsubl.u<illegal width 64>	<illegal reg q15.5>, d3, d11
     a30:	f3f3f3f3 	vrsra.u64	<illegal reg q15.5>, <illegal reg q9.5>, #13
     a34:	f3f21403 	vraddhn.i<illegal width 128>	d17, q1, <illegal reg q1.5>
     a38:	03f21703 	mvnseq	r1, #786432	; 0xc0000
     a3c:	f3f3f209 	vsubl.u<illegal width 64>	<illegal reg q15.5>, d3, d9
     a40:	080d03f3 	stmdaeq	sp, {r0, r1, r4, r5, r6, r7, r8, r9}
     a44:	0e031420 	cfcpydeq	mvd1, mvd3
     a48:	2ff3f6f2 	svccs	0x00f3f6f2
     a4c:	2f2ff32f 	svccs	0x002ff32f
     a50:	f4322ff3 			; <UNDEFINED> instruction: 0xf4322ff3
     a54:	f3f3f3f5 	vrsra.u64	<illegal reg q15.5>, <illegal reg q10.5>, #13
     a58:	faf3f3f3 	blx	ffcfda2c <__bss_end+0xffcfa8b0>
     a5c:	f21703f3 	vcge.s16	q0, <illegal reg q11.5>, <illegal reg q9.5>
     a60:	f3f3f3f9 	vrsra.u64	<illegal reg q15.5>, <illegal reg q12.5>, #13
     a64:	14502ff9 	ldrbne	r2, [r0], #-4089	; 0xfffff007
     a68:	09032f68 	stmdbeq	r3, {r3, r5, r6, r8, r9, sl, fp, sp}
     a6c:	0b03154a 	bleq	c5f9c <__bss_end+0xc2e20>
     a70:	4e4b674a 	cdpmi	7, 4, cr6, cr11, cr10, {2}
     a74:	30302f30 	eorscc	r2, r0, r0, lsr pc
     a78:	302f2f2f 	eorcc	r2, pc, pc, lsr #30
     a7c:	2f31302f 	svccs	0x0031302f
     a80:	2e0d032f 	cdpcs	3, 0, cr0, cr13, cr15, {1}
     a84:	66170367 	ldrvs	r0, [r7], -r7, ror #6
     a88:	302f2f2f 	eorcc	r2, pc, pc, lsr #30
     a8c:	6b13512f 	blvs	4d4f50 <__bss_end+0x4d1dd4>
     a90:	a3136a13 	tstge	r3, #77824	; 0x13000
     a94:	022f3015 	eoreq	r3, pc, #21
     a98:	01010004 	tsteq	r1, r4
     a9c:	00000242 	andeq	r0, r0, r2, asr #4
     aa0:	00ac0002 	adceq	r0, ip, r2
     aa4:	01020000 	mrseq	r0, (UNDEF: 2)
     aa8:	000d0efb 	strdeq	r0, [sp], -fp
     aac:	01010101 	tsteq	r1, r1, lsl #2
     ab0:	01000000 	mrseq	r0, (UNDEF: 0)
     ab4:	61010000 	mrsvs	r0, (UNDEF: 1)
     ab8:	2f686372 	svccs	0x00686372
     abc:	2f6d7261 	svccs	0x006d7261
     ac0:	6863616d 	stmdavs	r3!, {r0, r2, r3, r5, r6, r8, sp, lr}^
     ac4:	6e75732d 	cdpvs	3, 7, cr7, cr5, cr13, {1}
     ac8:	702f6978 	eorvc	r6, pc, r8, ror r9	; <UNPREDICTABLE>
     acc:	74732f6d 	ldrbtvc	r2, [r3], #-3949	; 0xfffff093
     ad0:	62646e61 	rsbvs	r6, r4, #1552	; 0x610
     ad4:	2e2e2f79 	mcrcs	15, 1, r2, cr14, cr9, {3}
     ad8:	636e6900 	cmnvs	lr, #0, 18
     adc:	6564756c 	strbvs	r7, [r4, #-1388]!	; 0xfffffa94
     ae0:	6e696c2f 	cdpvs	12, 6, cr6, cr9, cr15, {1}
     ae4:	702f7875 	eorvc	r7, pc, r5, ror r8	; <UNPREDICTABLE>
     ae8:	7265776f 	rsbvc	r7, r5, #29097984	; 0x1bc0000
     aec:	656d0000 	strbvs	r0, [sp, #-0]!
     af0:	65735f6d 	ldrbvs	r5, [r3, #-3949]!	; 0xfffff093
     af4:	6c616972 	stclvs	9, cr6, [r1], #-456	; 0xfffffe38
     af8:	0100632e 	tsteq	r0, lr, lsr #6
     afc:	6d700000 	ldclvs	0, cr0, [r0, #-0]
     b00:	7079745f 	rsbsvc	r7, r9, pc, asr r4
     b04:	682e7365 	stmdavs	lr!, {r0, r2, r5, r6, r8, r9, ip, sp, lr}
     b08:	00000100 	andeq	r0, r0, r0, lsl #2
     b0c:	5f6d656d 	svcpl	0x006d656d
     b10:	756d6363 	strbvc	r6, [sp, #-867]!	; 0xfffffc9d
     b14:	6e75732d 	cdpvs	3, 7, cr7, cr5, cr13, {1}
     b18:	35776938 	ldrbcc	r6, [r7, #-2360]!	; 0xfffff6c8
     b1c:	682e3170 	stmdavs	lr!, {r4, r5, r6, r8, ip, sp}
     b20:	00000100 	andeq	r0, r0, r0, lsl #2
     b24:	5f6d656d 	svcpl	0x006d656d
     b28:	2e6b6c63 	cdpcs	12, 6, cr6, cr11, cr3, {3}
     b2c:	00010068 	andeq	r0, r1, r8, rrx
     b30:	6d656d00 	stclvs	13, cr6, [r5, #-0]
     b34:	6d69745f 	cfstrdvs	mvd7, [r9, #-380]!	; 0xfffffe84
     b38:	2e676e69 	cdpcs	14, 6, cr6, cr7, cr9, {3}
     b3c:	00010068 	andeq	r0, r1, r8, rrx
     b40:	70786100 	rsbsvc	r6, r8, r0, lsl #2
     b44:	7065645f 	rsbvc	r6, r5, pc, asr r4
     b48:	2e646e65 	cdpcs	14, 6, cr6, cr4, cr5, {3}
     b4c:	00020068 	andeq	r0, r2, r8, rrx
     b50:	05000000 	streq	r0, [r0, #-0]
     b54:	00155c02 	andseq	r5, r5, r2, lsl #24
     b58:	011b0300 	tsteq	fp, r0, lsl #6
     b5c:	2e0b032e 	cdpcs	3, 0, cr0, cr11, cr14, {1}
     b60:	1303862f 	movwne	r8, #13871	; 0x362f
     b64:	0330a566 	teqeq	r0, #427819008	; 0x19800000
     b68:	6c038214 	sfmvs	f0, 1, [r3], {20}
     b6c:	2e77032e 	cdpcs	3, 7, cr0, cr7, cr14, {1}
     b70:	302e0903 	eorcc	r0, lr, r3, lsl #18
     b74:	684a1203 	stmdavs	sl, {r0, r1, r9, ip}^
     b78:	364d2f67 	strbcc	r2, [sp], -r7, ror #30
     b7c:	4c2e7803 	stcmi	8, cr7, [lr], #-12
     b80:	01d2036c 	bicseq	r0, r2, ip, ror #6
     b84:	ee03142e 	cdp	4, 0, cr1, cr3, cr14, {1}
     b88:	92039e00 	andls	r9, r3, #0, 28
     b8c:	4c302e7f 	ldcmi	14, cr2, [r0], #-508	; 0xfffffe04
     b90:	4a00ea03 	bmi	3b3a4 <__bss_end+0x38228>
     b94:	4a7f9e03 	bmi	1fe83a8 <__bss_end+0x1fe522c>
     b98:	03016a03 	movweq	r6, #6659	; 0x1a03
     b9c:	64032e1c 	strvs	r2, [r3], #-3612	; 0xfffff1e4
     ba0:	4a16032e 	bmi	581860 <__bss_end+0x57e6e4>
     ba4:	682e6a03 	stmdavs	lr!, {r0, r1, r9, fp, sp, lr}
     ba8:	312e2403 			; <UNDEFINED> instruction: 0x312e2403
     bac:	2e570330 	mrccs	3, 2, r0, cr7, cr0, {1}
     bb0:	32661a03 	rsbcc	r1, r6, #12288	; 0x3000
     bb4:	302d2f49 	eorcc	r2, sp, r9, asr #30
     bb8:	00cf034b 	sbceq	r0, pc, fp, asr #6
     bbc:	7fb4034a 	svcvc	0x00b4034a
     bc0:	00cc032e 	sbceq	r0, ip, lr, lsr #6
     bc4:	7fae032e 	svcvc	0x00ae032e
     bc8:	4b2d4f2e 	blmi	b54888 <__bss_end+0xb5170c>
     bcc:	30312f2f 	eorscc	r2, r1, pc, lsr #30
     bd0:	2e00c603 	cfmadd32cs	mvax0, mvfx12, mvfx0, mvfx3
     bd4:	154a5603 	strbne	r5, [sl, #-1539]	; 0xfffff9fd
     bd8:	666503a2 	strbtvs	r0, [r5], -r2, lsr #7
     bdc:	034a1403 	movteq	r1, #41987	; 0xa403
     be0:	03312e6c 	teqeq	r1, #108, 28	; 0x6c0
     be4:	03502e1a 	cmpeq	r0, #416	; 0x1a0
     be8:	2f672e5d 	svccs	0x00672e5d
     bec:	032f2f2f 			; <UNDEFINED> instruction: 0x032f2f2f
     bf0:	0b032e16 	bleq	cc450 <__bss_end+0xc92d4>
     bf4:	4a5a0366 	bmi	1681994 <__bss_end+0x167e818>
     bf8:	2f2f2f67 	svccs	0x002f2f67
     bfc:	4a21032f 	bmi	8418c0 <__bss_end+0x83e744>
     c00:	2e71032f 	cdpcs	3, 7, cr0, cr1, cr15, {1}
     c04:	164a1203 	strbne	r1, [sl], -r3, lsl #4
     c08:	0402009f 	streq	r0, [r2], #-159	; 0xffffff61
     c0c:	5b034d01 	blpl	d4018 <__bss_end+0xd0e9c>
     c10:	2e1d034a 	cdpcs	3, 1, cr0, cr13, cr10, {2}
     c14:	032e6303 			; <UNDEFINED> instruction: 0x032e6303
     c18:	5b034a25 	blpl	d34b4 <__bss_end+0xd0338>
     c1c:	034c9f66 	movteq	r9, #53094	; 0xcf66
     c20:	02004a24 	andeq	r4, r0, #36, 20	; 0x24000
     c24:	00480204 	subeq	r0, r8, r4, lsl #4
     c28:	32020402 	andcc	r0, r2, #33554432	; 0x2000000
     c2c:	02040200 	andeq	r0, r4, #0, 4
     c30:	069e062a 	ldreq	r0, [lr], sl, lsr #12
     c34:	a3144e34 	tstge	r4, #52, 28	; 0x340
     c38:	ff03a214 			; <UNDEFINED> instruction: 0xff03a214
     c3c:	8903017e 	stmdbhi	r3, {r1, r2, r3, r4, r5, r6, r8}
     c40:	f7032e01 			; <UNDEFINED> instruction: 0xf7032e01
     c44:	81032e7e 	tsthi	r3, lr, ror lr
     c48:	ff034a01 			; <UNDEFINED> instruction: 0xff034a01
     c4c:	93032e7e 	movwls	r2, #15998	; 0x3e7e
     c50:	ed034a01 	vstr	s8, [r3, #-4]
     c54:	96032e7e 			; <UNDEFINED> instruction: 0x96032e7e
     c58:	ef032e01 	svc	0x00032e01
     c5c:	03842e7e 	orreq	r2, r4, #2016	; 0x7e0
     c60:	31820182 	orrcc	r0, r2, r2, lsl #3
     c64:	2f2d4b4b 	svccs	0x002d4b4b
     c68:	032b312f 			; <UNDEFINED> instruction: 0x032b312f
     c6c:	74032e09 	strvc	r2, [r3], #-3593	; 0xfffff1f7
     c70:	4b2d4f2e 	blmi	b54930 <__bss_end+0xb517b4>
     c74:	30312f2f 	eorscc	r2, r1, pc, lsr #30
     c78:	032e5e03 			; <UNDEFINED> instruction: 0x032e5e03
     c7c:	154a00cc 	strbne	r0, [sl, #-204]	; 0xffffff34
     c80:	665903a2 	ldrbvs	r0, [r9], -r2, lsr #7
     c84:	034a2003 	movteq	r2, #40963	; 0xa003
     c88:	03312e60 	teqeq	r1, #96, 28	; 0x600
     c8c:	03502e26 	cmpeq	r0, #608	; 0x260
     c90:	2f672e51 	svccs	0x00672e51
     c94:	032f2f2f 			; <UNDEFINED> instruction: 0x032f2f2f
     c98:	0b032e22 	bleq	cc528 <__bss_end+0xc93ac>
     c9c:	4a4e0366 	bmi	1381a3c <__bss_end+0x137e8c0>
     ca0:	2f2f2f67 	svccs	0x002f2f67
     ca4:	4a2d032f 	bmi	b41968 <__bss_end+0xb3e7ec>
     ca8:	2e71032f 	cdpcs	3, 7, cr0, cr1, cr15, {1}
     cac:	164a1303 	strbne	r1, [sl], -r3, lsl #6
     cb0:	0402009f 	streq	r0, [r2], #-159	; 0xffffff61
     cb4:	4e034d01 	cdpmi	13, 0, cr4, cr3, cr1, {0}
     cb8:	2e2a034a 	cdpcs	3, 2, cr0, cr10, cr10, {2}
     cbc:	032e5603 			; <UNDEFINED> instruction: 0x032e5603
     cc0:	4e034a32 	mcrmi	10, 0, r4, cr3, cr2, {1}
     cc4:	034c9f66 	movteq	r9, #53094	; 0xcf66
     cc8:	02004a31 	andeq	r4, r0, #200704	; 0x31000
     ccc:	00480204 	subeq	r0, r8, r4, lsl #4
     cd0:	32020402 	andcc	r0, r2, #33554432	; 0x2000000
     cd4:	02040200 	andeq	r0, r4, #0, 4
     cd8:	069e062a 	ldreq	r0, [lr], sl, lsr #12
     cdc:	00040234 	andeq	r0, r4, r4, lsr r2
     ce0:	03300101 	teqeq	r0, #1073741824	; 0x40000000
     ce4:	00020000 	andeq	r0, r2, r0
     ce8:	00000141 	andeq	r0, r0, r1, asr #2
     cec:	0efb0102 	cdpeq	1, 15, cr0, cr11, cr2, {0}
     cf0:	0101000d 	tsteq	r1, sp
     cf4:	00000101 	andeq	r0, r0, r1, lsl #2
     cf8:	00000100 	andeq	r0, r0, r0, lsl #2
     cfc:	63726101 	cmnvs	r2, #1073741824	; 0x40000000
     d00:	72612f68 	rsbvc	r2, r1, #104, 30	; 0x1a0
     d04:	616d2f6d 	cmnvs	sp, sp, ror #30
     d08:	732d6863 			; <UNDEFINED> instruction: 0x732d6863
     d0c:	69786e75 	ldmdbvs	r8!, {r0, r2, r4, r5, r6, r9, sl, fp, sp, lr}^
     d10:	2f6d702f 	svccs	0x006d702f
     d14:	6e617473 	mcrvs	4, 3, r7, cr1, cr3, {3}
     d18:	2f796264 	svccs	0x00796264
     d1c:	2f002e2e 	svccs	0x00002e2e
     d20:	656d6f68 	strbvs	r6, [sp, #-3944]!	; 0xfffff098
     d24:	7a6f612f 	bvc	1bd91e8 <__bss_end+0x1bd606c>
     d28:	2f756f68 	svccs	0x00756f68
     d2c:	5f627570 	svcpl	0x00627570
     d30:	6b726f77 	blvs	1c9cb14 <__bss_end+0x1c99998>
     d34:	6f687a2f 	svcvs	0x00687a2f
     d38:	706c676e 	rsbvc	r6, ip, lr, ror #14
     d3c:	646f635f 	strbtvs	r6, [pc], #-863	; d44 <jump_to_resume0_nommu+0x44>
     d40:	72702f65 	rsbsvc	r2, r0, #404	; 0x194
     d44:	63656a6f 	cmnvs	r5, #454656	; 0x6f000
     d48:	31522f74 	cmpcc	r2, r4, ror pc
     d4c:	39445f36 	stmdbcc	r4, {r1, r2, r4, r5, r8, r9, sl, fp, ip, lr}^
     d50:	6e69742f 	cdpvs	4, 6, cr7, cr9, cr15, {1}
     d54:	72702f61 	rsbsvc	r2, r0, #388	; 0x184
     d58:	69756265 	ldmdbvs	r5!, {r0, r2, r5, r6, r9, sp, lr}^
     d5c:	672f746c 	strvs	r7, [pc, -ip, ror #8]!
     d60:	6c2f6363 	stcvs	3, cr6, [pc], #-396	; bdc <mem_preload_tlb+0xac>
     d64:	78756e69 	ldmdavc	r5!, {r0, r3, r5, r6, r9, sl, fp, sp, lr}^
     d68:	3638782d 	ldrtcc	r7, [r8], -sp, lsr #16
     d6c:	6d72612f 	ldfvse	f6, [r2, #-188]!	; 0xffffff44
     d70:	6f6f742f 	svcvs	0x006f742f
     d74:	6168636c 	cmnvs	r8, ip, ror #6
     d78:	732d6e69 			; <UNDEFINED> instruction: 0x732d6e69
     d7c:	69786e75 	ldmdbvs	r8!, {r0, r2, r4, r5, r6, r9, sl, fp, sp, lr}^
     d80:	6f6f742f 	svcvs	0x006f742f
     d84:	6168636c 	cmnvs	r8, ip, ror #6
     d88:	6c2f6e69 	stcvs	14, cr6, [pc], #-420	; bec <mem_preload_tlb+0xbc>
     d8c:	672f6269 	strvs	r6, [pc, -r9, ror #4]!
     d90:	612f6363 			; <UNDEFINED> instruction: 0x612f6363
     d94:	6f2d6d72 	svcvs	0x002d6d72
     d98:	776e6570 			; <UNDEFINED> instruction: 0x776e6570
     d9c:	6c2d7472 	cfstrsvs	mvf7, [sp], #-456	; 0xfffffe38
     da0:	78756e69 	ldmdavc	r5!, {r0, r3, r5, r6, r9, sl, fp, sp, lr}^
     da4:	73756d2d 	cmnvc	r5, #2880	; 0xb40
     da8:	756e676c 	strbvc	r6, [lr, #-1900]!	; 0xfffff894
     dac:	69626165 	stmdbvs	r2!, {r0, r2, r5, r6, r8, sp, lr}^
     db0:	322e352f 	eorcc	r3, lr, #197132288	; 0xbc00000
     db4:	692f302e 	stmdbvs	pc!, {r1, r2, r3, r5, ip, sp}	; <UNPREDICTABLE>
     db8:	756c636e 	strbvc	r6, [ip, #-878]!	; 0xfffffc92
     dbc:	69006564 	stmdbvs	r0, {r2, r5, r6, r8, sl, sp, lr}
     dc0:	756c636e 	strbvc	r6, [ip, #-878]!	; 0xfffffc92
     dc4:	6c2f6564 	cfstr32vs	mvfx6, [pc], #-400	; c3c <disable_mmu>
     dc8:	78756e69 	ldmdavc	r5!, {r0, r3, r5, r6, r9, sl, fp, sp, lr}^
     dcc:	776f702f 	strbvc	r7, [pc, -pc, lsr #32]!
     dd0:	00007265 	andeq	r7, r0, r5, ror #4
     dd4:	5f6d656d 	svcpl	0x006d656d
     dd8:	6e697270 	mcrvs	2, 3, r7, cr9, cr0, {3}
     ddc:	632e6b74 			; <UNDEFINED> instruction: 0x632e6b74
     de0:	00000100 	andeq	r0, r0, r0, lsl #2
     de4:	745f6d70 	ldrbvc	r6, [pc], #-3440	; dec <__save_processor_state+0x3c>
     de8:	73657079 	cmnvc	r5, #121	; 0x79
     dec:	0100682e 	tsteq	r0, lr, lsr #16
     df0:	74730000 	ldrbtvc	r0, [r3], #-0
     df4:	67726164 	ldrbvs	r6, [r2, -r4, ror #2]!
     df8:	0200682e 	andeq	r6, r0, #3014656	; 0x2e0000
     dfc:	656d0000 	strbvs	r0, [sp, #-0]!
     e00:	65735f6d 	ldrbvs	r5, [r3, #-3949]!	; 0xfffff093
     e04:	6c616972 	stclvs	9, cr6, [r1], #-456	; 0xfffffe38
     e08:	0100682e 	tsteq	r0, lr, lsr #16
     e0c:	78610000 	stmdavc	r1!, {}^	; <UNPREDICTABLE>
     e10:	65645f70 	strbvs	r5, [r4, #-3952]!	; 0xfffff090
     e14:	646e6570 	strbtvs	r6, [lr], #-1392	; 0xfffffa90
     e18:	0300682e 	movweq	r6, #2094	; 0x82e
     e1c:	623c0000 	eorsvs	r0, ip, #0
     e20:	746c6975 	strbtvc	r6, [ip], #-2421	; 0xfffff68b
     e24:	3e6e692d 	cdpcc	9, 6, cr6, cr14, cr13, {1}
     e28:	00000000 	andeq	r0, r0, r0
     e2c:	02050000 	andeq	r0, r5, #0
     e30:	00001a24 	andeq	r1, r0, r4, lsr #20
     e34:	0101d803 	tsteq	r1, r3, lsl #16
     e38:	2a2c3016 	bcs	b0ce98 <__bss_end+0xb09d1c>
     e3c:	4c322a86 	ldcmi	10, cr2, [r2], #-536	; 0xfffffde8
     e40:	0052682c 	subseq	r6, r2, ip, lsr #16
     e44:	31030402 	tstcc	r3, r2, lsl #8
     e48:	03040200 	movweq	r0, #16896	; 0x4200
     e4c:	04020083 	streq	r0, [r2], #-131	; 0xffffff7d
     e50:	02002d03 	andeq	r2, r0, #3, 26	; 0xc0
     e54:	002f0304 	eoreq	r0, pc, r4, lsl #6
     e58:	2d030402 	cfstrscs	mvf0, [r3, #-8]
     e5c:	03040200 	movweq	r0, #16896	; 0x4200
     e60:	0402004b 	streq	r0, [r2], #-75	; 0xffffffb5
     e64:	02002a03 	andeq	r2, r0, #12288	; 0x3000
     e68:	00fa0304 	rscseq	r0, sl, r4, lsl #6
     e6c:	30030402 	andcc	r0, r3, r2, lsl #8
     e70:	03040200 	movweq	r0, #16896	; 0x4200
     e74:	2b4d332c 	blcs	134db2c <__bss_end+0x134a9b0>
     e78:	4a6b0331 	bmi	1ac1b44 <__bss_end+0x1abe9c8>
     e7c:	032e1503 			; <UNDEFINED> instruction: 0x032e1503
     e80:	032d2e6c 			; <UNDEFINED> instruction: 0x032d2e6c
     e84:	fe032e15 	mcr2	14, 0, r2, cr3, cr5, {0}
     e88:	47314a00 	ldrmi	r4, [r1, -r0, lsl #20]!
     e8c:	2d322b69 	fldmdbxcs	r2!, {d2-d53}	;@ Deprecated
     e90:	2e78036e 	cdpcs	3, 7, cr0, cr8, cr14, {3}
     e94:	7df2032f 	ldclvc	3, cr0, [r2, #188]!	; 0xbc
     e98:	0291032e 	addseq	r0, r1, #-1207959552	; 0xb8000000
     e9c:	7def032e 	stclvc	3, cr0, [pc, #184]!	; f5c <__save_processor_state+0x1ac>
     ea0:	0291032e 	addseq	r0, r1, #-1207959552	; 0xb8000000
     ea4:	7df503ba 	ldclvc	3, cr0, [r5, #744]!	; 0x2e8
     ea8:	92034866 	andls	r4, r3, #6684672	; 0x660000
     eac:	f2039e02 	vceq.f32	d9, d3, d2
     eb0:	8e034a7d 	mcrhi	10, 0, r4, cr3, cr13, {3}
     eb4:	a8032e02 	stmdage	r3, {r1, r9, sl, fp, sp}
     eb8:	03344a7e 	teqeq	r4, #516096	; 0x7e000
     ebc:	4c6c4a7a 	stclmi	10, cr4, [ip], #-488	; 0xfffffe18
     ec0:	1203682c 	andne	r6, r3, #44, 16	; 0x2c0000
     ec4:	2e7a032e 	cdpcs	3, 7, cr0, cr10, cr14, {1}
     ec8:	2e70032d 	cdpcs	3, 7, cr0, cr0, cr13, {1}
     ecc:	2b4a1703 	blcs	1286ae0 <__bss_end+0x1283964>
     ed0:	7f314769 	svcvc	0x00314769
     ed4:	09037f31 	stmdbeq	r3, {r0, r4, r5, r8, r9, sl, fp, ip, sp, lr}
     ed8:	30f44d2e 	rscscc	r4, r4, lr, lsr #26
     edc:	2b4d4f2c 	blcs	1354b94 <__bss_end+0x1351a18>
     ee0:	4a5e0331 	bmi	1781bac <__bss_end+0x177ea30>
     ee4:	032e2203 			; <UNDEFINED> instruction: 0x032e2203
     ee8:	032d2e5f 			; <UNDEFINED> instruction: 0x032d2e5f
     eec:	39032e22 	stmdbcc	r3, {r1, r5, r9, sl, fp, sp}
     ef0:	660c034a 	strvs	r0, [ip], -sl, asr #6
     ef4:	2e73032f 	cdpcs	3, 7, cr0, cr3, cr15, {1}
     ef8:	2f2e0c03 	svccs	0x002e0c03
     efc:	03822903 	orreq	r2, r2, #49152	; 0xc000
     f00:	bf032e18 	svclt	0x00032e18
     f04:	cb032e7f 	blgt	cc908 <__bss_end+0xc978c>
     f08:	b5036600 	strlt	r6, [r3, #-1536]	; 0xfffffa00
     f0c:	034c2e7f 	movteq	r2, #52863	; 0xce7f
     f10:	032e00c6 			; <UNDEFINED> instruction: 0x032e00c6
     f14:	314a7fba 	strhcc	r7, [sl, #-250]	; 0xffffff06
     f18:	33463265 	movtcc	r3, #25189	; 0x6265
     f1c:	6f033032 	svcvs	0x00033032
     f20:	03013402 	movweq	r3, #5122	; 0x1402
     f24:	2c4a00d4 	mcrrcs	0, 13, r0, sl, cr4
     f28:	31302c30 	teqcc	r0, r0, lsr ip
     f2c:	039e5403 	orrseq	r5, lr, #50331648	; 0x3000000
     f30:	03d67de6 	bicseq	r7, r6, #14720	; 0x3980
     f34:	03f2029c 	mvnseq	r0, #156, 4	; 0xc0000009
     f38:	03d67df5 	bicseq	r7, r6, #15680	; 0x3d40
     f3c:	2f82028d 	svccs	0x0082028d
     f40:	032e0b03 			; <UNDEFINED> instruction: 0x032e0b03
     f44:	03ba7de7 			; <UNDEFINED> instruction: 0x03ba7de7
     f48:	ac03826f 	sfmge	f0, 1, [r3], {111}	; 0x6f
     f4c:	034bd602 	movteq	sp, #46594	; 0xb602
     f50:	f0032e63 			; <UNDEFINED> instruction: 0xf0032e63
     f54:	9203d67d 	andls	sp, r3, #131072000	; 0x7d00000
     f58:	ff03f202 			; <UNDEFINED> instruction: 0xff03f202
     f5c:	8d03d67d 	stchi	6, cr13, [r3, #-500]	; 0xfffffe0c
     f60:	67038202 	strvs	r8, [r3, -r2, lsl #4]
     f64:	7dfb034a 	ldclvc	3, cr0, [fp, #296]!	; 0x128
     f68:	028703ba 	addeq	r0, r7, #-402653182	; 0xe8000002
     f6c:	7e8a03f2 	mcrvc	3, 4, r0, cr10, cr2, {7}
     f70:	028d03d6 	addeq	r0, sp, #1476395011	; 0x58000003
     f74:	039f5082 	orrseq	r5, pc, #130	; 0x82
     f78:	034b2e0d 	movteq	r2, #48653	; 0xbe0d
     f7c:	03827dcd 	orreq	r7, r2, #13120	; 0x3340
     f80:	03ba02d9 			; <UNDEFINED> instruction: 0x03ba02d9
     f84:	032f660c 			; <UNDEFINED> instruction: 0x032f660c
     f88:	0c032e73 	stceq	14, cr2, [r3], {115}	; 0x73
     f8c:	29032f2e 	stmdbcs	r3, {r1, r2, r3, r5, r8, r9, sl, fp, sp}
     f90:	2e180382 	cdpcs	3, 1, cr0, cr8, cr2, {4}
     f94:	2e7fbf03 	cdpcs	15, 7, cr11, cr15, cr3, {0}
     f98:	6600cb03 	strvs	ip, [r0], -r3, lsl #22
     f9c:	2e7fb503 	cdpcs	5, 7, cr11, cr15, cr3, {0}
     fa0:	00c6034c 	sbceq	r0, r6, ip, asr #6
     fa4:	7fba032e 	svcvc	0x00ba032e
     fa8:	3265314a 	rsbcc	r3, r5, #-2147483630	; 0x80000012
     fac:	30323346 	eorscc	r3, r2, r6, asr #6
     fb0:	34026f03 	strcc	r6, [r2], #-3843	; 0xfffff0fd
     fb4:	00d40301 	sbcseq	r0, r4, r1, lsl #6
     fb8:	2c302c4a 	ldccs	12, cr2, [r0], #-296	; 0xfffffed8
     fbc:	54033130 	strpl	r3, [r3], #-304	; 0xfffffed0
     fc0:	7cf1039e 	ldclvc	3, cr0, [r1], #632	; 0x278
     fc4:	039103d6 	orrseq	r0, r1, #1476395011	; 0x58000003
     fc8:	7d8003f2 	stcvc	3, cr0, [r0, #968]	; 0x3c8
     fcc:	038203d6 	orreq	r0, r2, #1476395011	; 0x58000003
     fd0:	0b032f82 	bleq	ccde0 <__bss_end+0xc9c64>
     fd4:	7cf2032e 	ldclvc	3, cr0, [r2], #184	; 0xb8
     fd8:	826f03ba 	rsbhi	r0, pc, #-402653182	; 0xe8000002
     fdc:	d603a103 	strle	sl, [r3], -r3, lsl #2
     fe0:	2e63034b 	cdpcs	3, 6, cr0, cr3, cr11, {2}
     fe4:	d67cfb03 	ldrbtle	pc, [ip], -r3, lsl #22	; <UNPREDICTABLE>
     fe8:	f2038703 	vabd.s8	d8, d3, d3
     fec:	d67d8a03 	ldrbtle	r8, [sp], -r3, lsl #20
     ff0:	82038203 	andhi	r8, r3, #805306368	; 0x30000000
     ff4:	034a6703 	movteq	r6, #42755	; 0xa703
     ff8:	03ba7d86 			; <UNDEFINED> instruction: 0x03ba7d86
     ffc:	03f202fc 	mvnseq	r0, #252, 4	; 0xc000000f
    1000:	03d67d95 	bicseq	r7, r6, #9536	; 0x2540
    1004:	50820382 	addpl	r0, r2, r2, lsl #7
    1008:	2e0d039f 	mcrcs	3, 0, r0, cr13, cr15, {4}
    100c:	7cd8034b 	ldclvc	3, cr0, [r8], {75}	; 0x4b
    1010:	000c0282 	andeq	r0, ip, r2, lsl #5
    1014:	00a90101 	adceq	r0, r9, r1, lsl #2
    1018:	00020000 	andeq	r0, r2, r0
    101c:	00000045 	andeq	r0, r0, r5, asr #32
    1020:	0efb0102 	cdpeq	1, 15, cr0, cr11, cr2, {0}
    1024:	0101000d 	tsteq	r1, sp
    1028:	00000101 	andeq	r0, r0, r1, lsl #2
    102c:	00000100 	andeq	r0, r0, r0, lsl #2
    1030:	63726101 	cmnvs	r2, #1073741824	; 0x40000000
    1034:	72612f68 	rsbvc	r2, r1, #104, 30	; 0x1a0
    1038:	616d2f6d 	cmnvs	sp, sp, ror #30
    103c:	732d6863 			; <UNDEFINED> instruction: 0x732d6863
    1040:	69786e75 	ldmdbvs	r8!, {r0, r2, r4, r5, r6, r9, sl, fp, sp, lr}^
    1044:	2f6d702f 	svccs	0x006d702f
    1048:	6e617473 	mcrvs	4, 3, r7, cr1, cr3, {3}
    104c:	2f796264 	svccs	0x00796264
    1050:	00002e2e 	andeq	r2, r0, lr, lsr #28
    1054:	5f6d656d 	svcpl	0x006d656d
    1058:	6c766964 	ldclvs	9, cr6, [r6], #-400	; 0xfffffe70
    105c:	532e6269 			; <UNDEFINED> instruction: 0x532e6269
    1060:	00000100 	andeq	r0, r0, r0, lsl #2
    1064:	02050000 	andeq	r0, r5, #0
    1068:	00002274 	andeq	r2, r0, r4, ror r2
    106c:	2f010e03 	svccs	0x00010e03
    1070:	2f2f302f 	svccs	0x002f302f
    1074:	2f302f2f 	svccs	0x00302f2f
    1078:	032f2f34 			; <UNDEFINED> instruction: 0x032f2f34
    107c:	2f2e00d5 	svccs	0x002e00d5
    1080:	2f332f2f 	svccs	0x00332f2f
    1084:	2f2f2f2f 	svccs	0x002f2f2f
    1088:	2e02302f 	cdpcs	0, 0, cr3, cr2, cr15, {1}
    108c:	2f302f14 	svccs	0x00302f14
    1090:	2f4c302f 	svccs	0x004c302f
    1094:	2f2f2f34 	svccs	0x002f2f34
    1098:	2f2f2f2f 	svccs	0x002f2f2f
    109c:	2f2f2f2f 	svccs	0x002f2f2f
    10a0:	142e0230 	strtne	r0, [lr], #-560	; 0xfffffdd0
    10a4:	2f302f2f 	svccs	0x00302f2f
    10a8:	2f2f302f 	svccs	0x002f302f
    10ac:	2f4c302f 	svccs	0x004c302f
    10b0:	2f332f2f 	svccs	0x00332f2f
    10b4:	2f2f2f2f 	svccs	0x002f2f2f
    10b8:	2f2f2f33 	svccs	0x002f2f33
    10bc:	02022f2f 	andeq	r2, r2, #47, 30	; 0xbc
    10c0:	90010100 	andls	r0, r1, r0, lsl #2
    10c4:	02000000 	andeq	r0, r0, #0
    10c8:	00006400 	andeq	r6, r0, r0, lsl #8
    10cc:	fb010200 	blx	418d6 <__bss_end+0x3e75a>
    10d0:	01000d0e 	tsteq	r0, lr, lsl #26
    10d4:	00010101 	andeq	r0, r1, r1, lsl #2
    10d8:	00010000 	andeq	r0, r1, r0
    10dc:	72610100 	rsbvc	r0, r1, #0, 2
    10e0:	612f6863 			; <UNDEFINED> instruction: 0x612f6863
    10e4:	6d2f6d72 	stcvs	13, cr6, [pc, #-456]!	; f24 <__save_processor_state+0x174>
    10e8:	2d686361 	stclcs	3, cr6, [r8, #-388]!	; 0xfffffe7c
    10ec:	786e7573 	stmdavc	lr!, {r0, r1, r4, r5, r6, r8, sl, ip, sp, lr}^
    10f0:	6d702f69 	ldclvs	15, cr2, [r0, #-420]!	; 0xfffffe5c
    10f4:	6174732f 	cmnvs	r4, pc, lsr #6
    10f8:	7962646e 	stmdbvc	r2!, {r1, r2, r3, r5, r6, sl, sp, lr}^
    10fc:	002e2e2f 	eoreq	r2, lr, pc, lsr #28
    1100:	6d656d00 	stclvs	13, cr6, [r5, #-0]
    1104:	7669645f 			; <UNDEFINED> instruction: 0x7669645f
    1108:	6362696c 	cmnvs	r2, #108, 18	; 0x1b0000
    110c:	0100632e 	tsteq	r0, lr, lsr #6
    1110:	6d700000 	ldclvs	0, cr0, [r0, #-0]
    1114:	7079745f 	rsbsvc	r7, r9, pc, asr r4
    1118:	682e7365 	stmdavs	lr!, {r0, r2, r5, r6, r8, r9, ip, sp, lr}
    111c:	00000100 	andeq	r0, r0, r0, lsl #2
    1120:	5f6d656d 	svcpl	0x006d656d
    1124:	6e697270 	mcrvs	2, 3, r7, cr9, cr0, {3}
    1128:	682e6b74 	stmdavs	lr!, {r2, r4, r5, r6, r8, r9, fp, sp, lr}
    112c:	00000100 	andeq	r0, r0, r0, lsl #2
    1130:	02050000 	andeq	r0, r5, #0
    1134:	00002450 	andeq	r2, r0, r0, asr r4
    1138:	13010d03 	movwne	r0, #7427	; 0x1d03
    113c:	6950176a 	ldmdbvs	r0, {r1, r3, r5, r6, r8, r9, sl, ip}^
    1140:	3531522b 	ldrcc	r5, [r1, #-555]!	; 0xfffffdd5
    1144:	2f2e7803 	svccs	0x002e7803
    1148:	302c3232 	eorcc	r3, ip, r2, lsr r2
    114c:	03666a03 	cmneq	r6, #12288	; 0x3000
    1150:	02022e19 	andeq	r2, r2, #400	; 0x190
    1154:	22010100 	andcs	r0, r1, #0, 2
    1158:	02000001 	andeq	r0, r0, #1
    115c:	00009100 	andeq	r9, r0, r0, lsl #2
    1160:	fb010200 	blx	4196a <__bss_end+0x3e7ee>
    1164:	01000d0e 	tsteq	r0, lr, lsl #26
    1168:	00010101 	andeq	r0, r1, r1, lsl #2
    116c:	00010000 	andeq	r0, r1, r0
    1170:	72610100 	rsbvc	r0, r1, #0, 2
    1174:	612f6863 			; <UNDEFINED> instruction: 0x612f6863
    1178:	6d2f6d72 	stcvs	13, cr6, [pc, #-456]!	; fb8 <__save_processor_state+0x208>
    117c:	2d686361 	stclcs	3, cr6, [r8, #-388]!	; 0xfffffe7c
    1180:	786e7573 	stmdavc	lr!, {r0, r1, r4, r5, r6, r8, sl, ip, sp, lr}^
    1184:	6d702f69 	ldclvs	15, cr2, [r0, #-420]!	; 0xfffffe5c
    1188:	6174732f 	cmnvs	r4, pc, lsr #6
    118c:	7962646e 	stmdbvc	r2!, {r1, r2, r3, r5, r6, sl, sp, lr}^
    1190:	002e2e2f 	eoreq	r2, lr, pc, lsr #28
    1194:	6c636e69 	stclvs	14, cr6, [r3], #-420	; 0xfffffe5c
    1198:	2f656475 	svccs	0x00656475
    119c:	756e696c 	strbvc	r6, [lr, #-2412]!	; 0xfffff694
    11a0:	6f702f78 	svcvs	0x00702f78
    11a4:	00726577 	rsbseq	r6, r2, r7, ror r5
    11a8:	6d656d00 	stclvs	13, cr6, [r5, #-0]
    11ac:	746e695f 	strbtvc	r6, [lr], #-2399	; 0xfffff6a1
    11b0:	0100632e 	tsteq	r0, lr, lsr #6
    11b4:	6d700000 	ldclvs	0, cr0, [r0, #-0]
    11b8:	7079745f 	rsbsvc	r7, r9, pc, asr r4
    11bc:	682e7365 	stmdavs	lr!, {r0, r2, r5, r6, r8, r9, ip, sp, lr}
    11c0:	00000100 	andeq	r0, r0, r0, lsl #2
    11c4:	5f6d656d 	svcpl	0x006d656d
    11c8:	2e746e69 	cdpcs	14, 7, cr6, cr4, cr9, {3}
    11cc:	00010068 	andeq	r0, r1, r8, rrx
    11d0:	70786100 	rsbsvc	r6, r8, r0, lsl #2
    11d4:	7065645f 	rsbvc	r6, r5, pc, asr r4
    11d8:	2e646e65 	cdpcs	14, 6, cr6, cr4, cr5, {3}
    11dc:	00020068 	andeq	r0, r2, r8, rrx
    11e0:	6d656d00 	stclvs	13, cr6, [r5, #-0]
    11e4:	6972705f 	ldmdbvs	r2!, {r0, r1, r2, r3, r4, r6, ip, sp, lr}^
    11e8:	2e6b746e 	cdpcs	4, 6, cr7, cr11, cr14, {3}
    11ec:	00010068 	andeq	r0, r1, r8, rrx
    11f0:	05000000 	streq	r0, [r0, #-0]
    11f4:	0024b002 	eoreq	fp, r4, r2
    11f8:	01220300 			; <UNDEFINED> instruction: 0x01220300
    11fc:	4a0b0314 	bmi	2c1e54 <__bss_end+0x2becd8>
    1200:	032e7503 			; <UNDEFINED> instruction: 0x032e7503
    1204:	032f660b 			; <UNDEFINED> instruction: 0x032f660b
    1208:	02002e74 	andeq	r2, r0, #116, 28	; 0x740
    120c:	0c030304 	stceq	3, cr0, [r3], {4}
    1210:	0402004a 	streq	r0, [r2], #-74	; 0xffffffb6
    1214:	02002d03 	andeq	r2, r0, #3, 26	; 0xc0
    1218:	0b030304 	bleq	c1e30 <__bss_end+0xbecb4>
    121c:	04020066 	streq	r0, [r2], #-102	; 0xffffff9a
    1220:	02006703 	andeq	r6, r0, #786432	; 0xc0000
    1224:	4e490304 	cdpmi	3, 4, cr0, cr9, cr4, {0}
    1228:	4d4c2c30 	stclmi	12, cr2, [ip, #-192]	; 0xffffff40
    122c:	032e5f03 			; <UNDEFINED> instruction: 0x032e5f03
    1230:	2f2d2e21 	svccs	0x002d2e21
    1234:	820f0333 	andhi	r0, pc, #-872415232	; 0xcc000000
    1238:	04020068 	streq	r0, [r2], #-104	; 0xffffff98
    123c:	0200a203 	andeq	sl, r0, #805306368	; 0x30000000
    1240:	00670304 	rsbeq	r0, r7, r4, lsl #6
    1244:	80030402 	andhi	r0, r3, r2, lsl #8
    1248:	660f0350 			; <UNDEFINED> instruction: 0x660f0350
    124c:	2e7a0319 	mrccs	3, 3, r0, cr10, cr9, {0}
    1250:	78038a31 	stmdavc	r3, {r0, r4, r5, r9, fp, pc}
    1254:	7603362e 	strvc	r3, [r3], -lr, lsr #12
    1258:	2e0a032e 	cdpcs	3, 0, cr0, cr10, cr14, {1}
    125c:	2e7a036c 	cdpcs	3, 7, cr0, cr10, cr12, {3}
    1260:	0351322a 	cmpeq	r1, #-1610612734	; 0xa0000002
    1264:	31172e0f 	tstcc	r7, pc, lsl #28
    1268:	2c31472b 	ldccs	7, cr4, [r1], #-172	; 0xffffff54
    126c:	87323130 			; <UNDEFINED> instruction: 0x87323130
    1270:	78033329 	stmdavc	r3, {r0, r3, r5, r8, r9, ip, sp}
    1274:	2e090382 	cdpcs	3, 0, cr0, cr9, cr2, {4}
    1278:	01000202 	tsteq	r0, r2, lsl #4
    127c:	0000a101 	andeq	sl, r0, r1, lsl #2
    1280:	5f000200 	svcpl	0x00000200
    1284:	02000000 	andeq	r0, r0, #0
    1288:	0d0efb01 	vstreq	d15, [lr, #-4]
    128c:	01010100 	mrseq	r0, (UNDEF: 17)
    1290:	00000001 	andeq	r0, r0, r1
    1294:	01000001 	tsteq	r0, r1
    1298:	68637261 	stmdavs	r3!, {r0, r5, r6, r9, ip, sp, lr}^
    129c:	6d72612f 	ldfvse	f6, [r2, #-188]!	; 0xffffff44
    12a0:	63616d2f 	cmnvs	r1, #3008	; 0xbc0
    12a4:	75732d68 	ldrbvc	r2, [r3, #-3432]!	; 0xfffff298
    12a8:	2f69786e 	svccs	0x0069786e
    12ac:	732f6d70 			; <UNDEFINED> instruction: 0x732f6d70
    12b0:	646e6174 	strbtvs	r6, [lr], #-372	; 0xfffffe8c
    12b4:	2e2f7962 	cdpcs	9, 2, cr7, cr15, cr2, {3}
    12b8:	6d00002e 	stcvs	0, cr0, [r0, #-184]	; 0xffffff48
    12bc:	675f6d65 	ldrbvs	r6, [pc, -r5, ror #26]
    12c0:	2e6f6970 	mcrcs	9, 3, r6, cr15, cr0, {3}
    12c4:	00010063 	andeq	r0, r1, r3, rrx
    12c8:	5f6d7000 	svcpl	0x006d7000
    12cc:	65707974 	ldrbvs	r7, [r0, #-2420]!	; 0xfffff68c
    12d0:	00682e73 	rsbeq	r2, r8, r3, ror lr
    12d4:	6d000001 	stcvs	0, cr0, [r0, #-4]
    12d8:	675f6d65 	ldrbvs	r6, [pc, -r5, ror #26]
    12dc:	2e6f6970 	mcrcs	9, 3, r6, cr15, cr0, {3}
    12e0:	00010068 	andeq	r0, r1, r8, rrx
    12e4:	05000000 	streq	r0, [r0, #-0]
    12e8:	00263002 	eoreq	r3, r6, r2
    12ec:	01190300 	tsteq	r9, r0, lsl #6
    12f0:	32463201 	subcc	r3, r6, #268435456	; 0x10000000
    12f4:	03040200 	movweq	r0, #16896	; 0x4200
    12f8:	0402002f 	streq	r0, [r2], #-47	; 0xffffffd1
    12fc:	02002d03 	andeq	r2, r0, #3, 26	; 0xc0
    1300:	002f0304 	eoreq	r0, pc, r4, lsl #6
    1304:	2d030402 	cfstrscs	mvf0, [r3, #-8]
    1308:	4a0e0332 	bmi	381fd8 <__bss_end+0x37ee5c>
    130c:	32463201 	subcc	r3, r6, #268435456	; 0x10000000
    1310:	03040200 	movweq	r0, #16896	; 0x4200
    1314:	0402002f 	streq	r0, [r2], #-47	; 0xffffffd1
    1318:	0c034903 	stceq	9, cr4, [r3], {3}
    131c:	0004024a 	andeq	r0, r4, sl, asr #4
    1320:	00fc0101 	rscseq	r0, ip, r1, lsl #2
    1324:	00020000 	andeq	r0, r2, r0
    1328:	00000081 	andeq	r0, r0, r1, lsl #1
    132c:	0efb0102 	cdpeq	1, 15, cr0, cr11, cr2, {0}
    1330:	0101000d 	tsteq	r1, sp
    1334:	00000101 	andeq	r0, r0, r1, lsl #2
    1338:	00000100 	andeq	r0, r0, r0, lsl #2
    133c:	63726101 	cmnvs	r2, #1073741824	; 0x40000000
    1340:	72612f68 	rsbvc	r2, r1, #104, 30	; 0x1a0
    1344:	616d2f6d 	cmnvs	sp, sp, ror #30
    1348:	732d6863 			; <UNDEFINED> instruction: 0x732d6863
    134c:	69786e75 	ldmdbvs	r8!, {r0, r2, r4, r5, r6, r9, sl, fp, sp, lr}^
    1350:	2f6d702f 	svccs	0x006d702f
    1354:	6e617473 	mcrvs	4, 3, r7, cr1, cr3, {3}
    1358:	2f796264 	svccs	0x00796264
    135c:	69002e2e 	stmdbvs	r0, {r1, r2, r3, r5, r9, sl, fp, sp}
    1360:	756c636e 	strbvc	r6, [ip, #-878]!	; 0xfffffc92
    1364:	6c2f6564 	cfstr32vs	mvfx6, [pc], #-400	; 11dc <__restore_processor_state+0x28>
    1368:	78756e69 	ldmdavc	r5!, {r0, r3, r5, r6, r9, sl, fp, sp, lr}^
    136c:	776f702f 	strbvc	r7, [pc, -pc, lsr #32]!
    1370:	00007265 	andeq	r7, r0, r5, ror #4
    1374:	5f6d656d 	svcpl	0x006d656d
    1378:	2e726d74 	mrccs	13, 3, r6, cr2, cr4, {3}
    137c:	00010063 	andeq	r0, r1, r3, rrx
    1380:	5f6d7000 	svcpl	0x006d7000
    1384:	65707974 	ldrbvs	r7, [r0, #-2420]!	; 0xfffff68c
    1388:	00682e73 	rsbeq	r2, r8, r3, ror lr
    138c:	6d000001 	stcvs	0, cr0, [r0, #-4]
    1390:	745f6d65 	ldrbvc	r6, [pc], #-3429	; 1398 <__restore_processor_state+0x1e4>
    1394:	682e726d 	stmdavs	lr!, {r0, r2, r3, r5, r6, r9, ip, sp, lr}
    1398:	00000100 	andeq	r0, r0, r0, lsl #2
    139c:	5f707861 	svcpl	0x00707861
    13a0:	65706564 	ldrbvs	r6, [r0, #-1380]!	; 0xfffffa9c
    13a4:	682e646e 	stmdavs	lr!, {r1, r2, r3, r5, r6, sl, sp, lr}
    13a8:	00000200 	andeq	r0, r0, r0, lsl #4
    13ac:	02050000 	andeq	r0, r5, #0
    13b0:	00002688 	andeq	r2, r0, r8, lsl #13
    13b4:	15011b03 	strne	r1, [r1, #-2819]	; 0xfffff4fd
    13b8:	032b3463 			; <UNDEFINED> instruction: 0x032b3463
    13bc:	77034a0c 	strvc	r4, [r3, -ip, lsl #20]
    13c0:	4b4b2f2e 	blmi	12cd080 <__bss_end+0x12c9f04>
    13c4:	4d4b4b4b 	vstrmi	d20, [fp, #-300]	; 0xfffffed4
    13c8:	142e0f03 	strtne	r0, [lr], #-3843	; 0xfffff0fd
    13cc:	09033064 	stmdbeq	r3, {r2, r5, r6, ip, sp}
    13d0:	2e77032e 	cdpcs	3, 7, cr0, cr7, cr14, {1}
    13d4:	4b4b4b2f 	blmi	12d4098 <__bss_end+0x12d0f1c>
    13d8:	034d4b4b 	movteq	r4, #56139	; 0xdb4b
    13dc:	84142e0f 	ldrhi	r2, [r4], #-3599	; 0xfffff1f1
    13e0:	2e790333 	mrccs	3, 3, r0, cr9, cr3, {1}
    13e4:	4d4b2f30 	stclmi	15, cr2, [fp, #-192]	; 0xffffff40
    13e8:	132e0f03 			; <UNDEFINED> instruction: 0x132e0f03
    13ec:	2f4b2933 	svccs	0x004b2933
    13f0:	312f2f2c 			; <UNDEFINED> instruction: 0x312f2f2c
    13f4:	152e1203 	strne	r1, [lr, #-515]!	; 0xfffffdfd
    13f8:	689f2b31 	ldmvs	pc, {r0, r4, r5, r8, r9, fp, sp}	; <UNPREDICTABLE>
    13fc:	15036931 	strne	r6, [r3, #-2353]	; 0xfffff6cf
    1400:	69bb1482 	ldmibvs	fp!, {r1, r7, sl, ip}
    1404:	82120369 	andshi	r0, r2, #-1543503871	; 0xa4000001
    1408:	6c2a3214 	sfmvs	f3, 4, [sl], #-80	; 0xffffffb0
    140c:	352e7803 	strcc	r7, [lr, #-2051]!	; 0xfffff7fd
    1410:	2e0b0329 	cdpcs	3, 0, cr0, cr11, cr9, {1}
    1414:	312e7603 			; <UNDEFINED> instruction: 0x312e7603
    1418:	672f2f2f 	strvs	r2, [pc, -pc, lsr #30]!
    141c:	00020269 	andeq	r0, r2, r9, ror #4
    1420:	00190101 	andseq	r0, r9, r1, lsl #2
    1424:	00020000 	andeq	r0, r2, r0
    1428:	00000013 	andeq	r0, r0, r3, lsl r0
    142c:	0efb0102 	cdpeq	1, 15, cr0, cr11, cr2, {0}
    1430:	0101000d 	tsteq	r1, sp
    1434:	00000101 	andeq	r0, r0, r1, lsl #2
    1438:	00000100 	andeq	r0, r0, r0, lsl #2
    143c:	19000001 	stmdbne	r0, {r0}
    1440:	02000000 	andeq	r0, r0, #0
    1444:	00001300 	andeq	r1, r0, r0, lsl #6
    1448:	fb010200 	blx	41c52 <__bss_end+0x3ead6>
    144c:	01000d0e 	tsteq	r0, lr, lsl #26
    1450:	00010101 	andeq	r0, r1, r1, lsl #2
    1454:	00010000 	andeq	r0, r1, r0
    1458:	00000100 	andeq	r0, r0, r0, lsl #2
    145c:	000001cb 	andeq	r0, r0, fp, asr #3
    1460:	00ba0002 	adcseq	r0, sl, r2
    1464:	01020000 	mrseq	r0, (UNDEF: 2)
    1468:	000d0efb 	strdeq	r0, [sp], -fp
    146c:	01010101 	tsteq	r1, r1, lsl #2
    1470:	01000000 	mrseq	r0, (UNDEF: 0)
    1474:	61010000 	mrsvs	r0, (UNDEF: 1)
    1478:	2f686372 	svccs	0x00686372
    147c:	2f6d7261 	svccs	0x006d7261
    1480:	6863616d 	stmdavs	r3!, {r0, r2, r3, r5, r6, r8, sp, lr}^
    1484:	6e75732d 	cdpvs	3, 7, cr7, cr5, cr13, {1}
    1488:	702f6978 	eorvc	r6, pc, r8, ror r9	; <UNPREDICTABLE>
    148c:	74732f6d 	ldrbtvc	r2, [r3], #-3949	; 0xfffff093
    1490:	62646e61 	rsbvs	r6, r4, #1552	; 0x610
    1494:	2e2e2f79 	mcrcs	15, 1, r2, cr14, cr9, {3}
    1498:	636e6900 	cmnvs	lr, #0, 18
    149c:	6564756c 	strbvs	r7, [r4, #-1388]!	; 0xfffffa94
    14a0:	6e696c2f 	cdpvs	12, 6, cr6, cr9, cr15, {1}
    14a4:	702f7875 	eorvc	r7, pc, r5, ror r8	; <UNPREDICTABLE>
    14a8:	7265776f 	rsbvc	r7, r5, #29097984	; 0x1bc0000
    14ac:	656d0000 	strbvs	r0, [sp, #-0]!
    14b0:	6c635f6d 	stclvs	15, cr5, [r3], #-436	; 0xfffffe4c
    14b4:	00632e6b 	rsbeq	r2, r3, fp, ror #28
    14b8:	70000001 	andvc	r0, r0, r1
    14bc:	79745f6d 	ldmdbvc	r4!, {r0, r2, r3, r5, r6, r8, r9, sl, fp, ip, lr}^
    14c0:	2e736570 	mrccs	5, 3, r6, cr3, cr0, {3}
    14c4:	00010068 	andeq	r0, r1, r8, rrx
    14c8:	6d656d00 	stclvs	13, cr6, [r5, #-0]
    14cc:	6d63635f 	stclvs	3, cr6, [r3, #-380]!	; 0xfffffe84
    14d0:	75732d75 	ldrbvc	r2, [r3, #-3445]!	; 0xfffff28b
    14d4:	7769386e 	strbvc	r3, [r9, -lr, ror #16]!
    14d8:	2e317035 	mrccs	0, 1, r7, cr1, cr5, {1}
    14dc:	00010068 	andeq	r0, r1, r8, rrx
    14e0:	6d656d00 	stclvs	13, cr6, [r5, #-0]
    14e4:	6b6c635f 	blvs	1b1a268 <__bss_end+0x1b170ec>
    14e8:	0100682e 	tsteq	r0, lr, lsr #16
    14ec:	656d0000 	strbvs	r0, [sp, #-0]!
    14f0:	69745f6d 	ldmdbvs	r4!, {r0, r2, r3, r5, r6, r8, r9, sl, fp, ip, lr}^
    14f4:	676e696d 	strbvs	r6, [lr, -sp, ror #18]!
    14f8:	0100682e 	tsteq	r0, lr, lsr #16
    14fc:	656d0000 	strbvs	r0, [sp, #-0]!
    1500:	69645f6d 	stmdbvs	r4!, {r0, r2, r3, r5, r6, r8, r9, sl, fp, ip, lr}^
    1504:	62696c76 	rsbvs	r6, r9, #30208	; 0x7600
    1508:	00682e63 	rsbeq	r2, r8, r3, ror #28
    150c:	61000001 	tstvs	r0, r1
    1510:	645f7078 	ldrbvs	r7, [pc], #-120	; 1518 <set_copro_default+0x88>
    1514:	6e657065 	cdpvs	0, 6, cr7, cr5, cr5, {3}
    1518:	00682e64 	rsbeq	r2, r8, r4, ror #28
    151c:	00000002 	andeq	r0, r0, r2
    1520:	68020500 	stmdavs	r2, {r8, sl}
    1524:	03000028 	movweq	r0, #40	; 0x28
    1528:	2f13011f 	svccs	0x0013011f
    152c:	2c302c30 	ldccs	12, cr2, [r0], #-192	; 0xffffff40
    1530:	6a302c30 	bvs	c0c5f8 <__bss_end+0xc0947c>
    1534:	142e1103 	strtne	r1, [lr], #-259	; 0xfffffefd
    1538:	4a24034b 	bmi	90226c <__bss_end+0x8ff0f0>
    153c:	2b326513 	blcs	c9a990 <__bss_end+0xc97814>
    1540:	2e780352 	mrccs	3, 3, r0, cr8, cr2, {2}
    1544:	4d4b2f31 	stclmi	15, cr2, [fp, #-196]	; 0xffffff3c
    1548:	142e1203 	strtne	r1, [lr], #-515	; 0xfffffdfd
    154c:	2e760352 	mrccs	3, 3, r0, cr6, cr2, {2}
    1550:	2e0d0330 	mcrcs	3, 0, r0, cr13, cr0, {1}
    1554:	362e7303 	strtcc	r7, [lr], -r3, lsl #6
    1558:	034d4b2f 	movteq	r4, #56111	; 0xdb2f
    155c:	49132e0f 	ldmdbmi	r3, {r0, r1, r2, r3, r9, sl, fp, sp}
    1560:	ba0a0333 	blt	282234 <__bss_end+0x27f0b8>
    1564:	2f2e7903 	svccs	0x002e7903
    1568:	4e4b2f2d 	cdpmi	15, 4, cr2, cr11, cr13, {1}
    156c:	2d4b3083 	stclcs	0, cr3, [fp, #-524]	; 0xfffffdf4
    1570:	6c03322f 	sfmvs	f3, 4, [r3], {47}	; 0x2f
    1574:	4a23034a 	bmi	8c22a4 <__bss_end+0x8bf128>
    1578:	037e4d13 	cmneq	lr, #1216	; 0x4c0
    157c:	2f292e09 	svccs	0x00292e09
    1580:	4c30492f 	ldcmi	9, cr4, [r0], #-188	; 0xffffff44
    1584:	032e7903 			; <UNDEFINED> instruction: 0x032e7903
    1588:	81134a18 	tsthi	r3, r8, lsl sl
    158c:	13032f2e 	movwne	r2, #16174	; 0x3f2e
    1590:	2e6e032e 	cdpcs	3, 6, cr0, cr14, cr14, {1}
    1594:	2a2c3032 	bcs	b0d664 <__bss_end+0xb0a4e8>
    1598:	03313332 	teqeq	r1, #-939524096	; 0xc8000000
    159c:	03342e7a 	teqeq	r4, #1952	; 0x7a0
    15a0:	332c2e7a 			; <UNDEFINED> instruction: 0x332c2e7a
    15a4:	2f312b31 	svccs	0x00312b31
    15a8:	2e0f034f 	cdpcs	3, 0, cr0, cr15, cr15, {2}
    15ac:	2f2e8113 	svccs	0x002e8113
    15b0:	032e1103 			; <UNDEFINED> instruction: 0x032e1103
    15b4:	032f2e70 			; <UNDEFINED> instruction: 0x032f2e70
    15b8:	79032e0a 	stmdbvc	r3, {r1, r3, r9, sl, fp, sp}
    15bc:	312f2a2e 			; <UNDEFINED> instruction: 0x312f2a2e
    15c0:	322a2b35 	eorcc	r2, sl, #54272	; 0xd400
    15c4:	2e0e0336 	mcrcs	3, 0, r0, cr14, cr6, {1}
    15c8:	03812c31 	orreq	r2, r1, #12544	; 0x3100
    15cc:	4f032e32 	svcmi	0x00032e32
    15d0:	2e34032e 	cdpcs	3, 3, cr0, cr4, cr14, {1}
    15d4:	032e4e03 			; <UNDEFINED> instruction: 0x032e4e03
    15d8:	4e032e35 	mcrmi	14, 0, r2, cr3, cr5, {1}
    15dc:	4b4b4e2e 	blmi	12d4e9c <__bss_end+0x12d1d20>
    15e0:	034b4b4b 	movteq	r4, #47947	; 0xbb4b
    15e4:	4b4b4a22 	blmi	12d3e74 <__bss_end+0x12d0cf8>
    15e8:	034c674c 	movteq	r6, #51020	; 0xc74c
    15ec:	65132e0f 	ldrvs	r2, [r3, #-3599]	; 0xfffff1f1
    15f0:	30032d30 	andcc	r2, r3, r0, lsr sp
    15f4:	2e51034a 	cdpcs	3, 5, cr0, cr1, cr10, {2}
    15f8:	4a230330 	bmi	8c22c0 <__bss_end+0x8bf144>
    15fc:	4b4b4b4b 	blmi	12d4330 <__bss_end+0x12d11b4>
    1600:	2f034f4b 	svccs	0x00034f4b
    1604:	2f851a2e 	svccs	0x00851a2e
    1608:	4c30322a 	lfmmi	f3, 4, [r0], #-168	; 0xffffff58
    160c:	034a7003 	movteq	r7, #40963	; 0xa003
    1610:	79032e1b 	stmdbvc	r3, {r0, r1, r3, r4, r9, sl, fp, sp}
    1614:	3262352e 	rsbcc	r3, r2, #192937984	; 0xb800000
    1618:	35827903 	strcc	r7, [r2, #2307]	; 0x903
    161c:	2e7a0350 	mrccs	3, 3, r0, cr10, cr0, {2}
    1620:	034a7703 	movteq	r7, #42755	; 0xa703
    1624:	02022e0f 	andeq	r2, r2, #15, 28	; 0xf0
    1628:	Address 0x0000000000001628 is out of bounds.


Disassembly of section .debug_str:

00000000 <.debug_str>:
       0:	20554e47 	subscs	r4, r5, r7, asr #28
       4:	20313143 	eorscs	r3, r1, r3, asr #2
       8:	2e322e35 	mrccs	14, 1, r2, cr2, cr5, {1}
       c:	6d2d2030 	stcvs	0, cr2, [sp, #-192]!	; 0xffffff40
      10:	7474696c 	ldrbtvc	r6, [r4], #-2412	; 0xfffff694
      14:	652d656c 	strvs	r6, [sp, #-1388]!	; 0xfffffa94
      18:	6169646e 	cmnvs	r9, lr, ror #8
      1c:	6d2d206e 	stcvs	0, cr2, [sp, #-440]!	; 0xfffffe48
      20:	68637261 	stmdavs	r3!, {r0, r5, r6, r9, ip, sp, lr}^
      24:	6d72613d 	ldfvse	f6, [r2, #-244]!	; 0xffffff0c
      28:	612d3776 			; <UNDEFINED> instruction: 0x612d3776
      2c:	616d2d20 	cmnvs	sp, r0, lsr #26
      30:	2d206d72 	stccs	13, cr6, [r0, #-456]!	; 0xfffffe38
      34:	74696c6d 	strbtvc	r6, [r9], #-3181	; 0xfffff393
      38:	2d656c74 	stclcs	12, cr6, [r5, #-464]!	; 0xfffffe30
      3c:	69646e65 	stmdbvs	r4!, {r0, r2, r5, r6, r9, sl, fp, sp, lr}^
      40:	2d206e61 	stccs	14, cr6, [r0, #-388]!	; 0xfffffe7c
      44:	2d6f6e6d 	stclcs	14, cr6, [pc, #-436]!	; fffffe98 <__bss_end+0xffffcd1c>
      48:	6c616e75 	stclvs	14, cr6, [r1], #-468	; 0xfffffe2c
      4c:	656e6769 	strbvs	r6, [lr, #-1897]!	; 0xfffff897
      50:	63612d64 	cmnvs	r1, #100, 26	; 0x1900
      54:	73736563 	cmnvc	r3, #415236096	; 0x18c00000
      58:	666d2d20 	strbtvs	r2, [sp], -r0, lsr #26
      5c:	74616f6c 	strbtvc	r6, [r1], #-3948	; 0xfffff094
      60:	6962612d 	stmdbvs	r2!, {r0, r2, r3, r5, r8, sp, lr}^
      64:	7261683d 	rsbvc	r6, r1, #3997696	; 0x3d0000
      68:	6d2d2064 	stcvs	0, cr2, [sp, #-400]!	; 0xfffffe70
      6c:	2d736c74 	ldclcs	12, cr6, [r3, #-464]!	; 0xfffffe30
      70:	6c616964 	stclvs	9, cr6, [r1], #-400	; 0xfffffe70
      74:	3d746365 	ldclcc	3, cr6, [r4, #-404]!	; 0xfffffe6c
      78:	20756e67 	rsbscs	r6, r5, r7, ror #28
      7c:	2d20672d 	stccs	7, cr6, [r0, #-180]!	; 0xffffff4c
      80:	2d20324f 	sfmcs	f3, 4, [r0, #-316]!	; 0xfffffec4
      84:	2d6f6e66 	stclcs	14, cr6, [pc, #-408]!	; fffffef4 <__bss_end+0xffffcd78>
      88:	69776e75 	ldmdbvs	r7!, {r0, r2, r4, r5, r6, r9, sl, fp, sp, lr}^
      8c:	742d646e 	strtvc	r6, [sp], #-1134	; 0xfffffb92
      90:	656c6261 	strbvs	r6, [ip, #-609]!	; 0xfffffd9f
      94:	662d2073 			; <UNDEFINED> instruction: 0x662d2073
      98:	612d6f6e 			; <UNDEFINED> instruction: 0x612d6f6e
      9c:	636e7973 	cmnvs	lr, #1884160	; 0x1cc000
      a0:	6e6f7268 	cdpvs	2, 6, cr7, cr15, cr8, {3}
      a4:	2d73756f 	cfldr64cs	mvdx7, [r3, #-444]!	; 0xfffffe44
      a8:	69776e75 	ldmdbvs	r7!, {r0, r2, r4, r5, r6, r9, sl, fp, sp, lr}^
      ac:	742d646e 	strtvc	r6, [sp], #-1134	; 0xfffffb92
      b0:	656c6261 	strbvs	r6, [ip, #-609]!	; 0xfffffd9f
      b4:	525f0073 	subspl	r0, pc, #115	; 0x73
      b8:	6d757365 	ldclvs	3, cr7, [r5, #-404]!	; 0xfffffe6c
      bc:	69665f65 	stmdbvs	r6!, {r0, r2, r5, r6, r8, r9, sl, fp, ip, lr}^
      c0:	685f656c 	ldmdavs	pc, {r2, r3, r5, r6, r8, sl, sp, lr}^	; <UNPREDICTABLE>
      c4:	00646165 	rsbeq	r6, r4, r5, ror #2
      c8:	5f434356 	svcpl	0x00434356
      cc:	5f434441 	svcpl	0x00434441
      d0:	00544942 	subseq	r4, r4, r2, asr #18
      d4:	5f444456 	svcpl	0x00444456
      d8:	41555043 	cmpmi	r5, r3, asr #32
      dc:	5449425f 	strbpl	r4, [r9], #-607	; 0xfffffda1
      e0:	43435600 	movtmi	r5, #13824	; 0x3600
      e4:	4152445f 	cmpmi	r2, pc, asr r4
      e8:	49425f4d 	stmdbmi	r2, {r0, r2, r3, r6, r8, r9, sl, fp, ip, lr}^
      ec:	44560054 	ldrbmi	r0, [r6], #-84	; 0xffffffac
      f0:	45525f44 	ldrbmi	r5, [r2, #-3908]	; 0xfffff0bc
      f4:	425f3353 	subsmi	r3, pc, #1275068417	; 0x4c000001
      f8:	56005449 	strpl	r5, [r0], -r9, asr #8
      fc:	505f4343 	subspl	r4, pc, r3, asr #6
     100:	49425f4c 	stmdbmi	r2, {r2, r3, r6, r8, r9, sl, fp, ip, lr}^
     104:	44560054 	ldrbmi	r0, [r6], #-84	; 0xffffffac
     108:	50475f44 	subpl	r5, r7, r4, asr #30
     10c:	49425f55 	stmdbmi	r2, {r0, r2, r4, r6, r8, r9, sl, fp, ip, lr}^
     110:	6e750054 	mrcvs	0, 3, r0, cr5, cr4, {2}
     114:	6e676973 	mcrvs	9, 3, r6, cr7, cr3, {3}
     118:	63206465 			; <UNDEFINED> instruction: 0x63206465
     11c:	00726168 	rsbseq	r6, r2, r8, ror #2
     120:	4e4f4765 	cdpmi	7, 4, cr4, cr15, cr5, {3}
     124:	6e73765f 	mrcvs	6, 3, r7, cr3, cr15, {2}
     128:	44445600 	strbmi	r5, [r4], #-1536	; 0xfffffa00
     12c:	5550435f 	ldrbpl	r4, [r0, #-863]	; 0xfffffca1
     130:	49425f42 	stmdbmi	r2, {r1, r6, r8, r9, sl, fp, ip, lr}^
     134:	68730054 	ldmdavs	r3!, {r2, r4, r6}^
     138:	2074726f 	rsbscs	r7, r4, pc, ror #4
     13c:	69736e75 	ldmdbvs	r3!, {r0, r2, r4, r5, r6, r9, sl, fp, sp, lr}^
     140:	64656e67 	strbtvs	r6, [r5], #-3687	; 0xfffff199
     144:	746e6920 	strbtvc	r6, [lr], #-2336	; 0xfffff6e0
     148:	73655200 	cmnvc	r5, #0, 4
     14c:	5f656d75 	svcpl	0x00656d75
     150:	006e7376 	rsbeq	r7, lr, r6, ror r3
     154:	63656863 	cmnvs	r5, #6488064	; 0x630000
     158:	75735f6b 	ldrbvc	r5, [r3, #-3947]!	; 0xfffff095
     15c:	7570006d 	ldrbvc	r0, [r0, #-109]!	; 0xffffff93
     160:	65685f62 	strbvs	r5, [r8, #-3938]!	; 0xfffff09e
     164:	735f6461 	cmpvc	pc, #1627389952	; 0x61000000
     168:	00657a69 	rsbeq	r7, r5, r9, ror #20
     16c:	75736572 	ldrbvc	r6, [r3, #-1394]!	; 0xfffffa8e
     170:	685f656d 	ldmdavs	pc, {r0, r2, r3, r5, r6, r8, sl, sp, lr}^	; <UNPREDICTABLE>
     174:	00646165 	rsbeq	r6, r4, r5, ror #2
     178:	706d756a 	rsbvc	r7, sp, sl, ror #10
     17c:	736e695f 	cmnvc	lr, #1556480	; 0x17c000
     180:	63757274 	cmnvs	r5, #116, 4	; 0x40000007
     184:	6e6f6974 	mcrvs	9, 3, r6, cr15, cr4, {3}
     188:	44445600 	strbmi	r5, [r4], #-1536	; 0xfffffa00
     18c:	5550435f 	ldrbpl	r4, [r0, #-863]	; 0xfffffca1
     190:	49425f53 	stmdbmi	r2, {r0, r1, r4, r6, r8, r9, sl, fp, ip, lr}^
     194:	43560054 	cmpmi	r6, #84	; 0x54
     198:	4d505f43 	ldclmi	15, cr5, [r0, #-268]	; 0xfffffef4
     19c:	5449425f 	strbpl	r4, [r9], #-607	; 0xfffffda1
     1a0:	44445600 	strbmi	r5, [r4], #-1536	; 0xfffffa00
     1a4:	5550565f 	ldrbpl	r5, [r0, #-1631]	; 0xfffff9a1
     1a8:	5449425f 	strbpl	r4, [r9], #-607	; 0xfffffda1
     1ac:	6e6f6c00 	cdpvs	12, 6, cr6, cr15, cr0, {0}
     1b0:	6f6c2067 	svcvs	0x006c2067
     1b4:	7520676e 	strvc	r6, [r0, #-1902]!	; 0xfffff892
     1b8:	6769736e 	strbvs	r7, [r9, -lr, ror #6]!
     1bc:	2064656e 	rsbcs	r6, r4, lr, ror #10
     1c0:	00746e69 	rsbseq	r6, r4, r9, ror #28
     1c4:	5f444456 	svcpl	0x00444456
     1c8:	4d415244 	sfmmi	f5, 2, [r1, #-272]	; 0xfffffef0
     1cc:	5f4c4c50 	svcpl	0x004c4c50
     1d0:	00544942 	subseq	r4, r4, r2, asr #18
     1d4:	5f434356 	svcpl	0x00434356
     1d8:	44565043 	ldrbmi	r5, [r6], #-67	; 0xffffffbd
     1dc:	49425f44 	stmdbmi	r2, {r2, r6, r8, r9, sl, fp, ip, lr}^
     1e0:	69660054 	stmdbvs	r6!, {r2, r4, r6}^
     1e4:	685f656c 	ldmdavs	pc, {r2, r3, r5, r6, r8, sl, sp, lr}^	; <UNPREDICTABLE>
     1e8:	5f646165 	svcpl	0x00646165
     1ec:	006e7376 	rsbeq	r7, lr, r6, ror r3
     1f0:	6d6f682f 	stclvs	8, cr6, [pc, #-188]!	; 13c <resume1_c_part+0x8>
     1f4:	6f612f65 	svcvs	0x00612f65
     1f8:	756f687a 	strbvc	r6, [pc, #-2170]!	; fffff986 <__bss_end+0xffffc80a>
     1fc:	6275702f 	rsbsvs	r7, r5, #47	; 0x2f
     200:	726f775f 	rsbvc	r7, pc, #24903680	; 0x17c0000
     204:	687a2f6b 	ldmdavs	sl!, {r0, r1, r3, r5, r6, r8, r9, sl, fp, sp}^
     208:	6c676e6f 	stclvs	14, cr6, [r7], #-444	; 0xfffffe44
     20c:	6f635f70 	svcvs	0x00635f70
     210:	702f6564 	eorvc	r6, pc, r4, ror #10
     214:	656a6f72 	strbvs	r6, [sl, #-3954]!	; 0xfffff08e
     218:	522f7463 	eorpl	r7, pc, #1660944384	; 0x63000000
     21c:	445f3631 	ldrbmi	r3, [pc], #-1585	; 224 <resume1_c_part+0xf0>
     220:	69742f39 	ldmdbvs	r4!, {r0, r3, r4, r5, r8, r9, sl, fp, sp}^
     224:	6c2f616e 	stfvss	f6, [pc], #-440	; 74 <_start+0x44>
     228:	65686369 	strbvs	r6, [r8, #-873]!	; 0xfffffc97
     22c:	696c2f65 	stmdbvs	ip!, {r0, r2, r5, r6, r8, r9, sl, fp, sp}^
     230:	2d78756e 	cfldr64cs	mvdx7, [r8, #-440]!	; 0xfffffe48
     234:	00342e33 	eorseq	r2, r4, r3, lsr lr
     238:	657a6973 	ldrbvs	r6, [sl, #-2419]!	; 0xfffff68d
     23c:	65707974 	ldrbvs	r7, [r0, #-2420]!	; 0xfffff68c
     240:	6e6f6c00 	cdpvs	12, 6, cr6, cr15, cr0, {0}
     244:	6f6c2067 	svcvs	0x006c2067
     248:	6920676e 	stmdbvs	r0!, {r1, r2, r3, r5, r6, r8, r9, sl, sp, lr}
     24c:	5600746e 	strpl	r7, [r0], -lr, ror #8
     250:	525f4444 	subspl	r4, pc, #68, 8	; 0x44000000
     254:	5f315345 	svcpl	0x00315345
     258:	00544942 	subseq	r4, r4, r2, asr #18
     25c:	5f444456 	svcpl	0x00444456
     260:	5f535953 	svcpl	0x00535953
     264:	00544942 	subseq	r4, r4, r2, asr #18
     268:	5f434356 	svcpl	0x00434356
     26c:	4444504c 	strbmi	r5, [r4], #-76	; 0xffffffb4
     270:	49425f52 	stmdbmi	r2, {r1, r4, r6, r8, r9, sl, fp, ip, lr}^
     274:	43560054 	cmpmi	r6, #84	; 0x54
     278:	4f495f43 	svcmi	0x00495f43
     27c:	5449425f 	strbpl	r4, [r9], #-607	; 0xfffffda1
     280:	6f687300 	svcvs	0x00687300
     284:	69207472 	stmdbvs	r0!, {r1, r4, r5, r6, sl, ip, sp, lr}
     288:	7200746e 	andvc	r7, r0, #1845493760	; 0x6e000000
     28c:	6d757365 	ldclvs	3, cr7, [r5, #-404]!	; 0xfffffe6c
     290:	69665f65 	stmdbvs	r6!, {r0, r2, r5, r6, r8, r9, sl, fp, ip, lr}^
     294:	685f656c 	ldmdavs	pc, {r2, r3, r5, r6, r8, sl, sp, lr}^	; <UNPREDICTABLE>
     298:	5f646165 	svcpl	0x00646165
     29c:	72610074 	rsbvc	r0, r1, #116	; 0x74
     2a0:	612f6863 			; <UNDEFINED> instruction: 0x612f6863
     2a4:	6d2f6d72 	stcvs	13, cr6, [pc, #-456]!	; e4 <mem_memcpy+0x4>
     2a8:	2d686361 	stclcs	3, cr6, [r8, #-388]!	; 0xfffffe7c
     2ac:	786e7573 	stmdavc	lr!, {r0, r1, r4, r5, r6, r8, sl, ip, sp, lr}^
     2b0:	6d702f69 	ldclvs	15, cr2, [r0, #-420]!	; 0xfffffe5c
     2b4:	6174732f 	cmnvs	r4, pc, lsr #6
     2b8:	7962646e 	stmdbvc	r2!, {r1, r2, r3, r5, r6, sl, sp, lr}^
     2bc:	7075732f 	rsbsvc	r7, r5, pc, lsr #6
     2c0:	722f7265 	eorvc	r7, pc, #1342177286	; 0x50000006
     2c4:	6d757365 	ldclvs	3, cr7, [r5, #-404]!	; 0xfffffe6c
     2c8:	65722f65 	ldrbvs	r2, [r2, #-3941]!	; 0xfffff09b
     2cc:	656d7573 	strbvs	r7, [sp, #-1395]!	; 0xfffffa8d
     2d0:	6165685f 	cmnvs	r5, pc, asr r8
     2d4:	00632e64 	rsbeq	r2, r3, r4, ror #28
     2d8:	5f434356 	svcpl	0x00434356
     2dc:	5f58414d 	svcpl	0x0058414d
     2e0:	45444e49 	strbmi	r4, [r4, #-3657]	; 0xfffff1b7
     2e4:	43560058 	cmpmi	r6, #88	; 0x58
     2e8:	444c5f43 	strbmi	r5, [ip], #-3907	; 0xfffff0bd
     2ec:	5f4e494f 	svcpl	0x004e494f
     2f0:	00544942 	subseq	r4, r4, r2, asr #18
     2f4:	5f627570 	svcpl	0x00627570
     2f8:	64616568 	strbtvs	r6, [r1], #-1384	; 0xfffffa98
     2fc:	6e73765f 	mrcvs	6, 3, r7, cr3, cr15, {2}
     300:	44445600 	strbmi	r5, [r4], #-1536	; 0xfffffa00
     304:	5345545f 	movtpl	r5, #21599	; 0x545f
     308:	49425f54 	stmdbmi	r2, {r2, r4, r6, r8, r9, sl, fp, ip, lr}^
     30c:	616d0054 	qdsubvs	r0, r4, sp
     310:	00636967 	rsbeq	r6, r3, r7, ror #18
     314:	676e656c 	strbvs	r6, [lr, -ip, ror #10]!
     318:	56006874 			; <UNDEFINED> instruction: 0x56006874
     31c:	525f4444 	subspl	r4, pc, #68, 8	; 0x44000000
     320:	5f325345 	svcpl	0x00325345
     324:	00544942 	subseq	r4, r4, r2, asr #18
     328:	74616c70 	strbtvc	r6, [r1], #-3184	; 0xfffff390
     32c:	6d726f66 	ldclvs	15, cr6, [r2, #-408]!	; 0xfffffe68
     330:	43435600 	movtmi	r5, #13824	; 0x3600
     334:	4c4c505f 	mcrrmi	0, 5, r5, ip, cr15
     338:	5449425f 	strbpl	r4, [r9], #-607	; 0xfffffda1
     33c:	63726100 	cmnvs	r2, #0, 2
     340:	72612f68 	rsbvc	r2, r1, #104, 30	; 0x1a0
     344:	616d2f6d 	cmnvs	sp, sp, ror #30
     348:	732d6863 			; <UNDEFINED> instruction: 0x732d6863
     34c:	69786e75 	ldmdbvs	r8!, {r0, r2, r4, r5, r6, r9, sl, fp, sp, lr}^
     350:	2f6d702f 	svccs	0x006d702f
     354:	6e617473 	mcrvs	4, 3, r7, cr1, cr3, {3}
     358:	2f796264 	svccs	0x00796264
     35c:	65707573 	ldrbvs	r7, [r0, #-1395]!	; 0xfffffa8d
     360:	6f632f72 	svcvs	0x00632f72
     364:	6e6f6d6d 	cdpvs	13, 6, cr6, cr15, cr13, {3}
     368:	7400632e 	strvc	r6, [r0], #-814	; 0xfffffcd2
     36c:	645f706d 	ldrbvs	r7, [pc], #-109	; 374 <set_pll+0xf4>
     370:	74007473 	strvc	r7, [r0], #-1139	; 0xfffffb8d
     374:	735f706d 	cmpvc	pc, #109	; 0x6d
     378:	6d006372 	stcvs	3, cr6, [r0, #-456]	; 0xfffffe38
     37c:	6d5f6d65 	ldclvs	13, cr6, [pc, #-404]	; 1f0 <resume1_c_part+0xbc>
     380:	70636d65 	rsbvc	r6, r3, r5, ror #26
     384:	72610079 	rsbvc	r0, r1, #121	; 0x79
     388:	612f6863 			; <UNDEFINED> instruction: 0x612f6863
     38c:	6d2f6d72 	stcvs	13, cr6, [pc, #-456]!	; 1cc <resume1_c_part+0x98>
     390:	2d686361 	stclcs	3, cr6, [r8, #-388]!	; 0xfffffe7c
     394:	786e7573 	stmdavc	lr!, {r0, r1, r4, r5, r6, r8, sl, ip, sp, lr}^
     398:	6d702f69 	ldclvs	15, cr2, [r0, #-420]!	; 0xfffffe5c
     39c:	6174732f 	cmnvs	r4, pc, lsr #6
     3a0:	7962646e 	stmdbvc	r2!, {r1, r2, r3, r5, r6, sl, sp, lr}^
     3a4:	7075732f 	rsbsvc	r7, r5, pc, lsr #6
     3a8:	732f7265 			; <UNDEFINED> instruction: 0x732f7265
     3ac:	72657075 	rsbvc	r7, r5, #117	; 0x75
     3b0:	6977745f 	ldmdbvs	r7!, {r0, r1, r2, r3, r4, r6, sl, ip, sp, lr}^
     3b4:	6100632e 	tstvs	r0, lr, lsr #6
     3b8:	2f686372 	svccs	0x00686372
     3bc:	2f6d7261 	svccs	0x006d7261
     3c0:	6863616d 	stmdavs	r3!, {r0, r2, r3, r5, r6, r8, sp, lr}^
     3c4:	6e75732d 	cdpvs	3, 7, cr7, cr5, cr13, {1}
     3c8:	702f6978 	eorvc	r6, pc, r8, ror r9	; <UNPREDICTABLE>
     3cc:	74732f6d 	ldrbtvc	r2, [r3], #-3949	; 0xfffff093
     3d0:	62646e61 	rsbvs	r6, r4, #1552	; 0x610
     3d4:	75732f79 	ldrbvc	r2, [r3, #-3961]!	; 0xfffff087
     3d8:	2f726570 	svccs	0x00726570
     3dc:	65707573 	ldrbvs	r7, [r0, #-1395]!	; 0xfffffa8d
     3e0:	6c635f72 	stclvs	15, cr5, [r3], #-456	; 0xfffffe38
     3e4:	2e6b636f 	cdpcs	3, 6, cr6, cr11, cr15, {3}
     3e8:	72610063 	rsbvc	r0, r1, #99	; 0x63
     3ec:	612f6863 			; <UNDEFINED> instruction: 0x612f6863
     3f0:	6d2f6d72 	stcvs	13, cr6, [pc, #-456]!	; 230 <resume1_c_part+0xfc>
     3f4:	2d686361 	stclcs	3, cr6, [r8, #-388]!	; 0xfffffe7c
     3f8:	786e7573 	stmdavc	lr!, {r0, r1, r4, r5, r6, r8, sl, ip, sp, lr}^
     3fc:	6d702f69 	ldclvs	15, cr2, [r0, #-420]!	; 0xfffffe5c
     400:	6174732f 	cmnvs	r4, pc, lsr #6
     404:	7962646e 	stmdbvc	r2!, {r1, r2, r3, r5, r6, sl, sp, lr}^
     408:	7075732f 	rsbsvc	r7, r5, pc, lsr #6
     40c:	732f7265 			; <UNDEFINED> instruction: 0x732f7265
     410:	72657075 	rsbvc	r7, r5, #117	; 0x75
     414:	776f705f 			; <UNDEFINED> instruction: 0x776f705f
     418:	632e7265 			; <UNDEFINED> instruction: 0x632e7265
     41c:	63726100 	cmnvs	r2, #0, 2
     420:	72612f68 	rsbvc	r2, r1, #104, 30	; 0x1a0
     424:	616d2f6d 	cmnvs	sp, sp, ror #30
     428:	732d6863 			; <UNDEFINED> instruction: 0x732d6863
     42c:	69786e75 	ldmdbvs	r8!, {r0, r2, r4, r5, r6, r9, sl, fp, sp, lr}^
     430:	2f6d702f 	svccs	0x006d702f
     434:	6e617473 	mcrvs	4, 3, r7, cr1, cr3, {3}
     438:	2f796264 	svccs	0x00796264
     43c:	65707573 	ldrbvs	r7, [r0, #-1395]!	; 0xfffffa8d
     440:	75732f72 	ldrbvc	r2, [r3, #-3954]!	; 0xfffff08e
     444:	5f726570 	svcpl	0x00726570
     448:	73757063 	cmnvc	r5, #99	; 0x63
     44c:	5000632e 	andpl	r6, r0, lr, lsr #6
     450:	34326c6c 	ldrtcc	r6, [r2], #-3180	; 0xfffff394
     454:	74754f4d 	ldrbtvc	r4, [r5], #-3917	; 0xfffff0b3
     458:	50006e45 	andpl	r6, r0, r5, asr #28
     45c:	72446c6c 	subvc	r6, r4, #108, 24	; 0x6c00
     460:	50306d61 	eorspl	r6, r0, r1, ror #26
     464:	65747461 	ldrbvs	r7, [r4, #-1121]!	; 0xfffffb9f
     468:	5f006e72 	svcpl	0x00006e72
     46c:	4d43435f 	stclmi	3, cr4, [r3, #-380]	; 0xfffffe84
     470:	48415f55 	stmdami	r1, {r0, r2, r4, r6, r8, r9, sl, fp, ip, lr}^
     474:	525f3142 	subspl	r3, pc, #-2147483632	; 0x80000010
     478:	4f495441 	svcmi	0x00495441
     47c:	4745525f 	smlsldmi	r5, r5, pc, r2	; <UNPREDICTABLE>
     480:	34353030 	ldrtcc	r3, [r5], #-48	; 0xffffffd0
     484:	75706300 	ldrbvc	r6, [r0, #-768]!	; 0xfffffd00
     488:	65725f31 	ldrbvs	r5, [r2, #-3889]!	; 0xfffff0cf
     48c:	00746573 	rsbseq	r6, r4, r3, ror r5
     490:	75626564 	strbvc	r6, [r2, #-1380]!	; 0xfffffa9c
     494:	616d5f67 	cmnvs	sp, r7, ror #30
     498:	5f006b73 	svcpl	0x00006b73
     49c:	6d63635f 	stclvs	3, cr6, [r3, #-380]!	; 0xfffffe84
     4a0:	696d5f75 	stmdbvs	sp!, {r0, r2, r4, r5, r6, r8, r9, sl, fp, ip, lr}^
     4a4:	705f6970 	subsvc	r6, pc, r0, ror r9	; <UNPREDICTABLE>
     4a8:	725f6c6c 	subsvc	r6, pc, #108, 24	; 0x6c00
     4ac:	30306765 	eorscc	r6, r0, r5, ror #14
     4b0:	745f3034 	ldrbvc	r3, [pc], #-52	; 4b8 <save_mem_status_nommu+0x8>
     4b4:	73657200 	cmnvc	r5, #0, 4
     4b8:	65767265 	ldrbvs	r7, [r6, #-613]!	; 0xfffffd9b
     4bc:	32333164 	eorscc	r3, r3, #100, 2
     4c0:	73657200 	cmnvc	r5, #0, 4
     4c4:	65767265 	ldrbvs	r7, [r6, #-613]!	; 0xfffffd9b
     4c8:	33333164 	teqcc	r3, #100, 2
     4cc:	73657200 	cmnvc	r5, #0, 4
     4d0:	65767265 	ldrbvs	r7, [r6, #-613]!	; 0xfffffd9b
     4d4:	34333164 	ldrtcc	r3, [r3], #-356	; 0xfffffe9c
     4d8:	73657200 	cmnvc	r5, #0, 4
     4dc:	65726f74 	ldrbvs	r6, [r2, #-3956]!	; 0xfffff08c
     4e0:	756d6d5f 	strbvc	r6, [sp, #-3423]!	; 0xfffff2a1
     4e4:	6174735f 	cmnvs	r4, pc, asr r3
     4e8:	64006574 	strvs	r6, [r0], #-1396	; 0xfffffa8c
     4ec:	6c617677 	stclvs	6, cr7, [r1], #-476	; 0xfffffe24
     4f0:	76617300 	strbtvc	r7, [r1], -r0, lsl #6
     4f4:	725f6465 	subsvc	r6, pc, #1694498816	; 0x65000000
     4f8:	69746e75 	ldmdbvs	r4!, {r0, r2, r4, r5, r6, r9, sl, fp, sp, lr}^
     4fc:	635f656d 	cmpvs	pc, #457179136	; 0x1b400000
     500:	65746e6f 	ldrbvs	r6, [r4, #-3695]!	; 0xfffff191
     504:	735f7478 	cmpvc	pc, #120, 8	; 0x78000000
     508:	6a006376 	bvs	192e8 <__bss_end+0x1616c>
     50c:	5f706d75 	svcpl	0x00706d75
     510:	725f6f74 	subsvc	r6, pc, #116, 30	; 0x1d0
     514:	6d757365 	ldclvs	3, cr7, [r5, #-404]!	; 0xfffffe6c
     518:	61730065 	cmnvs	r3, r5, rrx
     51c:	6d5f6576 	cfldr64vs	mvdx6, [pc, #-472]	; 34c <set_pll+0xcc>
     520:	735f6d65 	cmpvc	pc, #6464	; 0x1940
     524:	75746174 	ldrbvc	r6, [r4, #-372]!	; 0xfffffe8c
     528:	634c0073 	movtvs	r0, #49267	; 0xc073
     52c:	68433064 	stmdavs	r3, {r2, r5, r6, ip, sp}^
     530:	634c0030 	movtvs	r0, #49200	; 0xc030
     534:	68433064 	stmdavs	r3, {r2, r5, r6, ip, sp}^
     538:	78610031 	stmdavc	r1!, {r0, r4, r5}^
     53c:	69645f69 	stmdbvs	r4!, {r0, r3, r5, r6, r8, r9, sl, fp, ip, lr}^
     540:	65670076 	strbvs	r0, [r7, #-118]!	; 0xffffff8a
     544:	75635f74 	strbvc	r5, [r3, #-3956]!	; 0xfffff08c
     548:	6c635f72 	stclvs	15, cr5, [r3], #-456	; 0xfffffe38
     54c:	65747375 	ldrbvs	r7, [r4, #-885]!	; 0xfffffc8b
     550:	64695f72 	strbtvs	r5, [r9], #-3954	; 0xfffff08e
     554:	6c6c5000 	stclvs	0, cr5, [ip], #-0
     558:	6c744336 	ldclvs	3, cr4, [r4], #-216	; 0xffffff28
     55c:	6d656d00 	stclvs	13, cr6, [r5, #-0]
     560:	6b6c635f 	blvs	1b192e4 <__bss_end+0x1b16168>
     564:	696e695f 	stmdbvs	lr!, {r0, r1, r2, r3, r4, r6, r8, fp, sp, lr}^
     568:	65720074 	ldrbvs	r0, [r2, #-116]!	; 0xffffff8c
     56c:	76726573 			; <UNDEFINED> instruction: 0x76726573
     570:	34316465 	ldrtcc	r6, [r1], #-1125	; 0xfffffb9b
     574:	65720031 	ldrbvs	r0, [r2, #-49]!	; 0xffffffcf
     578:	76726573 			; <UNDEFINED> instruction: 0x76726573
     57c:	34316465 	ldrtcc	r6, [r1], #-1125	; 0xfffffb9b
     580:	65720032 	ldrbvs	r0, [r2, #-50]!	; 0xffffffce
     584:	76726573 			; <UNDEFINED> instruction: 0x76726573
     588:	34316465 	ldrtcc	r6, [r1], #-1125	; 0xfffffb9b
     58c:	6e690033 	mcrvs	0, 3, r0, cr9, cr3, {1}
     590:	00786564 	rsbseq	r6, r8, r4, ror #10
     594:	536c6c50 	cmnpl	ip, #80, 24	; 0x5000
     598:	73006372 	movwvc	r6, #882	; 0x372
     59c:	64657661 	strbtvs	r7, [r5], #-1633	; 0xfffff99f
     5a0:	756d6d5f 	strbvc	r6, [sp, #-3423]!	; 0xfffff2a1
     5a4:	6174735f 	cmnvs	r4, pc, asr r3
     5a8:	49006574 	stmdbmi	r0, {r2, r4, r5, r6, r8, sl, sp, lr}
     5ac:	00307332 	eorseq	r7, r0, r2, lsr r3
     5b0:	31733249 	cmncc	r3, r9, asr #4
     5b4:	6c6c5000 	stclvs	0, cr5, [ip], #-0
     5b8:	74433031 	strbvc	r3, [r3], #-49	; 0xffffffcf
     5bc:	6c50006c 	mrrcvs	0, 6, r0, r0, cr12	; <UNPREDICTABLE>
     5c0:	7443346c 	strbvc	r3, [r3], #-1132	; 0xfffffb94
     5c4:	4d50006c 	ldclmi	0, cr0, [r0, #-432]	; 0xfffffe50
     5c8:	4154535f 	cmpmi	r4, pc, asr r3
     5cc:	5942444e 	stmdbpl	r2, {r1, r2, r3, r6, sl, lr}^
     5d0:	414e455f 	cmpmi	lr, pc, asr r5
     5d4:	5f454c42 	svcpl	0x00454c42
     5d8:	4741544a 	strbmi	r5, [r1, -sl, asr #8]
     5dc:	635f5f00 	cmpvs	pc, #0, 30
     5e0:	5f756d63 	svcpl	0x00756d63
     5e4:	366c6c70 			; <UNDEFINED> instruction: 0x366c6c70
     5e8:	6765725f 			; <UNDEFINED> instruction: 0x6765725f
     5ec:	38323030 	ldmdacc	r2!, {r4, r5, ip, sp}
     5f0:	4d00745f 	cfstrsmi	mvf7, [r0, #-380]	; 0xfffffe84
     5f4:	44697069 	strbtmi	r7, [r9], #-105	; 0xffffff97
     5f8:	6d006973 	stcvs	9, cr6, [r0, #-460]	; 0xfffffe34
     5fc:	74696e6f 	strbtvc	r6, [r9], #-3695	; 0xfffff191
     600:	765f726f 	ldrbvc	r7, [pc], -pc, ror #4
     604:	6f746365 	svcvs	0x00746365
     608:	5f5f0072 	svcpl	0x005f0072
     60c:	756d6363 	strbvc	r6, [sp, #-867]!	; 0xfffffc9d
     610:	7379735f 	cmnvc	r9, #2080374785	; 0x7c000001
     614:	5f6b6c63 	svcpl	0x006b6c63
     618:	69746172 	ldmdbvs	r4!, {r1, r4, r5, r6, r8, sp, lr}^
     61c:	65725f6f 	ldrbvs	r5, [r2, #-3951]!	; 0xfffff091
     620:	35303067 	ldrcc	r3, [r0, #-103]!	; 0xffffff99
     624:	00745f30 	rsbseq	r5, r4, r0, lsr pc
     628:	326f644c 	rsbcc	r6, pc, #76, 8	; 0x4c000000
     62c:	6d006e45 	stcvs	14, cr6, [r0, #-276]	; 0xfffffeec
     630:	635f6d65 	cmpvs	pc, #6464	; 0x1940
     634:	735f6b6c 	cmpvc	pc, #108, 22	; 0x1b000
     638:	6d5f7465 	cfldrdvs	mvd7, [pc, #-404]	; 4ac <show_mem_status+0x34>
     63c:	00637369 	rsbeq	r7, r3, r9, ror #6
     640:	416c6c50 	cmnmi	ip, r0, asr ip
     644:	6f696475 	svcvs	0x00696475
     648:	73616942 	cmnvc	r1, #1081344	; 0x108000
     64c:	75706300 	ldrbvc	r6, [r0, #-768]!	; 0xfffffd00
     650:	65725f33 	ldrbvs	r5, [r2, #-3891]!	; 0xfffff0cd
     654:	00746573 	rsbseq	r6, r4, r3, ror r5
     658:	5f6c6c70 	svcpl	0x006c6c70
     65c:	74636166 	strbtvc	r6, [r3], #-358	; 0xfffffe9a
     660:	745f726f 	ldrbvc	r7, [pc], #-623	; 668 <delay_us+0x50>
     664:	73657200 	cmnvc	r5, #0, 4
     668:	65767265 	ldrbvs	r7, [r6, #-613]!	; 0xfffffd9b
     66c:	31353164 	teqcc	r5, r4, ror #2
     670:	73657200 	cmnvc	r5, #0, 4
     674:	65767265 	ldrbvs	r7, [r6, #-613]!	; 0xfffffd9b
     678:	32353164 	eorscc	r3, r5, #100, 2
     67c:	73657200 	cmnvc	r5, #0, 4
     680:	65767265 	ldrbvs	r7, [r6, #-613]!	; 0xfffffd9b
     684:	33353164 	teqcc	r5, #100, 2
     688:	73657200 	cmnvc	r5, #0, 4
     68c:	65767265 	ldrbvs	r7, [r6, #-613]!	; 0xfffffd9b
     690:	34353164 	ldrtcc	r3, [r5], #-356	; 0xfffffe9c
     694:	6c6c5000 	stclvs	0, cr5, [ip], #-0
     698:	63697348 	cmnvs	r9, #72, 6	; 0x20000001
     69c:	74746150 	ldrbtvc	r6, [r4], #-336	; 0xfffffeb0
     6a0:	006e7265 	rsbeq	r7, lr, r5, ror #4
     6a4:	73625f5f 	cmnvc	r2, #380	; 0x17c
     6a8:	6e655f73 	mcrvs	15, 3, r5, cr5, cr3, {3}
     6ac:	4c500064 	mrrcmi	0, 6, r0, r0, cr4	; <UNPREDICTABLE>
     6b0:	6766434c 	strbvs	r4, [r6, -ip, asr #6]!
     6b4:	61647055 	qdsubvs	r7, r5, r4
     6b8:	50006574 	andpl	r6, r0, r4, ror r5
     6bc:	73486c6c 	movtvc	r6, #35948	; 0x8c6c
     6c0:	69426369 	stmdbvs	r2, {r0, r3, r5, r6, r8, r9, sp, lr}^
     6c4:	5f007361 	svcpl	0x00007361
     6c8:	6d63635f 	stclvs	3, cr6, [r3, #-380]!	; 0xfffffe84
     6cc:	6c705f75 	ldclvs	15, cr5, [r0], #-468	; 0xfffffe2c
     6d0:	725f356c 	subsvc	r3, pc, #108, 10	; 0x1b000000
     6d4:	30306765 	eorscc	r6, r0, r5, ror #14
     6d8:	745f3032 	ldrbvc	r3, [pc], #-50	; 6e0 <init_event_counter>
     6dc:	6c6c5000 	stclvs	0, cr5, [ip], #-0
     6e0:	6e755431 	mrcvs	4, 3, r5, cr5, cr1, {1}
     6e4:	75424d00 	strbvc	r4, [r2, #-3328]	; 0xfffff300
     6e8:	56003073 			; <UNDEFINED> instruction: 0x56003073
     6ec:	65536266 	ldrbvs	r6, [r3, #-614]	; 0xfffffd9a
     6f0:	4d50006c 	ldclmi	0, cr0, [r0, #-432]	; 0xfffffe50
     6f4:	4154535f 	cmpmi	r4, pc, asr r3
     6f8:	5942444e 	stmdbpl	r2, {r1, r2, r3, r6, sl, lr}^
     6fc:	4952505f 	ldmdbmi	r2, {r0, r1, r2, r3, r4, r6, ip, lr}^
     700:	435f544e 	cmpmi	pc, #1308622848	; 0x4e000000
     704:	535f5543 	cmppl	pc, #281018368	; 0x10c00000
     708:	55544154 	ldrbpl	r4, [r4, #-340]	; 0xfffffeac
     70c:	4d500053 	ldclmi	0, cr0, [r0, #-332]	; 0xfffffeb4
     710:	4154535f 	cmpmi	r4, pc, asr r3
     714:	5942444e 	stmdbpl	r2, {r1, r2, r3, r6, sl, lr}^
     718:	4952505f 	ldmdbmi	r2, {r0, r1, r2, r3, r4, r6, ip, lr}^
     71c:	505f544e 	subspl	r5, pc, lr, asr #8
     720:	0054524f 	subseq	r5, r4, pc, asr #4
     724:	535f4d50 	cmppl	pc, #80, 26	; 0x1400
     728:	444e4154 	strbmi	r4, [lr], #-340	; 0xfffffeac
     72c:	505f5942 	subspl	r5, pc, r2, asr #18
     730:	544e4952 	strbpl	r4, [lr], #-2386	; 0xfffff6ae
     734:	5345525f 	movtpl	r5, #21087	; 0x525f
     738:	5f454d55 	svcpl	0x00454d55
     73c:	535f4f49 	cmppl	pc, #292	; 0x124
     740:	55544154 	ldrbpl	r4, [r4, #-340]	; 0xfffffeac
     744:	694d0053 	stmdbvs	sp, {r0, r1, r4, r6}^
     748:	6c506970 	mrrcvs	9, 7, r6, r0, cr0
     74c:	6c74436c 	ldclvs	3, cr4, [r4], #-432	; 0xfffffe50
     750:	63614600 	cmnvs	r1, #0, 12
     754:	4b726f74 	blmi	1c9c52c <__bss_end+0x1c993b0>
     758:	63614600 	cmnvs	r1, #0, 12
     75c:	4d726f74 	ldclmi	15, cr6, [r2, #-464]!	; 0xfffffe30
     760:	63614600 	cmnvs	r1, #0, 12
     764:	4e726f74 	mrcmi	15, 3, r6, cr2, cr4, {3}
     768:	62704100 	rsbsvs	r4, r0, #0, 2
     76c:	76694432 			; <UNDEFINED> instruction: 0x76694432
     770:	63614600 	cmnvs	r1, #0, 12
     774:	50726f74 	rsbspl	r6, r2, r4, ror pc
     778:	73657200 	cmnvc	r5, #0, 4
     77c:	65767265 	ldrbvs	r7, [r6, #-613]!	; 0xfffffd9b
     780:	32303264 	eorscc	r3, r0, #100, 4	; 0x40000006
     784:	73657200 	cmnvc	r5, #0, 4
     788:	65767265 	ldrbvs	r7, [r6, #-613]!	; 0xfffffd9b
     78c:	33303264 	teqcc	r0, #100, 4	; 0x40000006
     790:	73657200 	cmnvc	r5, #0, 4
     794:	65767265 	ldrbvs	r7, [r6, #-613]!	; 0xfffffd9b
     798:	34303264 	ldrtcc	r3, [r0], #-612	; 0xfffffd9c
     79c:	73657200 	cmnvc	r5, #0, 4
     7a0:	65767265 	ldrbvs	r7, [r6, #-613]!	; 0xfffffd9b
     7a4:	35303264 	ldrcc	r3, [r0, #-612]!	; 0xfffffd9c
     7a8:	73657200 	cmnvc	r5, #0, 4
     7ac:	65767265 	ldrbvs	r7, [r6, #-613]!	; 0xfffffd9b
     7b0:	36303264 	ldrtcc	r3, [r0], -r4, ror #4
     7b4:	6c6c5000 	stclvs	0, cr5, [ip], #-0
     7b8:	42757047 	rsbsmi	r7, r5, #71	; 0x47
     7bc:	00736169 	rsbseq	r6, r3, r9, ror #2
     7c0:	70737573 	rsbsvc	r7, r3, r3, ror r5
     7c4:	5f646e65 	svcpl	0x00646e65
     7c8:	616c6564 	cmnvs	ip, r4, ror #10
     7cc:	736d5f79 	cmnvc	sp, #484	; 0x1e4
     7d0:	72657300 	rsbvc	r7, r5, #0, 6
     7d4:	5f6c6169 	svcpl	0x006c6169
     7d8:	73747570 	cmnvc	r4, #112, 10	; 0x1c000000
     7dc:	6d6f6e5f 	stclvs	14, cr6, [pc, #-380]!	; 668 <delay_us+0x50>
     7e0:	4700756d 	strmi	r7, [r0, -sp, ror #10]
     7e4:	654d7570 	strbvs	r7, [sp, #-1392]	; 0xfffffa90
     7e8:	6c50006d 	mrrcvs	0, 6, r0, r0, cr13	; <UNPREDICTABLE>
     7ec:	7570476c 	ldrbvc	r4, [r0, #-1900]!	; 0xfffff894
     7f0:	74746150 	ldrbtvc	r6, [r4], #-336	; 0xfffffeb0
     7f4:	006e7265 	rsbeq	r7, lr, r5, ror #4
     7f8:	5f6b6c63 	svcpl	0x006b6c63
     7fc:	00766964 	rsbseq	r6, r6, r4, ror #18
     800:	4d766944 	ldclmi	9, cr6, [r6, #-272]!	; 0xfffffef0
     804:	76694400 	strbtvc	r4, [r9], -r0, lsl #8
     808:	6173004e 	cmnvs	r3, lr, asr #32
     80c:	5f646576 	svcpl	0x00646576
     810:	75636573 	strbvc	r6, [r3, #-1395]!	; 0xfffffa8d
     814:	6d5f6572 	cfldr64vs	mvdx6, [pc, #-456]	; 654 <delay_us+0x3c>
     818:	735f756d 	cmpvc	pc, #457179136	; 0x1b400000
     81c:	65746174 	ldrbvs	r6, [r4, #-372]!	; 0xfffffe8c
     820:	5f4d5000 	svcpl	0x004d5000
     824:	4e415453 	mcrmi	4, 2, r5, cr1, cr3, {2}
     828:	5f594244 	svcpl	0x00594244
     82c:	4e495250 	mcrmi	2, 2, r5, cr9, cr0, {2}
     830:	54535f54 	ldrbpl	r5, [r3], #-3924	; 0xfffff0ac
     834:	42444e41 	submi	r4, r4, #1040	; 0x410
     838:	70410059 	subvc	r0, r1, r9, asr r0
     83c:	65523262 	ldrbvs	r3, [r2, #-610]	; 0xfffffd9e
     840:	00746573 	rsbseq	r6, r4, r3, ror r5
     844:	5f626861 	svcpl	0x00626861
     848:	5f627061 	svcpl	0x00627061
     84c:	00766964 	rsbseq	r6, r6, r4, ror #18
     850:	535f4d50 	cmppl	pc, #80, 26	; 0x1400
     854:	444e4154 	strbmi	r4, [lr], #-340	; 0xfffffeac
     858:	505f5942 	subspl	r5, pc, r2, asr #18
     85c:	544e4952 	strbpl	r4, [lr], #-2386	; 0xfffff6ae
     860:	5f4f495f 	svcpl	0x004f495f
     864:	54415453 	strbpl	r5, [r1], #-1107	; 0xfffffbad
     868:	72005355 	andvc	r5, r0, #1409286145	; 0x54000001
     86c:	72657365 	rsbvc	r7, r5, #-1811939327	; 0x94000001
     870:	31646576 	smccc	18006	; 0x4656
     874:	72003137 	andvc	r3, r0, #-1073741811	; 0xc000000d
     878:	72657365 	rsbvc	r7, r5, #-1811939327	; 0x94000001
     87c:	31646576 	smccc	18006	; 0x4656
     880:	72003237 	andvc	r3, r0, #1879048195	; 0x70000003
     884:	72657365 	rsbvc	r7, r5, #-1811939327	; 0x94000001
     888:	31646576 	smccc	18006	; 0x4656
     88c:	50003337 	andpl	r3, r0, r7, lsr r3
     890:	6f4c6c6c 	svcvs	0x004c6c6c
     894:	70006b63 	andvc	r6, r0, r3, ror #22
     898:	5f316c6c 	svcpl	0x00316c6c
     89c:	006e7574 	rsbeq	r7, lr, r4, ror r5
     8a0:	43435f5f 	movtmi	r5, #16223	; 0x3f5f
     8a4:	505f554d 	subspl	r5, pc, sp, asr #10
     8a8:	5f384c4c 	svcpl	0x00384c4c
     8ac:	30474552 	subcc	r4, r7, r2, asr r5
     8b0:	00383330 	eorseq	r3, r8, r0, lsr r3
     8b4:	43757047 	cmnmi	r5, #71	; 0x47
     8b8:	0065726f 	rsbeq	r7, r5, pc, ror #4
     8bc:	44706549 	ldrbtmi	r6, [r0], #-1353	; 0xfffffab7
     8c0:	00306372 	eorseq	r6, r0, r2, ror r3
     8c4:	5f6d656d 	svcpl	0x006d656d
     8c8:	5f6b6c63 	svcpl	0x006b6c63
     8cc:	5f746573 	svcpl	0x00746573
     8d0:	5f6c6c70 	svcpl	0x006c6c70
     8d4:	74636166 	strbtvc	r6, [r3], #-358	; 0xfffffe9a
     8d8:	4300726f 	movwmi	r7, #623	; 0x26f
     8dc:	6c437570 	cfstr64vs	mvdx7, [r3], {112}	; 0x70
     8e0:	6372536b 	cmnvs	r2, #-1409286143	; 0xac000001
     8e4:	6d656d00 	stclvs	13, cr6, [r5, #-0]
     8e8:	6174735f 	cmnvs	r4, pc, asr r3
     8ec:	5f737574 	svcpl	0x00737574
     8f0:	74696e69 	strbtvc	r6, [r9], #-3689	; 0xfffff197
     8f4:	6d6f6e5f 	stclvs	14, cr6, [pc, #-380]!	; 780 <save_mmu_state>
     8f8:	5f00756d 	svcpl	0x0000756d
     8fc:	7373625f 	cmnvc	r3, #-268435451	; 0xf0000005
     900:	6174735f 	cmnvs	r4, pc, asr r3
     904:	64007472 	strvs	r7, [r0], #-1138	; 0xfffffb8e
     908:	00726361 	rsbseq	r6, r2, r1, ror #6
     90c:	65736572 	ldrbvs	r6, [r3, #-1394]!	; 0xfffffa8e
     910:	64657672 	strbtvs	r7, [r5], #-1650	; 0xfffff98e
     914:	00313831 	eorseq	r3, r1, r1, lsr r8
     918:	68637261 	stmdavs	r3!, {r0, r5, r6, r9, ip, sp, lr}^
     91c:	6d72612f 	ldfvse	f6, [r2, #-188]!	; 0xffffff44
     920:	63616d2f 	cmnvs	r1, #3008	; 0xbc0
     924:	75732d68 	ldrbvc	r2, [r3, #-3432]!	; 0xfffff298
     928:	2f69786e 	svccs	0x0069786e
     92c:	732f6d70 			; <UNDEFINED> instruction: 0x732f6d70
     930:	646e6174 	strbtvs	r6, [lr], #-372	; 0xfffffe8c
     934:	732f7962 			; <UNDEFINED> instruction: 0x732f7962
     938:	72657075 	rsbvc	r7, r5, #117	; 0x75
     93c:	7365722f 	cmnvc	r5, #-268435454	; 0xf0000002
     940:	2f656d75 	svccs	0x00656d75
     944:	75736572 	ldrbvc	r6, [r3, #-1394]!	; 0xfffffa8e
     948:	5f31656d 	svcpl	0x0031656d
     94c:	61705f63 	cmnvs	r0, r3, ror #30
     950:	632e7472 			; <UNDEFINED> instruction: 0x632e7472
     954:	5f4d5000 	svcpl	0x004d5000
     958:	4e415453 	mcrmi	4, 2, r5, cr1, cr3, {2}
     95c:	5f594244 	svcpl	0x00594244
     960:	4e495250 	mcrmi	2, 2, r5, cr9, cr0, {2}
     964:	54475f54 	strbpl	r5, [r7], #-3924	; 0xfffff0ac
     968:	5f535542 	svcpl	0x00535542
     96c:	00474552 	subeq	r4, r7, r2, asr r5
     970:	566c6c50 			; <UNDEFINED> instruction: 0x566c6c50
     974:	6f696465 	svcvs	0x00696465
     978:	73616942 	cmnvc	r1, #1081344	; 0x108000
     97c:	6d656d00 	stclvs	13, cr6, [r5, #-0]
     980:	616c665f 	cmnvs	ip, pc, asr r6
     984:	6c500067 	mrrcvs	0, 6, r0, r0, cr7	; <UNPREDICTABLE>
     988:	7443316c 	strbvc	r3, [r3], #-364	; 0xfffffe94
     98c:	6441006c 	strbvs	r0, [r1], #-108	; 0xffffff94
     990:	6d006164 	stfvss	f6, [r0, #-400]	; 0xfffffe70
     994:	665f6d65 	ldrbvs	r6, [pc], -r5, ror #26
     998:	6873756c 	ldmdavs	r3!, {r2, r3, r5, r6, r8, sl, ip, sp, lr}^
     99c:	626c745f 	rsbvs	r7, ip, #1593835520	; 0x5f000000
     9a0:	696e6900 	stmdbvs	lr!, {r8, fp, sp, lr}^
     9a4:	65705f74 	ldrbvs	r5, [r0, #-3956]!	; 0xfffff08c
     9a8:	6f636672 	svcvs	0x00636672
     9ac:	65746e75 	ldrbvs	r6, [r4, #-3701]!	; 0xfffff18b
     9b0:	5f007372 	svcpl	0x00007372
     9b4:	6d63635f 	stclvs	3, cr6, [r3, #-380]!	; 0xfffffe84
     9b8:	6c705f75 	ldclvs	15, cr5, [r0], #-468	; 0xfffffe2c
     9bc:	725f386c 	subsvc	r3, pc, #108, 16	; 0x6c0000
     9c0:	30306765 	eorscc	r6, r0, r5, ror #14
     9c4:	745f3833 	ldrbvc	r3, [pc], #-2099	; 9cc <skip+0x8>
     9c8:	72657300 	rsbvc	r7, r5, #0, 6
     9cc:	5f6c6169 	svcpl	0x006c6169
     9d0:	74696e69 	strbtvc	r6, [r9], #-3689	; 0xfffff197
     9d4:	6d6f6e5f 	stclvs	14, cr6, [pc, #-380]!	; 860 <save_sp>
     9d8:	5000756d 	andpl	r7, r0, sp, ror #10
     9dc:	43386c6c 	teqmi	r8, #108, 24	; 0x6c00
     9e0:	72006c74 	andvc	r6, r0, #116, 24	; 0x7400
     9e4:	72657365 	rsbvc	r7, r5, #-1811939327	; 0x94000001
     9e8:	31646576 	smccc	18006	; 0x4656
     9ec:	5f5f0030 	svcpl	0x005f0030
     9f0:	554d4343 	strbpl	r4, [sp, #-835]	; 0xfffffcbd
     9f4:	4c4c505f 	mcrrmi	0, 5, r5, ip, cr15
     9f8:	4b434f4c 	blmi	10d4730 <__bss_end+0x10d15b4>
     9fc:	4745525f 	smlsldmi	r5, r5, pc, r2	; <UNPREDICTABLE>
     a00:	30303230 	eorscc	r3, r0, r0, lsr r2
     a04:	73657200 	cmnvc	r5, #0, 4
     a08:	65767265 	ldrbvs	r7, [r6, #-613]!	; 0xfffffd9b
     a0c:	00323164 	eorseq	r3, r2, r4, ror #2
     a10:	63646364 	cmnvs	r4, #100, 6	; 0x90000001
     a14:	65720032 	ldrbvs	r0, [r2, #-50]!	; 0xffffffce
     a18:	76726573 			; <UNDEFINED> instruction: 0x76726573
     a1c:	34316465 	ldrtcc	r6, [r1], #-1125	; 0xfffffb9b
     a20:	73657200 	cmnvc	r5, #0, 4
     a24:	65767265 	ldrbvs	r7, [r6, #-613]!	; 0xfffffd9b
     a28:	00353164 	eorseq	r3, r5, r4, ror #2
     a2c:	65736572 	ldrbvs	r6, [r3, #-1394]!	; 0xfffffa8e
     a30:	64657672 	strbtvs	r7, [r5], #-1650	; 0xfffff98e
     a34:	72003631 	andvc	r3, r0, #51380224	; 0x3100000
     a38:	72657365 	rsbvc	r7, r5, #-1811939327	; 0x94000001
     a3c:	31646576 	smccc	18006	; 0x4656
     a40:	6c500037 	mrrcvs	0, 3, r0, r0, cr7	; <UNPREDICTABLE>
     a44:	7264446c 	rsbvc	r4, r4, #108, 8	; 0x6c000000
     a48:	00676643 	rsbeq	r6, r7, r3, asr #12
     a4c:	65736572 	ldrbvs	r6, [r3, #-1394]!	; 0xfffffa8e
     a50:	64657672 	strbtvs	r7, [r5], #-1650	; 0xfffff98e
     a54:	63003931 	movwvs	r3, #2353	; 0x931
     a58:	6d5f6b6c 	vldrvs	d22, [pc, #-432]	; 8b0 <invalidate_dcache+0x10>
     a5c:	00637369 	rsbeq	r7, r3, r9, ror #6
     a60:	4d6c6c50 	stclmi	12, cr6, [ip, #-320]!	; 0xfffffec0
     a64:	50697069 	rsbpl	r7, r9, r9, rrx
     a68:	65747461 	ldrbvs	r7, [r4, #-1121]!	; 0xfffffb9f
     a6c:	53006e72 	movwpl	r6, #3698	; 0xe72
     a70:	616d6769 	cmnvs	sp, r9, ror #14
     a74:	53006e45 	movwpl	r6, #3653	; 0xe45
     a78:	616d6769 	cmnvs	sp, r9, ror #14
     a7c:	746c6544 	strbtvc	r6, [ip], #-1348	; 0xfffffabc
     a80:	006e4561 	rsbeq	r4, lr, r1, ror #10
     a84:	63646364 	cmnvs	r4, #100, 6	; 0x90000001
     a88:	74740033 	ldrbtvc	r0, [r4], #-51	; 0xffffffcd
     a8c:	00726362 	rsbseq	r6, r2, r2, ror #6
     a90:	33755f5f 	cmncc	r5, #380	; 0x17c
     a94:	656d0032 	strbvs	r0, [sp, #-50]!	; 0xffffffce
     a98:	6c635f6d 	stclvs	15, cr5, [r3], #-436	; 0xfffffe4c
     a9c:	65735f6b 	ldrbvs	r5, [r3, #-3947]!	; 0xfffff095
     aa0:	76696474 			; <UNDEFINED> instruction: 0x76696474
     aa4:	73657200 	cmnvc	r5, #0, 4
     aa8:	31656d75 	smccc	22229	; 0x56d5
     aac:	705f635f 	subsvc	r6, pc, pc, asr r3	; <UNPREDICTABLE>
     ab0:	00747261 	rsbseq	r7, r4, r1, ror #4
     ab4:	786c6c50 	stmdavc	ip!, {r4, r6, sl, fp, sp, lr}^
     ab8:	73616942 	cmnvc	r1, #1081344	; 0x108000
     abc:	6c6c5000 	stclvs	0, cr5, [ip], #-0
     ac0:	6970694d 	ldmdbvs	r0!, {r0, r2, r3, r6, r8, fp, sp, lr}^
     ac4:	73616942 	cmnvc	r1, #1081344	; 0x108000
     ac8:	6c6c5000 	stclvs	0, cr5, [ip], #-0
     acc:	74615031 	strbtvc	r5, [r1], #-49	; 0xffffffcf
     ad0:	6e726574 	mrcvs	5, 3, r6, cr2, cr4, {3}
     ad4:	70694d00 	rsbvc	r4, r9, r0, lsl #26
     ad8:	6c6c5069 	stclvs	0, cr5, [ip], #-420	; 0xfffffe5c
     adc:	006e7554 	rsbeq	r7, lr, r4, asr r5
     ae0:	73746962 	cmnvc	r4, #1605632	; 0x188000
     ae4:	73657200 	cmnvc	r5, #0, 4
     ae8:	65767265 	ldrbvs	r7, [r6, #-613]!	; 0xfffffd9b
     aec:	00313264 	eorseq	r3, r1, r4, ror #4
     af0:	65736572 	ldrbvs	r6, [r3, #-1394]!	; 0xfffffa8e
     af4:	64657672 	strbtvs	r7, [r5], #-1650	; 0xfffff98e
     af8:	50003232 	andpl	r3, r0, r2, lsr r2
     afc:	65566c6c 	ldrbvs	r6, [r6, #-3180]	; 0xfffff394
     b00:	73616942 	cmnvc	r1, #1081344	; 0x108000
     b04:	6c6c5000 	stclvs	0, cr5, [ip], #-0
     b08:	6e755435 	mrcvs	4, 3, r5, cr5, cr5, {1}
     b0c:	69727000 	ldmdbvs	r2!, {ip, sp, lr}^
     b10:	006b746e 	rsbeq	r7, fp, lr, ror #8
     b14:	65736572 	ldrbvs	r6, [r3, #-1394]!	; 0xfffffa8e
     b18:	64657672 	strbtvs	r7, [r5], #-1650	; 0xfffff98e
     b1c:	50003131 	andpl	r3, r0, r1, lsr r1
     b20:	79424c4c 	stmdbvc	r2, {r2, r3, r6, sl, fp, lr}^
     b24:	73736170 	cmnvc	r3, #112, 2
     b28:	73657200 	cmnvc	r5, #0, 4
     b2c:	5f656d75 	svcpl	0x00656d75
     b30:	6e696f70 	mcrvs	15, 3, r6, cr9, cr0, {3}
     b34:	00726574 	rsbseq	r6, r2, r4, ror r5
     b38:	31626841 	cmncc	r2, r1, asr #16
     b3c:	00766944 	rsbseq	r6, r6, r4, asr #18
     b40:	65736572 	ldrbvs	r6, [r3, #-1394]!	; 0xfffffa8e
     b44:	64657672 	strbtvs	r7, [r5], #-1650	; 0xfffff98e
     b48:	72003831 	andvc	r3, r0, #3211264	; 0x310000
     b4c:	72657365 	rsbvc	r7, r5, #-1811939327	; 0x94000001
     b50:	31646576 	smccc	18006	; 0x4656
     b54:	50003133 	andpl	r3, r0, r3, lsr r1
     b58:	43336c6c 	teqmi	r3, #108, 24	; 0x6c00
     b5c:	53006c74 	movwpl	r6, #3188	; 0xc74
     b60:	6c437379 	mcrrvs	3, 7, r7, r3, cr9
     b64:	7669446b 	strbtvc	r4, [r9], -fp, ror #8
     b68:	6c6c5000 	stclvs	0, cr5, [ip], #-0
     b6c:	4f6b6c43 	svcmi	0x006b6c43
     b70:	6e457475 	mcrvs	4, 2, r7, cr5, cr5, {3}
     b74:	635f5f00 	cmpvs	pc, #0, 30
     b78:	5f756d63 	svcpl	0x00756d63
     b7c:	32627061 	rsbcc	r7, r2, #97	; 0x61
     b80:	7461725f 	strbtvc	r7, [r1], #-607	; 0xfffffda1
     b84:	725f6f69 	subsvc	r6, pc, #420	; 0x1a4
     b88:	30306765 	eorscc	r6, r0, r5, ror #14
     b8c:	745f3835 	ldrbvc	r3, [pc], #-2101	; b94 <mem_preload_tlb+0x64>
     b90:	75624d00 	strbvc	r4, [r2, #-3328]!	; 0xfffff300
     b94:	73655273 	cmnvc	r5, #805306375	; 0x30000007
     b98:	65527465 	ldrbvs	r7, [r2, #-1125]	; 0xfffffb9b
     b9c:	70470067 	subvc	r0, r7, r7, rrx
     ba0:	64794875 	ldrbtvs	r4, [r9], #-2165	; 0xfffff78b
     ba4:	75706300 	ldrbvc	r6, [r0, #-768]!	; 0xfffffd00
     ba8:	0064695f 	rsbeq	r6, r4, pc, asr r9
     bac:	52626841 	rsbpl	r6, r2, #4259840	; 0x410000
     bb0:	74657365 	strbtvc	r7, [r5], #-869	; 0xfffffc9b
     bb4:	68410030 	stmdavs	r1, {r4, r5}^
     bb8:	73655262 	cmnvc	r5, #536870918	; 0x20000006
     bbc:	00317465 	eorseq	r7, r1, r5, ror #8
     bc0:	52626841 	rsbpl	r6, r2, #4259840	; 0x410000
     bc4:	74657365 	strbtvc	r7, [r5], #-869	; 0xfffffc9b
     bc8:	70630032 	rsbvc	r0, r3, r2, lsr r0
     bcc:	725f3275 	subsvc	r3, pc, #1342177287	; 0x50000007
     bd0:	74657365 	strbtvc	r7, [r5], #-869	; 0xfffffc9b
     bd4:	6e756600 	cdpvs	6, 7, cr6, cr5, cr0, {0}
     bd8:	6e655f63 	cdpvs	15, 6, cr5, cr5, cr3, {3}
     bdc:	00797274 	rsbseq	r7, r9, r4, ror r2
     be0:	456d6453 	strbmi	r6, [sp, #-1107]!	; 0xfffffbad
     be4:	7041006e 	subvc	r0, r1, lr, rrx
     be8:	61473262 	cmpvs	r7, r2, ror #4
     bec:	5f006574 	svcpl	0x00006574
     bf0:	4d43435f 	stclmi	3, cr4, [r3, #-380]	; 0xfffffe84
     bf4:	494d5f55 	stmdbmi	sp, {r0, r2, r4, r6, r8, r9, sl, fp, ip, lr}^
     bf8:	505f4950 	subspl	r4, pc, r0, asr r9	; <UNPREDICTABLE>
     bfc:	525f4c4c 	subspl	r4, pc, #76, 24	; 0x4c00
     c00:	30304745 	eorscc	r4, r0, r5, asr #14
     c04:	50003034 	andpl	r3, r0, r4, lsr r0
     c08:	4c316c6c 	ldcmi	12, cr6, [r1], #-432	; 0xfffffe50
     c0c:	006b636f 	rsbeq	r6, fp, pc, ror #6
     c10:	446c6c50 	strbtmi	r6, [ip], #-3152	; 0xfffff3b0
     c14:	306d6172 	rsbcc	r6, sp, r2, ror r1
     c18:	73616942 	cmnvc	r1, #1081344	; 0x108000
     c1c:	70786100 	rsbsvc	r6, r8, r0, lsl #2
     c20:	6576655f 	ldrbvs	r6, [r6, #-1375]!	; 0xfffffaa1
     c24:	5300746e 	movwpl	r7, #1134	; 0x46e
     c28:	32366c65 	eorscc	r6, r6, #25856	; 0x6500
     c2c:	37724f35 			; <UNDEFINED> instruction: 0x37724f35
     c30:	5f003035 	svcpl	0x00003035
     c34:	6d63635f 	stclvs	3, cr6, [r3, #-380]!	; 0xfffffe84
     c38:	6c705f75 	ldclvs	15, cr5, [r0], #-468	; 0xfffffe2c
     c3c:	725f326c 	subsvc	r3, pc, #108, 4	; 0xc0000006
     c40:	30306765 	eorscc	r6, r0, r5, ror #14
     c44:	745f3830 	ldrbvc	r3, [pc], #-2096	; c4c <disable_mmu+0x10>
     c48:	61724400 	cmnvs	r2, r0, lsl #8
     c4c:	7461476d 	strbtvc	r4, [r1], #-1901	; 0xfffff893
     c50:	68410065 	stmdavs	r1, {r0, r2, r5, r6}^
     c54:	6c433162 	stfvse	f3, [r3], {98}	; 0x62
     c58:	6372536b 	cmnvs	r2, #-1409286143	; 0xac000001
     c5c:	6c6c5000 	stclvs	0, cr5, [ip], #-0
     c60:	69426544 	stmdbvs	r2, {r2, r6, r8, sl, sp, lr}^
     c64:	41007361 	tstmi	r0, r1, ror #6
     c68:	44316270 	ldrtmi	r6, [r1], #-624	; 0xfffffd90
     c6c:	4d007669 	stcmi	6, cr7, [r0, #-420]	; 0xfffffe5c
     c70:	5365646f 	cmnpl	r5, #1862270976	; 0x6f000000
     c74:	46006c65 	strmi	r6, [r0], -r5, ror #24
     c78:	42646565 	rsbmi	r6, r4, #423624704	; 0x19400000
     c7c:	446b6361 	strbtmi	r6, [fp], #-865	; 0xfffffc9f
     c80:	72007669 	andvc	r7, r0, #110100480	; 0x6900000
     c84:	72657365 	rsbvc	r7, r5, #-1811939327	; 0x94000001
     c88:	35646576 	strbcc	r6, [r4, #-1398]!	; 0xfffffa8a
     c8c:	6c500031 	mrrcvs	0, 3, r0, r0, cr1	; <UNPREDICTABLE>
     c90:	7443356c 	strbvc	r3, [r3], #-1388	; 0xfffffa94
     c94:	6c63006c 	stclvs	0, cr0, [r3], #-432	; 0xfffffe50
     c98:	69645f6b 	stmdbvs	r4!, {r0, r1, r3, r5, r6, r8, r9, sl, fp, ip, lr}^
     c9c:	00745f76 	rsbseq	r5, r4, r6, ror pc
     ca0:	43435f5f 	movtmi	r5, #16223	; 0x3f5f
     ca4:	505f554d 	subspl	r5, pc, sp, asr #10
     ca8:	5f354c4c 	svcpl	0x00354c4c
     cac:	30474552 	subcc	r4, r7, r2, asr r5
     cb0:	00303230 	eorseq	r3, r0, r0, lsr r2
     cb4:	76694453 			; <UNDEFINED> instruction: 0x76694453
     cb8:	4c500032 	mrrcmi	0, 3, r0, r0, cr2	; <UNPREDICTABLE>
     cbc:	006e454c 	rsbeq	r4, lr, ip, asr #10
     cc0:	63635f5f 	cmnvs	r3, #380	; 0x17c
     cc4:	705f756d 	subsvc	r7, pc, sp, ror #10
     cc8:	5f316c6c 	svcpl	0x00316c6c
     ccc:	30676572 	rsbcc	r6, r7, r2, ror r5
     cd0:	5f303030 	svcpl	0x00303030
     cd4:	6c500074 	mrrcvs	0, 7, r0, r0, cr4	; <UNPREDICTABLE>
     cd8:	7264446c 	rsbvc	r4, r4, #108, 8	; 0x6c000000
     cdc:	6c744331 	ldclvs	3, cr4, [r4], #-196	; 0xffffff3c
     ce0:	435f5f00 	cmpmi	pc, #0, 30
     ce4:	5f554d43 	svcpl	0x00554d43
     ce8:	324c4c50 	subcc	r4, ip, #80, 24	; 0x5000
     cec:	4745525f 	smlsldmi	r5, r5, pc, r2	; <UNPREDICTABLE>
     cf0:	38303030 	ldmdacc	r0!, {r4, r5, ip, sp}
     cf4:	62744100 	rsbsvs	r4, r4, #0, 2
     cf8:	43627041 	cmnmi	r2, #65	; 0x41
     cfc:	69446b6c 	stmdbvs	r4, {r2, r3, r5, r6, r8, r9, fp, sp, lr}^
     d00:	65730076 	ldrbvs	r0, [r3, #-118]!	; 0xffffff8a
     d04:	6c705f74 	ldclvs	15, cr5, [r0], #-464	; 0xfffffe30
     d08:	6173006c 	cmnvs	r3, ip, rrx
     d0c:	6d5f6576 	cfldr64vs	mvdx6, [pc, #-472]	; b3c <mem_preload_tlb+0xc>
     d10:	735f6d65 	cmpvc	pc, #6464	; 0x1940
     d14:	75746174 	ldrbvc	r6, [r4, #-372]!	; 0xfffffe8c
     d18:	6f6e5f73 	svcvs	0x006e5f73
     d1c:	00756d6d 	rsbseq	r6, r5, sp, ror #26
     d20:	31627041 	cmncc	r2, r1, asr #32
     d24:	65736552 	ldrbvs	r6, [r3, #-1362]!	; 0xfffffaae
     d28:	68630074 	stmdavs	r3!, {r2, r4, r5, r6}^
     d2c:	65676e61 	strbvs	r6, [r7, #-3681]!	; 0xfffff19f
     d30:	6e75725f 	mrcvs	2, 3, r7, cr5, cr15, {2}
     d34:	656d6974 	strbvs	r6, [sp, #-2420]!	; 0xfffff68c
     d38:	766e655f 			; <UNDEFINED> instruction: 0x766e655f
     d3c:	6f644c00 	svcvs	0x00644c00
     d40:	006e4531 	rsbeq	r4, lr, r1, lsr r5
     d44:	65736572 	ldrbvs	r6, [r3, #-1394]!	; 0xfffffa8e
     d48:	64657672 	strbtvs	r7, [r5], #-1650	; 0xfffff98e
     d4c:	65720030 	ldrbvs	r0, [r2, #-48]!	; 0xffffffd0
     d50:	76726573 			; <UNDEFINED> instruction: 0x76726573
     d54:	00316465 	eorseq	r6, r1, r5, ror #8
     d58:	65736572 	ldrbvs	r6, [r3, #-1394]!	; 0xfffffa8e
     d5c:	64657672 	strbtvs	r7, [r5], #-1650	; 0xfffff98e
     d60:	65720032 	ldrbvs	r0, [r2, #-50]!	; 0xffffffce
     d64:	76726573 			; <UNDEFINED> instruction: 0x76726573
     d68:	00336465 	eorseq	r6, r3, r5, ror #8
     d6c:	65736572 	ldrbvs	r6, [r3, #-1394]!	; 0xfffffa8e
     d70:	64657672 	strbtvs	r7, [r5], #-1650	; 0xfffff98e
     d74:	65720034 	ldrbvs	r0, [r2, #-52]!	; 0xffffffcc
     d78:	76726573 			; <UNDEFINED> instruction: 0x76726573
     d7c:	00356465 	eorseq	r6, r5, r5, ror #8
     d80:	65736572 	ldrbvs	r6, [r3, #-1394]!	; 0xfffffa8e
     d84:	64657672 	strbtvs	r7, [r5], #-1650	; 0xfffff98e
     d88:	65720036 	ldrbvs	r0, [r2, #-54]!	; 0xffffffca
     d8c:	76726573 			; <UNDEFINED> instruction: 0x76726573
     d90:	00376465 	eorseq	r6, r7, r5, ror #8
     d94:	65736572 	ldrbvs	r6, [r3, #-1394]!	; 0xfffffa8e
     d98:	64657672 	strbtvs	r7, [r5], #-1650	; 0xfffff98e
     d9c:	65730039 	ldrbvs	r0, [r3, #-57]!	; 0xffffffc7
     da0:	6c616972 	stclvs	9, cr6, [r1], #-456	; 0xfffffe38
     da4:	7475705f 	ldrbtvc	r7, [r5], #-95	; 0xffffffa1
     da8:	6c500073 	mrrcvs	0, 7, r0, r0, cr3	; <UNPREDICTABLE>
     dac:	5065446c 	rsbpl	r4, r5, ip, ror #8
     db0:	65747461 	ldrbvs	r7, [r4, #-1121]!	; 0xfffffb9f
     db4:	63006e72 	movwvs	r6, #3698	; 0xe72
     db8:	00726361 	rsbseq	r6, r2, r1, ror #6
     dbc:	5f727770 	svcpl	0x00727770
     dc0:	00676572 	rsbeq	r6, r7, r2, ror r5
     dc4:	30697343 	rsbcc	r7, r9, r3, asr #6
     dc8:	61766d00 	cmnvs	r6, r0, lsl #26
     dcc:	6464615f 	strbtvs	r6, [r4], #-351	; 0xfffffea1
     dd0:	72460072 	subvc	r0, r6, #114	; 0x72
     dd4:	6f4d6361 	svcvs	0x004d6361
     dd8:	4d500064 	ldclmi	0, cr0, [r0, #-400]	; 0xfffffe70
     ddc:	4154535f 	cmpmi	r4, pc, asr r3
     de0:	5942444e 	stmdbpl	r2, {r1, r2, r3, r6, sl, lr}^
     de4:	4952505f 	ldmdbmi	r2, {r0, r1, r2, r3, r4, r6, ip, lr}^
     de8:	435f544e 	cmpmi	pc, #1308622848	; 0x4e000000
     dec:	30344943 	eorscc	r4, r4, r3, asr #18
     df0:	45525f30 	ldrbmi	r5, [r2, #-3888]	; 0xfffff0d0
     df4:	5f5f0047 	svcpl	0x005f0047
     df8:	70003875 	andvc	r3, r0, r5, ror r8
     dfc:	00727272 	rsbseq	r7, r2, r2, ror r2
     e00:	416c6c50 	cmnmi	ip, r0, asr ip
     e04:	6f696475 	svcvs	0x00696475
     e08:	74746150 	ldrbtvc	r6, [r4], #-336	; 0xfffffeb0
     e0c:	006e7265 	rsbeq	r7, lr, r5, ror #4
     e10:	5f627474 	svcpl	0x00627474
     e14:	53007230 	movwpl	r7, #560	; 0x230
     e18:	00306970 	eorseq	r6, r0, r0, ror r9
     e1c:	31697053 	qdsubcc	r7, r3, r9
     e20:	62684100 	rsbvs	r4, r8, #0, 2
     e24:	65746147 	ldrbvs	r6, [r4, #-327]!	; 0xfffffeb9
     e28:	65720030 	ldrbvs	r0, [r2, #-48]!	; 0xffffffd0
     e2c:	76726573 			; <UNDEFINED> instruction: 0x76726573
     e30:	30326465 	eorscc	r6, r2, r5, ror #8
     e34:	41003135 	tstmi	r0, r5, lsr r1
     e38:	61476268 	cmpvs	r7, r8, ror #4
     e3c:	00316574 	eorseq	r6, r1, r4, ror r5
     e40:	52756d43 	rsbspl	r6, r5, #4288	; 0x10c0
     e44:	5f006765 	svcpl	0x00006765
     e48:	6d63635f 	stclvs	3, cr6, [r3, #-380]!	; 0xfffffe84
     e4c:	6c705f75 	ldclvs	15, cr5, [r0], #-468	; 0xfffffe2c
     e50:	636f6c6c 	cmnvs	pc, #108, 24	; 0x6c00
     e54:	65725f6b 	ldrbvs	r5, [r2, #-3947]!	; 0xfffff095
     e58:	30323067 	eorscc	r3, r2, r7, rrx
     e5c:	00745f30 	rsbseq	r5, r4, r0, lsr pc
     e60:	506c6c50 	rsbpl	r6, ip, r0, asr ip
     e64:	70697265 	rsbvc	r7, r9, r5, ror #4
     e68:	61694268 	cmnvs	r9, r8, ror #4
     e6c:	4d500073 	ldclmi	0, cr0, [r0, #-460]	; 0xfffffe34
     e70:	4154535f 	cmpmi	r4, pc, asr r3
     e74:	5942444e 	stmdbpl	r2, {r1, r2, r3, r6, sl, lr}^
     e78:	5345545f 	movtpl	r5, #21599	; 0x545f
     e7c:	65720054 	ldrbvs	r0, [r2, #-84]!	; 0xffffffac
     e80:	76726573 			; <UNDEFINED> instruction: 0x76726573
     e84:	30316465 	eorscc	r6, r1, r5, ror #8
     e88:	72460031 	subvc	r0, r6, #49	; 0x31
     e8c:	6f4d6361 	svcvs	0x004d6361
     e90:	6e006564 	cfsh32vs	mvfx6, mvfx0, #52
     e94:	00727272 	rsbseq	r7, r2, r2, ror r2
     e98:	50706d74 	rsbspl	r6, r0, r4, ror sp
     e9c:	6d007274 	sfmvs	f7, 4, [r0, #-464]	; 0xfffffe30
     ea0:	705f6d65 	subsvc	r6, pc, r5, ror #26
     ea4:	5f617261 	svcpl	0x00617261
     ea8:	6f666e69 	svcvs	0x00666e69
     eac:	635f5f00 	cmpvs	pc, #0, 30
     eb0:	5f756d63 	svcpl	0x00756d63
     eb4:	5f676572 	svcpl	0x00676572
     eb8:	7473696c 	ldrbtvc	r6, [r3], #-2412	; 0xfffff694
     ebc:	6300745f 	movwvs	r7, #1119	; 0x45f
     ec0:	6d5f6b6c 	vldrvs	d22, [pc, #-432]	; d18 <jump_to_resume0_nommu+0x18>
     ec4:	5f637369 	svcpl	0x00637369
     ec8:	6c500074 	mrrcvs	0, 7, r0, r0, cr4	; <UNPREDICTABLE>
     ecc:	6172446c 	cmnvs	r2, ip, ror #8
     ed0:	6942316d 	stmdbvs	r2, {r0, r2, r3, r5, r6, r8, ip, sp}^
     ed4:	65527361 	ldrbvs	r7, [r2, #-865]	; 0xfffffc9f
     ed8:	79730067 	ldmdbvc	r3!, {r0, r1, r2, r5, r6}^
     edc:	76655f73 	uqsub16vc	r5, r5, r3
     ee0:	00746e65 	rsbseq	r6, r4, r5, ror #28
     ee4:	366c6c70 			; <UNDEFINED> instruction: 0x366c6c70
     ee8:	6169625f 	cmnvs	r9, pc, asr r2
     eec:	6c500073 	mrrcvs	0, 7, r0, r0, cr3	; <UNPREDICTABLE>
     ef0:	4d34326c 	lfmmi	f3, 4, [r4, #-432]!	; 0xfffffe50
     ef4:	76696450 			; <UNDEFINED> instruction: 0x76696450
     ef8:	61724400 	cmnvs	r2, r0, lsl #8
     efc:	6766436d 	strbvs	r4, [r6, -sp, ror #6]!
     f00:	635f5f00 	cmpvs	pc, #0, 30
     f04:	5f756d63 	svcpl	0x00756d63
     f08:	31626861 	cmncc	r2, r1, ror #16
     f0c:	7461725f 	strbtvc	r7, [r1], #-607	; 0xfffffda1
     f10:	725f6f69 	subsvc	r6, pc, #420	; 0x1a4
     f14:	30306765 	eorscc	r6, r0, r5, ror #14
     f18:	745f3435 	ldrbvc	r3, [pc], #-1077	; f20 <__save_processor_state+0x170>
     f1c:	6c6c7000 	stclvs	0, cr7, [ip], #-0
     f20:	69625f31 	stmdbvs	r2!, {r0, r4, r5, r8, r9, sl, fp, ip, lr}^
     f24:	74007361 	strvc	r7, [r0], #-865	; 0xfffffc9f
     f28:	315f6274 	cmpcc	pc, r4, ror r2	; <UNPREDICTABLE>
     f2c:	65730072 	ldrbvs	r0, [r3, #-114]!	; 0xffffff8e
     f30:	6f635f74 	svcvs	0x00635f74
     f34:	5f6f7270 	svcpl	0x006f7270
     f38:	61666564 	cmnvs	r6, r4, ror #10
     f3c:	00746c75 	rsbseq	r6, r4, r5, ror ip
     f40:	65736572 	ldrbvs	r6, [r3, #-1394]!	; 0xfffffa8e
     f44:	64657672 	strbtvs	r7, [r5], #-1650	; 0xfffff98e
     f48:	50003138 	andpl	r3, r0, r8, lsr r1
     f4c:	54535f4d 	ldrbpl	r5, [r3], #-3917	; 0xfffff0b3
     f50:	42444e41 	submi	r4, r4, #1040	; 0x410
     f54:	52505f59 	subspl	r5, r0, #356	; 0x164
     f58:	5f544e49 	svcpl	0x00544e49
     f5c:	48434143 	stmdami	r3, {r0, r1, r6, r8, lr}^
     f60:	4c545f45 	mrrcmi	15, 4, r5, r4, cr5
     f64:	494d5f42 	stmdbmi	sp, {r1, r6, r8, r9, sl, fp, ip, lr}^
     f68:	72005353 	andvc	r5, r0, #1275068417	; 0x4c000001
     f6c:	72657365 	rsbvc	r7, r5, #-1811939327	; 0x94000001
     f70:	31646576 	smccc	18006	; 0x4656
     f74:	64003131 	strvs	r3, [r0], #-305	; 0xfffffecf
     f78:	79616c65 	stmdbvc	r1!, {r0, r2, r5, r6, sl, fp, sp, lr}^
     f7c:	0073755f 	rsbseq	r7, r3, pc, asr r5
     f80:	446c6c50 	strbtmi	r6, [ip], #-3152	; 0xfffff3b0
     f84:	316d6172 	smccc	54802	; 0xd612
     f88:	74746150 	ldrbtvc	r6, [r4], #-336	; 0xfffffeb0
     f8c:	526e7265 	rsbpl	r7, lr, #1342177286	; 0x50000006
     f90:	00306765 	eorseq	r6, r0, r5, ror #14
     f94:	446c6c50 	strbtmi	r6, [ip], #-3152	; 0xfffff3b0
     f98:	316d6172 	smccc	54802	; 0xd612
     f9c:	74746150 	ldrbtvc	r6, [r4], #-336	; 0xfffffeb0
     fa0:	526e7265 	rsbpl	r7, lr, #1342177286	; 0x50000006
     fa4:	00316765 	eorseq	r6, r1, r5, ror #14
     fa8:	65736572 	ldrbvs	r6, [r3, #-1394]!	; 0xfffffa8e
     fac:	64657672 	strbtvs	r7, [r5], #-1650	; 0xfffff98e
     fb0:	00313631 	eorseq	r3, r1, r1, lsr r6
     fb4:	6b636f4c 	blvs	18dccec <__bss_end+0x18d9b70>
     fb8:	656d6954 	strbvs	r6, [sp, #-2388]!	; 0xfffff6ac
     fbc:	62684100 	rsbvs	r4, r8, #0, 2
     fc0:	65725031 	ldrbvs	r5, [r2, #-49]!	; 0xffffffcf
     fc4:	00766944 	rsbseq	r6, r6, r4, asr #18
     fc8:	566c6c50 			; <UNDEFINED> instruction: 0x566c6c50
     fcc:	6f696465 	svcvs	0x00696465
     fd0:	74746150 	ldrbtvc	r6, [r4], #-336	; 0xfffffeb0
     fd4:	006e7265 	rsbeq	r7, lr, r5, ror #4
     fd8:	566c6c50 			; <UNDEFINED> instruction: 0x566c6c50
     fdc:	74615065 	strbtvc	r5, [r1], #-101	; 0xffffff9b
     fe0:	6e726574 	mrcvs	5, 3, r6, cr2, cr4, {3}
     fe4:	73657200 	cmnvc	r5, #0, 4
     fe8:	65767265 	ldrbvs	r7, [r6, #-613]!	; 0xfffffd9b
     fec:	31303264 	teqcc	r0, r4, ror #4
     ff0:	73657200 	cmnvc	r5, #0, 4
     ff4:	65767265 	ldrbvs	r7, [r6, #-613]!	; 0xfffffd9b
     ff8:	58410064 	stmdapl	r1, {r2, r5, r6}^
     ffc:	6b6c4349 	blvs	1b11d28 <__bss_end+0x1b0ebac>
    1000:	00766944 	rsbseq	r6, r6, r4, asr #18
    1004:	31627041 	cmncc	r2, r1, asr #32
    1008:	65746147 	ldrbvs	r6, [r4, #-327]!	; 0xfffffeb9
    100c:	73657200 	cmnvc	r5, #0, 4
    1010:	65767265 	ldrbvs	r7, [r6, #-613]!	; 0xfffffd9b
    1014:	00313964 	eorseq	r3, r1, r4, ror #18
    1018:	65736572 	ldrbvs	r6, [r3, #-1394]!	; 0xfffffa8e
    101c:	64657672 	strbtvs	r7, [r5], #-1650	; 0xfffff98e
    1020:	72003239 	andvc	r3, r0, #-1879048189	; 0x90000003
    1024:	72657365 	rsbvc	r7, r5, #-1811939327	; 0x94000001
    1028:	39646576 	stmdbcc	r4!, {r1, r2, r4, r5, r6, r8, sl, sp, lr}^
    102c:	73630033 	cmnvc	r3, #51	; 0x33
    1030:	50007273 	andpl	r7, r0, r3, ror r2
    1034:	54535f4d 	ldrbpl	r5, [r3], #-3917	; 0xfffff0b3
    1038:	42444e41 	submi	r4, r4, #1040	; 0x410
    103c:	52505f59 	subspl	r5, r0, #356	; 0x164
    1040:	5f544e49 	svcpl	0x00544e49
    1044:	53555043 	cmppl	r5, #67	; 0x43
    1048:	5f4f495f 	svcpl	0x004f495f
    104c:	54415453 	strbpl	r5, [r1], #-1107	; 0xfffffbad
    1050:	72005355 	andvc	r5, r0, #1409286145	; 0x54000001
    1054:	72657365 	rsbvc	r7, r5, #-1811939327	; 0x94000001
    1058:	31646576 	smccc	18006	; 0x4656
    105c:	50003132 	andpl	r3, r0, r2, lsr r1
    1060:	43326c6c 	teqmi	r2, #108, 24	; 0x6c00
    1064:	5f006c74 	svcpl	0x00006c74
    1068:	4d43435f 	stclmi	3, cr4, [r3, #-380]	; 0xfffffe84
    106c:	45525f55 	ldrbmi	r5, [r2, #-3925]	; 0xfffff0ab
    1070:	494c5f47 	stmdbmi	ip, {r0, r1, r2, r6, r8, r9, sl, fp, ip, lr}^
    1074:	50005453 	andpl	r5, r0, r3, asr r4
    1078:	54535f4d 	ldrbpl	r5, [r3], #-3917	; 0xfffff0b3
    107c:	42444e41 	submi	r4, r4, #1040	; 0x410
    1080:	52505f59 	subspl	r5, r0, #356	; 0x164
    1084:	5f544e49 	svcpl	0x00544e49
    1088:	55534552 	ldrbpl	r4, [r3, #-1362]	; 0xfffffaae
    108c:	4e00454d 	cfsh32mi	mvfx4, mvfx0, #45
    1090:	30646e61 	rsbcc	r6, r4, r1, ror #28
    1094:	5f4d5000 	svcpl	0x004d5000
    1098:	4e415453 	mcrmi	4, 2, r5, cr1, cr3, {2}
    109c:	5f594244 	svcpl	0x00594244
    10a0:	4e495250 	mcrmi	2, 2, r5, cr9, cr0, {2}
    10a4:	57505f54 			; <UNDEFINED> instruction: 0x57505f54
    10a8:	54535f52 	ldrbpl	r5, [r3], #-3922	; 0xfffff0ae
    10ac:	53555441 	cmppl	r5, #1090519040	; 0x41000000
    10b0:	5f776100 	svcpl	0x00776100
    10b4:	5f6d656d 	svcpl	0x006d656d
    10b8:	61726170 	cmnvs	r2, r0, ror r1
    10bc:	435f5f00 	cmpmi	pc, #0, 30
    10c0:	5f554d43 	svcpl	0x00554d43
    10c4:	364c4c50 			; <UNDEFINED> instruction: 0x364c4c50
    10c8:	4745525f 	smlsldmi	r5, r5, pc, r2	; <UNPREDICTABLE>
    10cc:	38323030 	ldmdacc	r2!, {r4, r5, ip, sp}
    10d0:	6c6c5000 	stclvs	0, cr5, [ip], #-0
    10d4:	6c744339 	ldclvs	3, cr4, [r4], #-228	; 0xffffff1c
    10d8:	5f707300 	svcpl	0x00707300
    10dc:	6b636162 	blvs	18d966c <__bss_end+0x18d64f0>
    10e0:	6c007075 	stcvs	0, cr7, [r0], {117}	; 0x75
    10e4:	5f706f6f 	svcpl	0x00706f6f
    10e8:	67616c66 	strbvs	r6, [r1, -r6, ror #24]!
    10ec:	6f687300 	svcvs	0x00687300
    10f0:	656d5f77 	strbvs	r5, [sp, #-3959]!	; 0xfffff089
    10f4:	74735f6d 	ldrbtvc	r5, [r3], #-3949	; 0xfffff093
    10f8:	73757461 	cmnvc	r5, #1627389952	; 0x61000000
    10fc:	73756200 	cmnvc	r5, #0, 4
    1100:	61775f79 	cmnvs	r7, r9, ror pc
    1104:	6e697469 	cdpvs	4, 6, cr7, cr9, cr9, {3}
    1108:	61640067 	cmnvs	r4, r7, rrx
    110c:	69006174 	stmdbvs	r0, {r2, r4, r5, r6, r8, sp, lr}
    1110:	69685f6f 	stmdbvs	r8!, {r0, r1, r2, r3, r5, r6, r8, r9, sl, fp, ip, lr}^
    1114:	73006867 	movwvc	r6, #2151	; 0x867
    1118:	5f657661 	svcpl	0x00657661
    111c:	78757063 	ldmdavc	r5!, {r0, r1, r5, r6, ip, sp, lr}^
    1120:	6d656d5f 	stclvs	13, cr6, [r5, #-380]!	; 0xfffffe84
    1124:	6174735f 	cmnvs	r4, pc, asr r3
    1128:	5f737574 	svcpl	0x00737574
    112c:	6d6d6f6e 	stclvs	15, cr6, [sp, #-440]!	; 0xfffffe48
    1130:	656d0075 	strbvs	r0, [sp, #-117]!	; 0xffffff8b
    1134:	74735f6d 	ldrbtvc	r5, [r3], #-3949	; 0xfffff093
    1138:	73757461 	cmnvc	r5, #1627389952	; 0x61000000
    113c:	6978655f 	ldmdbvs	r8!, {r0, r1, r2, r3, r4, r6, r8, sl, sp, lr}^
    1140:	6f690074 	svcvs	0x00690074
    1144:	696e695f 	stmdbvs	lr!, {r0, r1, r2, r3, r4, r6, r8, fp, sp, lr}^
    1148:	72610074 	rsbvc	r0, r1, #116	; 0x74
    114c:	612f6863 			; <UNDEFINED> instruction: 0x612f6863
    1150:	6d2f6d72 	stcvs	13, cr6, [pc, #-456]!	; f90 <__save_processor_state+0x1e0>
    1154:	2d686361 	stclcs	3, cr6, [r8, #-388]!	; 0xfffffe7c
    1158:	786e7573 	stmdavc	lr!, {r0, r1, r4, r5, r6, r8, sl, ip, sp, lr}^
    115c:	6d702f69 	ldclvs	15, cr2, [r0, #-420]!	; 0xfffffe5c
    1160:	6174732f 	cmnvs	r4, pc, lsr #6
    1164:	7962646e 	stmdbvc	r2!, {r1, r2, r3, r5, r6, sl, sp, lr}^
    1168:	2f2e2e2f 	svccs	0x002e2e2f
    116c:	645f6d70 	ldrbvs	r6, [pc], #-3440	; 1174 <__save_processor_state+0x3c4>
    1170:	67756265 	ldrbvs	r6, [r5, -r5, ror #4]!
    1174:	6700632e 	strvs	r6, [r0, -lr, lsr #6]
    1178:	6d5f7465 	cfldrdvs	mvd7, [pc, #-404]	; fec <__save_processor_state+0x23c>
    117c:	735f6d65 	cmpvc	pc, #6464	; 0x1940
    1180:	75746174 	ldrbvc	r6, [r4, #-372]!	; 0xfffffe8c
    1184:	656d0073 	strbvs	r0, [sp, #-115]!	; 0xffffff8d
    1188:	74735f6d 	ldrbtvc	r5, [r3], #-3949	; 0xfffff093
    118c:	73757461 	cmnvc	r5, #1627389952	; 0x61000000
    1190:	656c635f 	strbvs	r6, [ip, #-863]!	; 0xfffffca1
    1194:	70007261 	andvc	r7, r0, r1, ror #4
    1198:	746e6972 	strbtvc	r6, [lr], #-2418	; 0xfffff68e
    119c:	616c665f 	cmnvs	ip, pc, asr r6
    11a0:	6f690067 	svcvs	0x00690067
    11a4:	696e695f 	stmdbvs	lr!, {r0, r1, r2, r3, r4, r6, r8, fp, sp, lr}^
    11a8:	6f6c5f74 	svcvs	0x006c5f74
    11ac:	6f690077 	svcvs	0x00690077
    11b0:	696e695f 	stmdbvs	lr!, {r0, r1, r2, r3, r4, r6, r8, fp, sp, lr}^
    11b4:	69685f74 	stmdbvs	r8!, {r2, r4, r5, r6, r8, r9, sl, fp, ip, lr}^
    11b8:	63006867 	movwvs	r6, #2151	; 0x867
    11bc:	746e756f 	strbtvc	r7, [lr], #-1391	; 0xfffffa91
    11c0:	655f7265 	ldrbvs	r7, [pc, #-613]	; f63 <__save_processor_state+0x1b3>
    11c4:	6c62616e 	stfvse	f6, [r2], #-440	; 0xfffffe48
    11c8:	61740065 	cmnvs	r4, r5, rrx
    11cc:	74656772 	strbtvc	r6, [r5], #-1906	; 0xfffff88e
    11d0:	73657200 	cmnvc	r5, #0, 4
    11d4:	65726f74 	ldrbvs	r6, [r2, #-3956]!	; 0xfffff08c
    11d8:	7265705f 	rsbvc	r7, r5, #95	; 0x5f
    11dc:	756f6366 	strbvc	r6, [pc, #-870]!	; e7e <__save_processor_state+0xce>
    11e0:	7265746e 	rsbvc	r7, r5, #1845493760	; 0x6e000000
    11e4:	65766f00 	ldrbvs	r6, [r6, #-3840]!	; 0xfffff100
    11e8:	61656872 	smcvs	22146	; 0x5682
    11ec:	65670064 	strbvs	r0, [r7, #-100]!	; 0xffffff9c
    11f0:	76655f74 	uqsub16vc	r5, r5, r4
    11f4:	5f746e65 	svcpl	0x00746e65
    11f8:	6e756f63 	cdpvs	15, 7, cr6, cr5, cr3, {3}
    11fc:	00726574 	rsbseq	r6, r2, r4, ror r5
    1200:	62616e65 	rsbvs	r6, r1, #1616	; 0x650
    1204:	645f656c 	ldrbvs	r6, [pc], #-1388	; 120c <__restore_processor_state+0x58>
    1208:	64697669 	strbtvs	r7, [r9], #-1641	; 0xfffff997
    120c:	72007265 	andvc	r7, r0, #1342177286	; 0x50000006
    1210:	74657365 	strbtvc	r7, [r5], #-869	; 0xfffffc9b
    1214:	756f635f 	strbvc	r6, [pc, #-863]!	; ebd <__save_processor_state+0x10d>
    1218:	7265746e 	rsbvc	r7, r5, #1845493760	; 0x6e000000
    121c:	63616200 	cmnvs	r1, #0, 4
    1220:	5f70756b 	svcpl	0x0070756b
    1224:	66726570 			; <UNDEFINED> instruction: 0x66726570
    1228:	756f635f 	strbvc	r6, [pc, #-863]!	; ed1 <__save_processor_state+0x121>
    122c:	7265746e 	rsbvc	r7, r5, #1845493760	; 0x6e000000
    1230:	616e655f 	cmnvs	lr, pc, asr r5
    1234:	5f656c62 	svcpl	0x00656c62
    1238:	00676572 	rsbeq	r6, r7, r2, ror r5
    123c:	41435f49 	cmpmi	r3, r9, asr #30
    1240:	5f454843 	svcpl	0x00454843
    1244:	5353494d 	cmppl	r3, #1261568	; 0x134000
    1248:	5f737500 	svcpl	0x00737500
    124c:	00746e63 	rsbseq	r6, r4, r3, ror #28
    1250:	65746e63 	ldrbvs	r6, [r4, #-3683]!	; 0xfffff19d
    1254:	6f640072 	svcvs	0x00640072
    1258:	7365725f 	cmnvc	r5, #-268435451	; 0xf0000005
    125c:	44007465 	strmi	r7, [r0], #-1125	; 0xfffffb9b
    1260:	424c545f 	submi	r5, ip, #1593835520	; 0x5f000000
    1264:	53494d5f 	movtpl	r4, #40287	; 0x9d5f
    1268:	61620053 	qdsubvs	r0, r3, r2
    126c:	70756b63 	rsbsvc	r6, r5, r3, ror #22
    1270:	7265705f 	rsbvc	r7, r5, #95	; 0x5f
    1274:	756f6366 	strbvc	r6, [pc, #-870]!	; f16 <__save_processor_state+0x166>
    1278:	7265746e 	rsbvc	r7, r5, #1845493760	; 0x6e000000
    127c:	735f5f00 	cmpvc	pc, #0, 30
    1280:	65003233 	strvs	r3, [r0, #-563]	; 0xfffffdcd
    1284:	746e6576 	strbtvc	r6, [lr], #-1398	; 0xfffffa8a
    1288:	746e635f 	strbtvc	r6, [lr], #-863	; 0xfffffca1
    128c:	63616200 	cmnvs	r1, #0, 4
    1290:	5f70756b 	svcpl	0x0070756b
    1294:	66726570 			; <UNDEFINED> instruction: 0x66726570
    1298:	756f635f 	strbvc	r6, [pc, #-863]!	; f41 <__save_processor_state+0x191>
    129c:	7265746e 	rsbvc	r7, r5, #1845493760	; 0x6e000000
    12a0:	7274635f 	rsbsvc	r6, r4, #2080374785	; 0x7c000001
    12a4:	65725f6c 	ldrbvs	r5, [r2, #-3948]!	; 0xfffff094
    12a8:	72610067 	rsbvc	r0, r1, #103	; 0x67
    12ac:	612f6863 			; <UNDEFINED> instruction: 0x612f6863
    12b0:	6d2f6d72 	stcvs	13, cr6, [pc, #-456]!	; 10f0 <__save_processor_state+0x340>
    12b4:	2d686361 	stclcs	3, cr6, [r8, #-388]!	; 0xfffffe7c
    12b8:	786e7573 	stmdavc	lr!, {r0, r1, r4, r5, r6, r8, sl, ip, sp, lr}^
    12bc:	6d702f69 	ldclvs	15, cr2, [r0, #-420]!	; 0xfffffe5c
    12c0:	6174732f 	cmnvs	r4, pc, lsr #6
    12c4:	7962646e 	stmdbvc	r2!, {r1, r2, r3, r5, r6, sl, sp, lr}^
    12c8:	2f2e2e2f 	svccs	0x002e2e2f
    12cc:	5f6d656d 	svcpl	0x006d656d
    12d0:	696d6974 	stmdbvs	sp!, {r2, r4, r5, r6, r8, fp, sp, lr}^
    12d4:	632e676e 			; <UNDEFINED> instruction: 0x632e676e
    12d8:	435f4400 	cmpmi	pc, #0, 8
    12dc:	45484341 	strbmi	r4, [r8, #-833]	; 0xfffffcbf
    12e0:	53494d5f 	movtpl	r4, #40287	; 0x9d5f
    12e4:	65670053 	strbvs	r0, [r7, #-83]!	; 0xffffffad
    12e8:	79635f74 	stmdbvc	r3!, {r2, r4, r5, r6, r8, r9, sl, fp, ip, lr}^
    12ec:	63656c63 	cmnvs	r5, #25344	; 0x6300
    12f0:	746e756f 	strbtvc	r7, [lr], #-1391	; 0xfffffa91
    12f4:	74657300 	strbtvc	r7, [r5], #-768	; 0xfffffd00
    12f8:	6576655f 	ldrbvs	r6, [r6, #-1375]!	; 0xfffffaa1
    12fc:	635f746e 	cmpvs	pc, #1845493760	; 0x6e000000
    1300:	746e756f 	strbtvc	r7, [lr], #-1391	; 0xfffffa91
    1304:	69007265 	stmdbvs	r0, {r0, r2, r5, r6, r9, ip, sp, lr}
    1308:	5f74696e 	svcpl	0x0074696e
    130c:	6e657665 	cdpvs	6, 6, cr7, cr5, cr5, {3}
    1310:	6f635f74 	svcvs	0x00635f74
    1314:	65746e75 	ldrbvs	r6, [r4, #-3701]!	; 0xfffff18b
    1318:	6f630072 	svcvs	0x00630072
    131c:	65746e75 	ldrbvs	r6, [r4, #-3701]!	; 0xfffff18b
    1320:	79745f72 	ldmdbvc	r4!, {r1, r4, r5, r6, r8, r9, sl, fp, ip, lr}^
    1324:	655f6570 	ldrbvs	r6, [pc, #-1392]	; dbc <__save_processor_state+0xc>
    1328:	74616d00 	strbtvc	r6, [r1], #-3328	; 0xfffff300
    132c:	655f6863 	ldrbvs	r6, [pc, #-2147]	; ad1 <invalidate_branch_predictor+0x15>
    1330:	746e6576 	strbtvc	r6, [lr], #-1398	; 0xfffffa8a
    1334:	756f635f 	strbvc	r6, [pc, #-863]!	; fdd <__save_processor_state+0x22d>
    1338:	7265746e 	rsbvc	r7, r5, #1845493760	; 0x6e000000
    133c:	545f4900 	ldrbpl	r4, [pc], #-2304	; 1344 <__restore_processor_state+0x190>
    1340:	4d5f424c 	lfmmi	f4, 2, [pc, #-304]	; 1218 <__restore_processor_state+0x64>
    1344:	00535349 	subseq	r5, r3, r9, asr #6
    1348:	5f6d656d 	svcpl	0x006d656d
    134c:	5f6b6c63 	svcpl	0x006b6c63
    1350:	5f746567 	svcpl	0x00746567
    1354:	5f757063 	svcpl	0x00757063
    1358:	71657266 	cmnvc	r5, r6, ror #4
    135c:	77617200 	strbvc	r7, [r1, -r0, lsl #4]!
    1360:	62696c5f 	rsbvs	r6, r9, #24320	; 0x5f00
    1364:	6964755f 	stmdbvs	r4!, {r0, r1, r2, r3, r4, r6, r8, sl, ip, sp, lr}^
    1368:	72610076 	rsbvc	r0, r1, #118	; 0x76
    136c:	612f6863 			; <UNDEFINED> instruction: 0x612f6863
    1370:	6d2f6d72 	stcvs	13, cr6, [pc, #-456]!	; 11b0 <__save_processor_state+0x400>
    1374:	2d686361 	stclcs	3, cr6, [r8, #-388]!	; 0xfffffe7c
    1378:	786e7573 	stmdavc	lr!, {r0, r1, r4, r5, r6, r8, sl, ip, sp, lr}^
    137c:	6d702f69 	ldclvs	15, cr2, [r0, #-420]!	; 0xfffffe5c
    1380:	6174732f 	cmnvs	r4, pc, lsr #6
    1384:	7962646e 	stmdbvc	r2!, {r1, r2, r3, r5, r6, sl, sp, lr}^
    1388:	2f2e2e2f 	svccs	0x002e2e2f
    138c:	5f6d656d 	svcpl	0x006d656d
    1390:	5f756d6d 	svcpl	0x00756d6d
    1394:	632e6370 			; <UNDEFINED> instruction: 0x632e6370
    1398:	76617300 	strbtvc	r7, [r1], -r0, lsl #6
    139c:	6d6d5f65 	stclvs	15, cr5, [sp, #-404]!	; 0xfffffe6c
    13a0:	74735f75 	ldrbtvc	r5, [r3], #-3957	; 0xfffff08b
    13a4:	00657461 	rsbeq	r7, r5, r1, ror #8
    13a8:	74736572 	ldrbtvc	r6, [r3], #-1394	; 0xfffffa8e
    13ac:	5f65726f 	svcpl	0x0065726f
    13b0:	75636573 	strbvc	r6, [r3, #-1395]!	; 0xfffffa8d
    13b4:	6d5f6572 	cfldr64vs	mvdx6, [pc, #-456]	; 11f4 <__restore_processor_state+0x40>
    13b8:	735f756d 	cmpvc	pc, #457179136	; 0x1b400000
    13bc:	65746174 	ldrbvs	r6, [r4, #-372]!	; 0xfffffe8c
    13c0:	746f7000 	strbtvc	r7, [pc], #-0	; 13c8 <__restore_processor_state+0x214>
    13c4:	00646970 	rsbeq	r6, r4, r0, ror r9
    13c8:	61665f69 	cmnvs	r6, r9, ror #30
    13cc:	63730072 	cmnvs	r3, #114	; 0x72
    13d0:	72676663 	rsbvc	r6, r7, #103809024	; 0x6300000
    13d4:	63656900 	cmnvs	r5, #0, 18
    13d8:	5f640072 	svcpl	0x00640072
    13dc:	00727366 	rsbseq	r7, r2, r6, ror #6
    13e0:	65766173 	ldrbvs	r6, [r6, #-371]!	; 0xfffffe8d
    13e4:	70735f64 	rsbsvc	r5, r3, r4, ror #30
    13e8:	615f7273 	cmpvs	pc, r3, ror r2	; <UNPREDICTABLE>
    13ec:	75007462 	strvc	r7, [r0, #-1122]	; 0xfffffb9e
    13f0:	70747772 	rsbsvc	r7, r4, r2, ror r7
    13f4:	73006469 	movwvc	r6, #1129	; 0x469
    13f8:	64657661 	strbtvs	r7, [r5], #-1633	; 0xfffff99f
    13fc:	7370735f 	cmnvc	r0, #2080374785	; 0x7c000001
    1400:	6f6d5f72 	svcvs	0x006d5f72
    1404:	6373006e 	cmnvs	r3, #110	; 0x6e
    1408:	65676264 	strbvs	r6, [r7, #-612]!	; 0xfffffd9c
    140c:	726c626e 	rsbvc	r6, ip, #-536870906	; 0xe0000006
    1410:	76617300 	strbtvc	r7, [r1], -r0, lsl #6
    1414:	635f6465 	cmpvs	pc, #1694498816	; 0x65000000
    1418:	65746e6f 	ldrbvs	r6, [r4, #-3695]!	; 0xfffff191
    141c:	725f7478 	subsvc	r7, pc, #120, 8	; 0x78000000
    1420:	665f3331 			; <UNDEFINED> instruction: 0x665f3331
    1424:	73007169 	movwvc	r7, #361	; 0x169
    1428:	64657661 	strbtvs	r7, [r5], #-1633	; 0xfffff99f
    142c:	6e6f635f 	mcrvs	3, 3, r6, cr15, cr15, {2}
    1430:	74786574 	ldrbtvc	r6, [r8], #-1396	; 0xfffffa8c
    1434:	3331725f 	teqcc	r1, #-268435451	; 0xf0000005
    1438:	7172695f 	cmnvc	r2, pc, asr r9
    143c:	73657200 	cmnvc	r5, #0, 4
    1440:	65726f74 	ldrbvs	r6, [r2, #-3956]!	; 0xfffff08c
    1444:	6f72705f 	svcvs	0x0072705f
    1448:	73736563 	cmnvc	r3, #415236096	; 0x18c00000
    144c:	745f726f 	ldrbvc	r7, [pc], #-623	; 1454 <__restore_processor_state+0x2a0>
    1450:	30726274 	rsbscc	r6, r2, r4, ror r2
    1454:	76617300 	strbtvc	r7, [r1], -r0, lsl #6
    1458:	735f6465 	cmpvc	pc, #1694498816	; 0x65000000
    145c:	5f727370 	svcpl	0x00727370
    1460:	00637673 	rsbeq	r7, r3, r3, ror r6
    1464:	61736964 	cmnvs	r3, r4, ror #18
    1468:	5f656c62 	svcpl	0x00656c62
    146c:	68636163 	stmdavs	r3!, {r0, r1, r5, r6, r8, sp, lr}^
    1470:	6e695f65 	cdpvs	15, 6, cr5, cr9, cr5, {3}
    1474:	696c6176 	stmdbvs	ip!, {r1, r2, r4, r5, r6, r8, sp, lr}^
    1478:	65746164 	ldrbvs	r6, [r4, #-356]!	; 0xfffffe9c
    147c:	725f5f00 	subsvc	r5, pc, #0, 30
    1480:	6f747365 	svcvs	0x00747365
    1484:	705f6572 	subsvc	r6, pc, r2, ror r5	; <UNPREDICTABLE>
    1488:	65636f72 	strbvs	r6, [r3, #-3954]!	; 0xfffff08e
    148c:	726f7373 	rsbvc	r7, pc, #-872415231	; 0xcc000001
    1490:	6174735f 	cmnvs	r4, pc, asr r3
    1494:	69006574 	stmdbvs	r0, {r2, r4, r5, r6, r8, sl, sp, lr}
    1498:	00727365 	rsbseq	r7, r2, r5, ror #6
    149c:	65766173 	ldrbvs	r6, [r6, #-371]!	; 0xfffffe8d
    14a0:	70735f64 	rsbsvc	r5, r3, r4, ror #30
    14a4:	665f7273 			; <UNDEFINED> instruction: 0x665f7273
    14a8:	70007169 	andvc	r7, r0, r9, ror #2
    14ac:	00727363 	rsbseq	r7, r2, r3, ror #6
    14b0:	74787463 	ldrbtvc	r7, [r8], #-1123	; 0xfffffb9d
    14b4:	76617300 	strbtvc	r7, [r1], -r0, lsl #6
    14b8:	735f6465 	cmpvc	pc, #1694498816	; 0x65000000
    14bc:	5f727370 	svcpl	0x00727370
    14c0:	00717269 	rsbseq	r7, r1, r9, ror #4
    14c4:	66615f64 	strbtvs	r5, [r1], -r4, ror #30
    14c8:	73007273 	movwvc	r7, #627	; 0x273
    14cc:	64657661 	strbtvs	r7, [r5], #-1633	; 0xfffff99f
    14d0:	6e6f635f 	mcrvs	3, 3, r6, cr15, cr15, {2}
    14d4:	74786574 	ldrbtvc	r6, [r8], #-1396	; 0xfffffa8c
    14d8:	6e6f6e00 	cdpvs	14, 6, cr6, cr15, cr0, {0}
    14dc:	63616373 	cmnvs	r1, #-872415231	; 0xcc000001
    14e0:	6c727463 	cfldrdvs	mvd7, [r2], #-396	; 0xfffffe74
    14e4:	65630072 	strbvs	r0, [r3, #-114]!	; 0xffffff8e
    14e8:	73007263 	movwvc	r7, #611	; 0x263
    14ec:	745f7465 	ldrbvc	r7, [pc], #-1125	; 14f4 <set_copro_default+0x64>
    14f0:	30726274 	rsbscc	r6, r2, r4, ror r2
    14f4:	6f727500 	svcvs	0x00727500
    14f8:	64697074 	strbtvs	r7, [r9], #-116	; 0xffffff8c
    14fc:	63726100 	cmnvs	r2, #0, 2
    1500:	72612f68 	rsbvc	r2, r1, #104, 30	; 0x1a0
    1504:	616d2f6d 	cmnvs	sp, sp, ror #30
    1508:	732d6863 			; <UNDEFINED> instruction: 0x732d6863
    150c:	69786e75 	ldmdbvs	r8!, {r0, r2, r4, r5, r6, r9, sl, fp, sp, lr}^
    1510:	2f6d702f 	svccs	0x006d702f
    1514:	6e617473 	mcrvs	4, 3, r7, cr1, cr3, {3}
    1518:	2f796264 	svccs	0x00796264
    151c:	6d2f2e2e 	stcvs	14, cr2, [pc, #-184]!	; 146c <__restore_processor_state+0x2b8>
    1520:	635f6d65 	cmpvs	pc, #6464	; 0x1940
    1524:	632e7570 			; <UNDEFINED> instruction: 0x632e7570
    1528:	735f5f00 	cmpvc	pc, #0, 30
    152c:	5f657661 	svcpl	0x00657661
    1530:	636f7270 	cmnvs	pc, #112, 4
    1534:	6f737365 	svcvs	0x00737365
    1538:	74735f72 	ldrbtvc	r5, [r3], #-3954	; 0xfffff08e
    153c:	00657461 	rsbeq	r7, r5, r1, ror #8
    1540:	65766173 	ldrbvs	r6, [r6, #-371]!	; 0xfffffe8d
    1544:	70735f64 	rsbsvc	r5, r3, r4, ror #30
    1548:	755f7273 	ldrbvc	r7, [pc, #-627]	; 12dd <__restore_processor_state+0x129>
    154c:	6600646e 	strvs	r6, [r0], -lr, ror #8
    1550:	00657363 	rsbeq	r7, r5, r3, ror #6
    1554:	65766173 	ldrbvs	r6, [r6, #-371]!	; 0xfffffe8d
    1558:	6f635f64 	svcvs	0x00635f64
    155c:	7865746e 	stmdavc	r5!, {r1, r2, r3, r5, r6, sl, ip, sp, lr}^
    1560:	31725f74 	cmncc	r2, r4, ror pc
    1564:	6e755f33 	mrcvs	15, 3, r5, cr5, cr3, {1}
    1568:	61730064 	cmnvs	r3, r4, rrx
    156c:	5f646576 	svcpl	0x00646576
    1570:	746e6f63 	strbtvc	r6, [lr], #-3939	; 0xfffff09d
    1574:	5f747865 	svcpl	0x00747865
    1578:	5f323172 	svcpl	0x00323172
    157c:	00637673 	rsbeq	r7, r3, r3, ror r6
    1580:	65766173 	ldrbvs	r6, [r6, #-371]!	; 0xfffffe8d
    1584:	70635f64 	rsbvc	r5, r3, r4, ror #30
    1588:	735f7273 	cmpvc	pc, #805306375	; 0x30000007
    158c:	6f006376 	svcvs	0x00006376
    1590:	00727366 	rsbseq	r7, r2, r6, ror #6
    1594:	6f636d70 	svcvs	0x00636d70
    1598:	6f72746e 	svcvs	0x0072746e
    159c:	6300726c 	movwvs	r7, #620	; 0x26c
    15a0:	00727365 	rsbseq	r7, r2, r5, ror #6
    15a4:	61666564 	cmnvs	r6, r4, ror #10
    15a8:	5f746c75 	svcpl	0x00746c75
    15ac:	72706f63 	rsbsvc	r6, r0, #396	; 0x18c
    15b0:	61765f6f 	cmnvs	r6, pc, ror #30
    15b4:	0065756c 	rsbeq	r7, r5, ip, ror #10
    15b8:	73665f69 	cmnvc	r6, #420	; 0x1a4
    15bc:	5f640072 	svcpl	0x00640072
    15c0:	00726166 	rsbseq	r6, r2, r6, ror #2
    15c4:	6162766d 	cmnvs	r2, sp, ror #12
    15c8:	6d700072 	ldclvs	0, cr0, [r0, #-456]!	; 0xfffffe38
    15cc:	6e756f63 	cdpvs	15, 7, cr6, cr5, cr3, {3}
    15d0:	69007274 	stmdbvs	r0, {r2, r4, r5, r6, r9, ip, sp, lr}
    15d4:	7366615f 	cmnvc	r6, #-1073741801	; 0xc0000017
    15d8:	61730072 	cmnvs	r3, r2, ror r0
    15dc:	5f646576 	svcpl	0x00646576
    15e0:	746e6f63 	strbtvc	r6, [lr], #-3939	; 0xfffff09d
    15e4:	5f747865 	svcpl	0x00747865
    15e8:	5f333172 	svcpl	0x00333172
    15ec:	00746261 	rsbseq	r6, r4, r1, ror #4
    15f0:	65766173 	ldrbvs	r6, [r6, #-371]!	; 0xfffffe8d
    15f4:	6d655f64 	stclvs	15, cr5, [r5, #-400]!	; 0xfffffe70
    15f8:	5f797470 	svcpl	0x00797470
    15fc:	746e6f63 	strbtvc	r6, [lr], #-3939	; 0xfffff09d
    1600:	5f747865 	svcpl	0x00747865
    1604:	00637673 	rsbeq	r7, r3, r3, ror r6
    1608:	65766173 	ldrbvs	r6, [r6, #-371]!	; 0xfffffe8d
    160c:	6f635f64 	svcvs	0x00635f64
    1610:	7865746e 	stmdavc	r5!, {r1, r2, r3, r5, r6, sl, ip, sp, lr}^
    1614:	31725f74 	cmncc	r2, r4, ror pc
    1618:	79735f33 	ldmdbvc	r3!, {r0, r1, r4, r5, r8, r9, sl, fp, ip, lr}^
    161c:	61730073 	cmnvs	r3, r3, ror r0
    1620:	5f646576 	svcpl	0x00646576
    1624:	746e6f63 	strbtvc	r6, [lr], #-3939	; 0xfffff09d
    1628:	5f747865 	svcpl	0x00747865
    162c:	5f333172 	svcpl	0x00333172
    1630:	006e6f6d 	rsbeq	r6, lr, sp, ror #30
    1634:	5f746573 	svcpl	0x00746573
    1638:	69726573 	ldmdbvs	r2!, {r0, r1, r4, r5, r6, r8, sl, sp, lr}^
    163c:	635f6c61 	cmpvs	pc, #24832	; 0x6100
    1640:	73006b6c 	movwvc	r6, #2924	; 0xb6c
    1644:	735f7465 	cmpvc	pc, #1694498816	; 0x65000000
    1648:	61697265 	cmnvs	r9, r5, ror #4
    164c:	70675f6c 	rsbvc	r5, r7, ip, ror #30
    1650:	73006f69 	movwvc	r6, #3945	; 0xf69
    1654:	61697265 	cmnvs	r9, r5, ror #4
    1658:	65675f6c 	strbvs	r5, [r7, #-3948]!	; 0xfffff094
    165c:	73007374 	movwvc	r7, #884	; 0x374
    1660:	61697265 	cmnvs	r9, r5, ror #4
    1664:	6e695f6c 	cdpvs	15, 6, cr5, cr9, cr12, {3}
    1668:	74007469 	strvc	r7, [r0], #-1129	; 0xfffffb97
    166c:	00656d69 	rsbeq	r6, r5, r9, ror #26
    1670:	6b636162 	blvs	18d9c00 <__bss_end+0x18d6a84>
    1674:	675f7075 			; <UNDEFINED> instruction: 0x675f7075
    1678:	5f6f6970 	svcpl	0x006f6970
    167c:	74726175 	ldrbtvc	r6, [r2], #-373	; 0xfffffe8b
    1680:	72657300 	rsbvc	r7, r5, #0, 6
    1684:	5f6c6169 	svcpl	0x006c6169
    1688:	5f746567 	svcpl	0x00746567
    168c:	72616863 	rsbvc	r6, r1, #6488064	; 0x630000
    1690:	63727300 	cmnvs	r2, #0, 6
    1694:	6572665f 	ldrbvs	r6, [r2, #-1631]!	; 0xfffff9a1
    1698:	656d0071 	strbvs	r0, [sp, #-113]!	; 0xffffff8f
    169c:	65675f6d 	strbvs	r5, [r7, #-3949]!	; 0xfffff093
    16a0:	61625f74 	smcvs	9716	; 0x25f4
    16a4:	72657300 	rsbvc	r7, r5, #0, 6
    16a8:	5f6c6169 	svcpl	0x006c6169
    16ac:	5f747570 	svcpl	0x00747570
    16b0:	72616863 	rsbvc	r6, r1, #6488064	; 0x630000
    16b4:	63327000 	teqvs	r2, #0
    16b8:	62006b6c 	andvs	r6, r0, #108, 22	; 0x1b000
    16bc:	756b6361 	strbvc	r6, [fp, #-865]!	; 0xfffffc9f
    16c0:	6f705f70 	svcvs	0x00705f70
    16c4:	695f7472 	ldmdbvs	pc, {r1, r4, r5, r6, sl, ip, sp, lr}^	; <UNPREDICTABLE>
    16c8:	65730064 	ldrbvs	r0, [r3, #-100]!	; 0xffffff9c
    16cc:	6c616972 	stclvs	9, cr6, [r1], #-456	; 0xfffffe38
    16d0:	696e695f 	stmdbvs	lr!, {r0, r1, r2, r3, r4, r6, r8, fp, sp, lr}^
    16d4:	5f646574 	svcpl	0x00646574
    16d8:	67616c66 	strbvs	r6, [r1, -r6, ror #24]!
    16dc:	75636300 	strbvc	r6, [r3, #-768]!	; 0xfffffd00
    16e0:	6765725f 			; <UNDEFINED> instruction: 0x6765725f
    16e4:	72657300 	rsbvc	r7, r5, #0, 6
    16e8:	5f6c6169 	svcpl	0x006c6169
    16ec:	74696e69 	strbtvc	r6, [r9], #-3689	; 0xfffff197
    16f0:	6e616d5f 	mcrvs	13, 3, r6, cr1, cr15, {2}
    16f4:	72656761 	rsbvc	r6, r5, #25427968	; 0x1840000
    16f8:	756d6d00 	strbvc	r6, [sp, #-3328]!	; 0xfffff300
    16fc:	616c665f 	cmnvs	ip, pc, asr r6
    1700:	65730067 	ldrbvs	r0, [r3, #-103]!	; 0xffffff99
    1704:	6c616972 	stclvs	9, cr6, [r1], #-456	; 0xfffffe38
    1708:	6978655f 	ldmdbvs	r8!, {r0, r1, r2, r3, r4, r6, r8, sl, sp, lr}^
    170c:	616d5f74 	smcvs	54772	; 0xd5f4
    1710:	6567616e 	strbvs	r6, [r7, #-366]!	; 0xfffffe92
    1714:	65730072 	ldrbvs	r0, [r3, #-114]!	; 0xffffff8e
    1718:	6c616972 	stclvs	9, cr6, [r1], #-456	; 0xfffffe38
    171c:	7465675f 	strbtvc	r6, [r5], #-1887	; 0xfffff8a1
    1720:	6f6e5f73 	svcvs	0x006e5f73
    1724:	00756d6d 	rsbseq	r6, r5, sp, ror #26
    1728:	6b636162 	blvs	18d9cb8 <__bss_end+0x18d6b3c>
    172c:	635f7075 	cmpvs	pc, #117	; 0x75
    1730:	755f7563 	ldrbvc	r7, [pc, #-1379]	; 11d5 <__restore_processor_state+0x21>
    1734:	5f747261 	svcpl	0x00747261
    1738:	65736572 	ldrbvs	r6, [r3, #-1394]!	; 0xfffffa8e
    173c:	72610074 	rsbvc	r0, r1, #116	; 0x74
    1740:	612f6863 			; <UNDEFINED> instruction: 0x612f6863
    1744:	6d2f6d72 	stcvs	13, cr6, [pc, #-456]!	; 1584 <set_serial_clk+0x28>
    1748:	2d686361 	stclcs	3, cr6, [r8, #-388]!	; 0xfffffe7c
    174c:	786e7573 	stmdavc	lr!, {r0, r1, r4, r5, r6, r8, sl, ip, sp, lr}^
    1750:	6d702f69 	ldclvs	15, cr2, [r0, #-420]!	; 0xfffffe5c
    1754:	6174732f 	cmnvs	r4, pc, lsr #6
    1758:	7962646e 	stmdbvc	r2!, {r1, r2, r3, r5, r6, sl, sp, lr}^
    175c:	2f2e2e2f 	svccs	0x002e2e2f
    1760:	5f6d656d 	svcpl	0x006d656d
    1764:	69726573 	ldmdbvs	r2!, {r0, r1, r4, r5, r6, r8, sl, sp, lr}^
    1768:	632e6c61 			; <UNDEFINED> instruction: 0x632e6c61
    176c:	72657300 	rsbvc	r7, r5, #0, 6
    1770:	5f6c6169 	svcpl	0x006c6169
    1774:	5f747570 	svcpl	0x00747570
    1778:	72616863 	rsbvc	r6, r1, #6488064	; 0x630000
    177c:	6d6f6e5f 	stclvs	14, cr6, [pc, #-380]!	; 1608 <serial_exit>
    1780:	6100756d 	tstvs	r0, sp, ror #10
    1784:	5f326270 	svcpl	0x00326270
    1788:	00676572 	rsbeq	r6, r7, r2, ror r5
    178c:	69726573 	ldmdbvs	r2!, {r0, r1, r4, r5, r6, r8, sl, sp, lr}^
    1790:	675f6c61 	ldrbvs	r6, [pc, -r1, ror #24]
    1794:	635f7465 	cmpvs	pc, #1694498816	; 0x65000000
    1798:	5f726168 	svcpl	0x00726168
    179c:	6d6d6f6e 	stclvs	15, cr6, [sp, #-440]!	; 0xfffffe48
    17a0:	6f700075 	svcvs	0x00700075
    17a4:	73007472 	movwvc	r7, #1138	; 0x472
    17a8:	61697265 	cmnvs	r9, r5, ror #4
    17ac:	78655f6c 	stmdavc	r5!, {r2, r3, r5, r6, r8, r9, sl, fp, ip, lr}^
    17b0:	62007469 	andvs	r7, r0, #1761607680	; 0x69000000
    17b4:	756b6361 	strbvc	r6, [fp, #-865]!	; 0xfffffc9f
    17b8:	63635f70 	cmnvs	r3, #112, 30	; 0x1c0
    17bc:	61755f75 	cmnvs	r5, r5, ror pc
    17c0:	75007472 	strvc	r7, [r0, #-1138]	; 0xfffffb8e
    17c4:	00616f74 	rsbeq	r6, r1, r4, ror pc
    17c8:	657a6973 	ldrbvs	r6, [sl, #-2419]!	; 0xfffff68d
    17cc:	7000745f 	andvc	r7, r0, pc, asr r4
    17d0:	00637273 	rsbeq	r7, r3, r3, ror r2
    17d4:	6d726f66 	ldclvs	15, cr6, [r2, #-408]!	; 0xfffffe68
    17d8:	66007461 	strvs	r7, [r0], -r1, ror #8
    17dc:	5f6c6c69 	svcpl	0x006c6c69
    17e0:	5f006863 	svcpl	0x00006863
    17e4:	5f61765f 	svcpl	0x0061765f
    17e8:	7473696c 	ldrbtvc	r6, [r3], #-2412	; 0xfffff694
    17ec:	62656400 	rsbvs	r6, r5, #0, 8
    17f0:	65676775 	strbvs	r6, [r7, #-1909]!	; 0xfffff88b
    17f4:	75625f72 	strbvc	r5, [r2, #-3954]!	; 0xfffff08e
    17f8:	72656666 	rsbvc	r6, r5, #106954752	; 0x6600000
    17fc:	67656e00 	strbvs	r6, [r5, -r0, lsl #28]!
    1800:	76697461 	strbtvc	r7, [r9], -r1, ror #8
    1804:	74690065 	strbtvc	r0, [r9], #-101	; 0xffffff9b
    1808:	6100616f 	tstvs	r0, pc, ror #2
    180c:	2f686372 	svccs	0x00686372
    1810:	2f6d7261 	svccs	0x006d7261
    1814:	6863616d 	stmdavs	r3!, {r0, r2, r3, r5, r6, r8, sp, lr}^
    1818:	6e75732d 	cdpvs	3, 7, cr7, cr5, cr13, {1}
    181c:	702f6978 	eorvc	r6, pc, r8, ror r9	; <UNPREDICTABLE>
    1820:	74732f6d 	ldrbtvc	r2, [r3], #-3949	; 0xfffff093
    1824:	62646e61 	rsbvs	r6, r4, #1552	; 0x610
    1828:	2e2e2f79 	mcrcs	15, 1, r2, cr14, cr9, {3}
    182c:	6d656d2f 	stclvs	13, cr6, [r5, #-188]!	; 0xffffff44
    1830:	6972705f 	ldmdbvs	r2!, {r0, r1, r2, r3, r4, r6, ip, sp, lr}^
    1834:	2e6b746e 	cdpcs	4, 6, cr7, cr11, cr14, {3}
    1838:	74730063 	ldrbtvc	r0, [r3], #-99	; 0xffffff9d
    183c:	006b6361 	rsbeq	r6, fp, r1, ror #6
    1840:	73677261 	cmnvc	r7, #268435462	; 0x10000006
    1844:	64617200 	strbtvs	r7, [r1], #-512	; 0xfffffe00
    1848:	5f007869 	svcpl	0x00007869
    184c:	0070615f 	rsbseq	r6, r0, pc, asr r1
    1850:	6c727473 	cfldrdvs	mvd7, [r2], #-460	; 0xfffffe34
    1854:	64006e65 	strvs	r6, [r0], #-3685	; 0xfffff19b
    1858:	74696769 	strbtvc	r6, [r9], #-1897	; 0xfffff897
    185c:	7274735f 	rsbsvc	r7, r4, #2080374785	; 0x7c000001
    1860:	00676e69 	rsbeq	r6, r7, r9, ror #28
    1864:	63727473 	cmnvs	r2, #1929379840	; 0x73000000
    1868:	70007970 	andvc	r7, r0, r0, ror r9
    186c:	74736564 	ldrbtvc	r6, [r3], #-1380	; 0xfffffa9c
    1870:	69727000 	ldmdbvs	r2!, {ip, sp, lr}^
    1874:	615f746e 	cmpvs	pc, lr, ror #8
    1878:	6e67696c 	cdpvs	9, 6, cr6, cr7, cr12, {3}
    187c:	69727000 	ldmdbvs	r2!, {ip, sp, lr}^
    1880:	5f6b746e 	svcpl	0x006b746e
    1884:	6d6d6f6e 	stclvs	15, cr6, [sp, #-440]!	; 0xfffffe48
    1888:	5f5f0075 	svcpl	0x005f0075
    188c:	63756e67 	cmnvs	r5, #1648	; 0x670
    1890:	5f61765f 	svcpl	0x0061765f
    1894:	7473696c 	ldrbtvc	r6, [r3], #-2412	; 0xfffff694
    1898:	72747300 	rsbsvc	r7, r4, #0, 6
    189c:	7461636e 	strbtvc	r6, [r1], #-878	; 0xfffffc92
    18a0:	6d5f5f00 	ldclvs	15, cr5, [pc, #-0]	; 18a8 <serial_init+0x68>
    18a4:	645f6d65 	ldrbvs	r6, [pc], #-3429	; 18ac <serial_init+0x6c>
    18a8:	00307669 	eorseq	r7, r0, r9, ror #12
    18ac:	51706d74 	cmnpl	r0, r4, ror sp
    18b0:	00746f75 	rsbseq	r6, r4, r5, ror pc
    18b4:	69766964 	ldmdbvs	r6!, {r2, r5, r6, r8, fp, sp, lr}^
    18b8:	726f6973 	rsbvc	r6, pc, #1884160	; 0x1cc000
    18bc:	76696400 	strbtvc	r6, [r9], -r0, lsl #8
    18c0:	6e656469 	cdpvs	4, 6, cr6, cr5, cr9, {3}
    18c4:	6d740064 	ldclvs	0, cr0, [r4, #-400]!	; 0xfffffe70
    18c8:	76694470 			; <UNDEFINED> instruction: 0x76694470
    18cc:	63726100 	cmnvs	r2, #0, 2
    18d0:	72612f68 	rsbvc	r2, r1, #104, 30	; 0x1a0
    18d4:	616d2f6d 	cmnvs	sp, sp, ror #30
    18d8:	732d6863 			; <UNDEFINED> instruction: 0x732d6863
    18dc:	69786e75 	ldmdbvs	r8!, {r0, r2, r4, r5, r6, r9, sl, fp, sp, lr}^
    18e0:	2f6d702f 	svccs	0x006d702f
    18e4:	6e617473 	mcrvs	4, 3, r7, cr1, cr3, {3}
    18e8:	2f796264 	svccs	0x00796264
    18ec:	6d2f2e2e 	stcvs	14, cr2, [pc, #-184]!	; 183c <serial_exit_manager+0x10>
    18f0:	645f6d65 	ldrbvs	r6, [pc], #-3429	; 18f8 <serial_puts+0x10>
    18f4:	696c7669 	stmdbvs	ip!, {r0, r3, r5, r6, r9, sl, ip, sp, lr}^
    18f8:	632e6362 			; <UNDEFINED> instruction: 0x632e6362
    18fc:	69687300 	stmdbvs	r8!, {r8, r9, ip, sp, lr}^
    1900:	72007466 	andvc	r7, r0, #1711276032	; 0x66000000
    1904:	6c757365 	ldclvs	3, cr7, [r5], #-404	; 0xfffffe6c
    1908:	656d0074 	strbvs	r0, [sp, #-116]!	; 0xffffff8c
    190c:	6e695f6d 	cdpvs	15, 6, cr5, cr9, cr13, {3}
    1910:	78655f74 	stmdavc	r5!, {r2, r4, r5, r6, r8, r9, sl, fp, ip, lr}^
    1914:	61007469 	tstvs	r0, r9, ror #8
    1918:	2f686372 	svccs	0x00686372
    191c:	2f6d7261 	svccs	0x006d7261
    1920:	6863616d 	stmdavs	r3!, {r0, r2, r3, r5, r6, r8, sp, lr}^
    1924:	6e75732d 	cdpvs	3, 7, cr7, cr5, cr13, {1}
    1928:	702f6978 	eorvc	r6, pc, r8, ror r9	; <UNPREDICTABLE>
    192c:	74732f6d 	ldrbtvc	r2, [r3], #-3949	; 0xfffff093
    1930:	62646e61 	rsbvs	r6, r4, #1552	; 0x610
    1934:	2e2e2f79 	mcrcs	15, 1, r2, cr14, cr9, {3}
    1938:	6d656d2f 	stclvs	13, cr6, [r5, #-188]!	; 0xffffff44
    193c:	746e695f 	strbtvc	r6, [lr], #-2399	; 0xfffff6a1
    1940:	4900632e 	stmdbmi	r0, {r1, r2, r3, r5, r8, r9, sp, lr}
    1944:	535f544e 	cmppl	pc, #1308622848	; 0x4e000000
    1948:	4352554f 	cmpmi	r2, #331350016	; 0x13c00000
    194c:	53555f45 	cmppl	r5, #276	; 0x114
    1950:	43484542 	movtmi	r4, #34114	; 0x8542
    1954:	49003049 	stmdbmi	r0, {r0, r3, r6, ip, sp}
    1958:	535f544e 	cmppl	pc, #1308622848	; 0x4e000000
    195c:	4352554f 	cmpmi	r2, #331350016	; 0x13c00000
    1960:	53555f45 	cmppl	r5, #276	; 0x114
    1964:	43484542 	movtmi	r4, #34114	; 0x8542
    1968:	49003149 	stmdbmi	r0, {r0, r3, r6, r8, ip, sp}
    196c:	535f544e 	cmppl	pc, #1308622848	; 0x4e000000
    1970:	4352554f 	cmpmi	r2, #331350016	; 0x13c00000
    1974:	53555f45 	cmppl	r5, #276	; 0x114
    1978:	43484542 	movtmi	r4, #34114	; 0x8542
    197c:	49003249 	stmdbmi	r0, {r0, r3, r6, r9, ip, sp}
    1980:	535f544e 	cmppl	pc, #1308622848	; 0x4e000000
    1984:	4352554f 	cmpmi	r2, #331350016	; 0x13c00000
    1988:	4f545f45 	svcmi	0x00545f45
    198c:	50484355 	subpl	r4, r8, r5, asr r3
    1990:	6d004c4e 	stcvs	12, cr4, [r0, #-312]	; 0xfffffec8
    1994:	695f6d65 	ldmdbvs	pc, {r0, r2, r5, r6, r8, sl, fp, sp, lr}^	; <UNPREDICTABLE>
    1998:	695f746e 	ldmdbvs	pc, {r1, r2, r3, r5, r6, sl, ip, sp, lr}^	; <UNPREDICTABLE>
    199c:	0074696e 	rsbseq	r6, r4, lr, ror #18
    19a0:	5f6d656d 	svcpl	0x006d656d
    19a4:	62616e65 	rsbvs	r6, r1, #1616	; 0x650
    19a8:	695f656c 	ldmdbvs	pc, {r2, r3, r5, r6, r8, sl, sp, lr}^	; <UNPREDICTABLE>
    19ac:	6900746e 	stmdbvs	r0, {r1, r2, r3, r5, r6, sl, ip, sp, lr}
    19b0:	7265746e 	rsbvc	r7, r5, #1845493760	; 0x6e000000
    19b4:	74707572 	ldrbtvc	r7, [r0], #-1394	; 0xfffffa8e
    19b8:	756f735f 	strbvc	r7, [pc, #-863]!	; 1661 <serial_init_nommu+0x25>
    19bc:	5f656372 	svcpl	0x00656372
    19c0:	4e490065 	cdpmi	0, 4, cr0, cr9, cr5, {3}
    19c4:	4f535f54 	svcmi	0x00535f54
    19c8:	45435255 	strbmi	r5, [r3, #-597]	; 0xfffffdab
    19cc:	4950475f 	ldmdbmi	r0, {r0, r1, r2, r3, r4, r6, r8, r9, sl, lr}^
    19d0:	4900414f 	stmdbmi	r0, {r0, r1, r2, r3, r6, r8, lr}
    19d4:	535f544e 	cmppl	pc, #1308622848	; 0x4e000000
    19d8:	4352554f 	cmpmi	r2, #331350016	; 0x13c00000
    19dc:	50475f45 	subpl	r5, r7, r5, asr #30
    19e0:	00424f49 	subeq	r4, r2, r9, asr #30
    19e4:	5f544e49 	svcpl	0x00544e49
    19e8:	52554f53 	subspl	r4, r5, #332	; 0x14c
    19ec:	475f4543 	ldrbmi	r4, [pc, -r3, asr #10]
    19f0:	434f4950 	movtmi	r4, #63824	; 0xf950
    19f4:	544e4900 	strbpl	r4, [lr], #-2304	; 0xfffff700
    19f8:	554f535f 	strbpl	r5, [pc, #-863]	; 16a1 <serial_init_nommu+0x65>
    19fc:	5f454352 	svcpl	0x00454352
    1a00:	4f495047 	svcmi	0x00495047
    1a04:	4e490044 	cdpmi	0, 4, cr0, cr9, cr4, {2}
    1a08:	4f535f54 	svcmi	0x00535f54
    1a0c:	45435255 	strbmi	r5, [r3, #-597]	; 0xfffffdab
    1a10:	4950475f 	ldmdbmi	r0, {r0, r1, r2, r3, r4, r6, r8, r9, sl, lr}^
    1a14:	4900454f 	stmdbmi	r0, {r0, r1, r2, r3, r6, r8, sl, lr}
    1a18:	535f544e 	cmppl	pc, #1308622848	; 0x4e000000
    1a1c:	4352554f 	cmpmi	r2, #331350016	; 0x13c00000
    1a20:	50475f45 	subpl	r5, r7, r5, asr #30
    1a24:	00464f49 	subeq	r4, r6, r9, asr #30
    1a28:	5f544e49 	svcpl	0x00544e49
    1a2c:	52554f53 	subspl	r4, r5, #332	; 0x14c
    1a30:	475f4543 	ldrbmi	r4, [pc, -r3, asr #10]
    1a34:	474f4950 	smlsldmi	r4, pc, r0, r9	; <UNPREDICTABLE>
    1a38:	544e4900 	strbpl	r4, [lr], #-2304	; 0xfffff700
    1a3c:	554f535f 	strbpl	r5, [pc, #-863]	; 16e5 <serial_puts_nommu+0x9>
    1a40:	5f454352 	svcpl	0x00454352
    1a44:	4f495047 	svcmi	0x00495047
    1a48:	4e490048 	cdpmi	0, 4, cr0, cr9, cr8, {2}
    1a4c:	4f535f54 	svcmi	0x00535f54
    1a50:	45435255 	strbmi	r5, [r3, #-597]	; 0xfffffdab
    1a54:	4950475f 	ldmdbmi	r0, {r0, r1, r2, r3, r4, r6, r8, r9, sl, lr}^
    1a58:	4900494f 	stmdbmi	r0, {r0, r1, r2, r3, r6, r8, fp, lr}
    1a5c:	535f544e 	cmppl	pc, #1308622848	; 0x4e000000
    1a60:	4352554f 	cmpmi	r2, #331350016	; 0x13c00000
    1a64:	50475f45 	subpl	r5, r7, r5, asr #30
    1a68:	004a4f49 	subeq	r4, sl, r9, asr #30
    1a6c:	5f544e49 	svcpl	0x00544e49
    1a70:	52554f53 	subspl	r4, r5, #332	; 0x14c
    1a74:	555f4543 	ldrbpl	r4, [pc, #-1347]	; 1539 <restore_processor_ttbr0+0x1>
    1a78:	544f4253 	strbpl	r4, [pc], #-595	; 1a80 <utoa+0x5c>
    1a7c:	4e490047 	cdpmi	0, 4, cr0, cr9, cr7, {2}
    1a80:	4f535f54 	svcmi	0x00535f54
    1a84:	45435255 	strbmi	r5, [r3, #-597]	; 0xfffffdab
    1a88:	41524c5f 	cmpmi	r2, pc, asr ip
    1a8c:	49004344 	stmdbmi	r0, {r2, r6, r8, r9, lr}
    1a90:	535f544e 	cmppl	pc, #1308622848	; 0x4e000000
    1a94:	4352554f 	cmpmi	r2, #331350016	; 0x13c00000
    1a98:	53555f45 	cmppl	r5, #276	; 0x114
    1a9c:	43484f42 	movtmi	r4, #36674	; 0x8f42
    1aa0:	49003049 	stmdbmi	r0, {r0, r3, r6, ip, sp}
    1aa4:	535f544e 	cmppl	pc, #1308622848	; 0x4e000000
    1aa8:	4352554f 	cmpmi	r2, #331350016	; 0x13c00000
    1aac:	53555f45 	cmppl	r5, #276	; 0x114
    1ab0:	43484f42 	movtmi	r4, #36674	; 0x8f42
    1ab4:	49003149 	stmdbmi	r0, {r0, r3, r6, r8, ip, sp}
    1ab8:	535f544e 	cmppl	pc, #1308622848	; 0x4e000000
    1abc:	4352554f 	cmpmi	r2, #331350016	; 0x13c00000
    1ac0:	53555f45 	cmppl	r5, #276	; 0x114
    1ac4:	43484f42 	movtmi	r4, #36674	; 0x8f42
    1ac8:	49003249 	stmdbmi	r0, {r0, r3, r6, r9, ip, sp}
    1acc:	535f544e 	cmppl	pc, #1308622848	; 0x4e000000
    1ad0:	4352554f 	cmpmi	r2, #331350016	; 0x13c00000
    1ad4:	58455f45 	stmdapl	r5, {r0, r2, r6, r8, r9, sl, fp, ip, lr}^
    1ad8:	494d4e54 	stmdbmi	sp, {r2, r4, r6, r9, sl, fp, lr}^
    1adc:	616e6500 	cmnvs	lr, r0, lsl #10
    1ae0:	5f656c62 	svcpl	0x00656c62
    1ae4:	00746962 	rsbseq	r6, r4, r2, ror #18
    1ae8:	53706d74 	cmnpl	r0, #116, 26	; 0x1d00
    1aec:	49006372 	stmdbmi	r0, {r1, r4, r5, r6, r8, r9, sp, lr}
    1af0:	535f544e 	cmppl	pc, #1308622848	; 0x4e000000
    1af4:	4352554f 	cmpmi	r2, #331350016	; 0x13c00000
    1af8:	49545f45 	ldmdbmi	r4, {r0, r2, r6, r8, r9, sl, fp, ip, lr}^
    1afc:	3052454d 	subscc	r4, r2, sp, asr #10
    1b00:	544e4900 	strbpl	r4, [lr], #-2304	; 0xfffff700
    1b04:	554f535f 	strbpl	r5, [pc, #-863]	; 17ad <serial_gets_nommu+0x29>
    1b08:	5f454352 	svcpl	0x00454352
    1b0c:	454d4954 	strbmi	r4, [sp, #-2388]	; 0xfffff6ac
    1b10:	47003152 	smlsdmi	r0, r2, r1, r3
    1b14:	44446369 	strbmi	r6, [r4], #-873	; 0xfffffc97
    1b18:	00637369 	rsbeq	r7, r3, r9, ror #6
    1b1c:	5f6d656d 	svcpl	0x006d656d
    1b20:	72657571 	rsbvc	r7, r5, #473956352	; 0x1c400000
    1b24:	6e695f79 	mcrvs	15, 3, r5, cr9, cr9, {3}
    1b28:	4e490074 	mcrmi	0, 2, r0, cr9, cr4, {3}
    1b2c:	4f535f54 	svcmi	0x00535f54
    1b30:	45435255 	strbmi	r5, [r3, #-597]	; 0xfffffdab
    1b34:	3052495f 	subscc	r4, r2, pc, asr r9
    1b38:	544e4900 	strbpl	r4, [lr], #-2304	; 0xfffff700
    1b3c:	554f535f 	strbpl	r5, [pc, #-863]	; 17e5 <serial_gets_nommu+0x61>
    1b40:	5f454352 	svcpl	0x00454352
    1b44:	00315249 	eorseq	r5, r1, r9, asr #4
    1b48:	5f544e49 	svcpl	0x00544e49
    1b4c:	52554f53 	subspl	r4, r5, #332	; 0x14c
    1b50:	4d5f4543 	cfldr64mi	mvdx4, [pc, #-268]	; 1a4c <utoa+0x28>
    1b54:	425f4753 	subsmi	r4, pc, #21757952	; 0x14c0000
    1b58:	7400584f 	strvc	r5, [r0], #-2127	; 0xfffff7b1
    1b5c:	7247706d 	subvc	r7, r7, #109	; 0x6d
    1b60:	4e490070 	mcrmi	0, 2, r0, cr9, cr0, {3}
    1b64:	4f535f54 	svcmi	0x00535f54
    1b68:	45435255 	strbmi	r5, [r3, #-597]	; 0xfffffdab
    1b6c:	414c415f 	cmpmi	ip, pc, asr r1
    1b70:	47004d52 	smlsdmi	r0, r2, sp, r4
    1b74:	44436369 	strbmi	r6, [r3], #-873	; 0xfffffc97
    1b78:	00637369 	rsbeq	r7, r3, r9, ror #6
    1b7c:	5f6d656d 	svcpl	0x006d656d
    1b80:	6f697067 	svcvs	0x00697067
    1b84:	7365725f 	cmnvc	r5, #-268435451	; 0xf0000005
    1b88:	65726f74 	ldrbvs	r6, [r2, #-3956]!	; 0xfffff08c
    1b8c:	69706700 	ldmdbvs	r0!, {r8, r9, sl, sp, lr}^
    1b90:	65725f6f 	ldrbvs	r5, [r2, #-3951]!	; 0xfffff091
    1b94:	61625f67 	cmnvs	r2, r7, ror #30
    1b98:	70006b63 	andvc	r6, r0, r3, ror #22
    1b9c:	6f697067 	svcvs	0x00697067
    1ba0:	6174735f 	cmnvs	r4, pc, asr r3
    1ba4:	61006574 	tstvs	r0, r4, ror r5
    1ba8:	2f686372 	svccs	0x00686372
    1bac:	2f6d7261 	svccs	0x006d7261
    1bb0:	6863616d 	stmdavs	r3!, {r0, r2, r3, r5, r6, r8, sp, lr}^
    1bb4:	6e75732d 	cdpvs	3, 7, cr7, cr5, cr13, {1}
    1bb8:	702f6978 	eorvc	r6, pc, r8, ror r9	; <UNPREDICTABLE>
    1bbc:	74732f6d 	ldrbtvc	r2, [r3], #-3949	; 0xfffff093
    1bc0:	62646e61 	rsbvs	r6, r4, #1552	; 0x610
    1bc4:	2e2e2f79 	mcrcs	15, 1, r2, cr14, cr9, {3}
    1bc8:	6d656d2f 	stclvs	13, cr6, [r5, #-188]!	; 0xffffff44
    1bcc:	6970675f 	ldmdbvs	r0!, {r0, r1, r2, r3, r4, r6, r8, r9, sl, sp, lr}^
    1bd0:	00632e6f 	rsbeq	r2, r3, pc, ror #28
    1bd4:	5f6d656d 	svcpl	0x006d656d
    1bd8:	6f697067 	svcvs	0x00697067
    1bdc:	7661735f 			; <UNDEFINED> instruction: 0x7661735f
    1be0:	44570065 	ldrbmi	r0, [r7], #-101	; 0xffffff9b
    1be4:	5f31676f 	svcpl	0x0031676f
    1be8:	5f717249 	svcpl	0x00717249
    1bec:	00617453 	rsbeq	r7, r1, r3, asr r4
    1bf0:	31737641 	cmncc	r3, r1, asr #12
    1bf4:	00746e43 	rsbseq	r6, r4, r3, asr #28
    1bf8:	43746e49 	cmnmi	r4, #1168	; 0x490
    1bfc:	54006c74 	strpl	r6, [r0], #-3188	; 0xfffff38c
    1c00:	4930726d 	ldmdbmi	r0!, {r0, r2, r3, r5, r6, r9, ip, sp, lr}
    1c04:	6156746e 	cmpvs	r6, lr, ror #8
    1c08:	4457006c 	ldrbmi	r0, [r7], #-108	; 0xffffff94
    1c0c:	5f31676f 	svcpl	0x0031676f
    1c10:	6c727443 	cfldrdvs	mvd7, [r2], #-268	; 0xfffffef4
    1c14:	6765525f 			; <UNDEFINED> instruction: 0x6765525f
    1c18:	6d656d00 	stclvs	13, cr6, [r5, #-0]
    1c1c:	726d745f 	rsbvc	r7, sp, #1593835520	; 0x5f000000
    1c20:	7465735f 	strbtvc	r7, [r5], #-863	; 0xfffffca1
    1c24:	726d5400 	rsbvc	r5, sp, #0, 8
    1c28:	6c744331 	ldclvs	3, cr4, [r4], #-196	; 0xffffff3c
    1c2c:	726d5400 	rsbvc	r5, sp, #0, 8
    1c30:	746e4330 	strbtvc	r4, [lr], #-816	; 0xfffffcd0
    1c34:	006c6156 	rsbeq	r6, ip, r6, asr r1
    1c38:	35726d54 	ldrbcc	r6, [r2, #-3412]!	; 0xfffff2ac
    1c3c:	006c7443 	rsbeq	r7, ip, r3, asr #8
    1c40:	32726d54 	rsbscc	r6, r2, #84, 26	; 0x1500
    1c44:	56746e49 	ldrbtpl	r6, [r4], -r9, asr #28
    1c48:	5f006c61 	svcpl	0x00006c61
    1c4c:	6d656d5f 	stclvs	13, cr6, [r5, #-380]!	; 0xfffffe84
    1c50:	726d745f 	rsbvc	r7, sp, #1593835520	; 0x5f000000
    1c54:	6765725f 			; <UNDEFINED> instruction: 0x6765725f
    1c58:	5400745f 	strpl	r7, [r0], #-1119	; 0xfffffba1
    1c5c:	4332726d 	teqmi	r2, #-805306362	; 0xd0000006
    1c60:	6156746e 	cmpvs	r6, lr, ror #8
    1c64:	6157006c 	cmpvs	r7, ip, rrx
    1c68:	44686374 	strbtmi	r6, [r8], #-884	; 0xfffffc8c
    1c6c:	5f31676f 	svcpl	0x0031676f
    1c70:	5f717249 	svcpl	0x00717249
    1c74:	425f6e45 	subsmi	r6, pc, #1104	; 0x450
    1c78:	6d006b61 	vstrvs	d6, [r0, #-388]	; 0xfffffe7c
    1c7c:	745f6d65 	ldrbvc	r6, [pc], #-3429	; 1c84 <printk+0x8>
    1c80:	655f726d 	ldrbvs	r7, [pc, #-621]	; 1a1b <serial_gets+0x8b>
    1c84:	00746978 	rsbseq	r6, r4, r8, ror r9
    1c88:	68637261 	stmdavs	r3!, {r0, r5, r6, r9, ip, sp, lr}^
    1c8c:	6d72612f 	ldfvse	f6, [r2, #-188]!	; 0xffffff44
    1c90:	63616d2f 	cmnvs	r1, #3008	; 0xbc0
    1c94:	75732d68 	ldrbvc	r2, [r3, #-3432]!	; 0xfffff298
    1c98:	2f69786e 	svccs	0x0069786e
    1c9c:	732f6d70 			; <UNDEFINED> instruction: 0x732f6d70
    1ca0:	646e6174 	strbtvs	r6, [lr], #-372	; 0xfffffe8c
    1ca4:	2e2f7962 	cdpcs	9, 2, cr7, cr15, cr2, {3}
    1ca8:	656d2f2e 	strbvs	r2, [sp, #-3886]!	; 0xfffff0d2
    1cac:	6d745f6d 	ldclvs	15, cr5, [r4, #-436]!	; 0xfffffe4c
    1cb0:	00632e72 	rsbeq	r2, r3, r2, ror lr
    1cb4:	34726d54 	ldrbtcc	r6, [r2], #-3412	; 0xfffff2ac
    1cb8:	56746e49 	ldrbtpl	r6, [r4], -r9, asr #28
    1cbc:	54006c61 	strpl	r6, [r0], #-3169	; 0xfffff39f
    1cc0:	4334726d 	teqmi	r4, #-805306362	; 0xd0000006
    1cc4:	6156746e 	cmpvs	r6, lr, ror #8
    1cc8:	6157006c 	cmpvs	r7, ip, rrx
    1ccc:	44686374 	strbtmi	r6, [r8], #-884	; 0xfffffc8c
    1cd0:	5f31676f 	svcpl	0x0031676f
    1cd4:	666e6f43 	strbtvs	r6, [lr], -r3, asr #30
    1cd8:	525f6769 	subspl	r6, pc, #27525120	; 0x1a40000
    1cdc:	425f6765 	subsmi	r6, pc, #26476544	; 0x1940000
    1ce0:	72006b61 	andvc	r6, r0, #99328	; 0x18400
    1ce4:	72657365 	rsbvc	r7, r5, #-1811939327	; 0x94000001
    1ce8:	38646576 	stmdacc	r4!, {r1, r2, r4, r5, r6, r8, sl, sp, lr}^
    1cec:	726d5400 	rsbvc	r5, sp, #0, 8
    1cf0:	6c744332 	ldclvs	3, cr4, [r4], #-200	; 0xffffff38
    1cf4:	6f445700 	svcvs	0x00445700
    1cf8:	4d5f3167 	ldfmie	f3, [pc, #-412]	; 1b64 <print_align+0x74>
    1cfc:	5f65646f 	svcpl	0x0065646f
    1d00:	00676552 	rsbeq	r6, r7, r2, asr r5
    1d04:	63746157 	cmnvs	r4, #-1073741803	; 0xc0000015
    1d08:	676f4468 	strbvs	r4, [pc, -r8, ror #8]!
    1d0c:	6f4d5f31 	svcvs	0x004d5f31
    1d10:	65525f64 	ldrbvs	r5, [r2, #-3940]	; 0xfffff09c
    1d14:	61425f67 	cmpvs	r2, r7, ror #30
    1d18:	656d006b 	strbvs	r0, [sp, #-107]!	; 0xffffff95
    1d1c:	6d745f6d 	ldclvs	15, cr5, [r4, #-436]!	; 0xfffffe4c
    1d20:	6e655f72 	mcrvs	15, 3, r5, cr5, cr2, {3}
    1d24:	656c6261 	strbvs	r6, [ip, #-609]!	; 0xfffffd9f
    1d28:	7461775f 	strbtvc	r7, [r1], #-1887	; 0xfffff8a1
    1d2c:	6f646863 	svcvs	0x00646863
    1d30:	656d0067 	strbvs	r0, [sp, #-103]!	; 0xffffff99
    1d34:	6d745f6d 	ldclvs	15, cr5, [r4, #-436]!	; 0xfffffe4c
    1d38:	6e695f72 	mcrvs	15, 3, r5, cr9, cr2, {3}
    1d3c:	57007469 	strpl	r7, [r0, -r9, ror #8]
    1d40:	31676f44 	cmncc	r7, r4, asr #30
    1d44:	7172495f 	cmnvc	r2, pc, asr r9
    1d48:	006e455f 	rsbeq	r4, lr, pc, asr r5
    1d4c:	6f636573 	svcvs	0x00636573
    1d50:	4900646e 	stmdbmi	r0, {r1, r2, r3, r5, r6, sl, sp, lr}
    1d54:	7453746e 	ldrbvc	r7, [r3], #-1134	; 0xfffffb92
    1d58:	656d0061 	strbvs	r0, [sp, #-97]!	; 0xffffff9f
    1d5c:	6d745f6d 	ldclvs	15, cr5, [r4, #-436]!	; 0xfffffe4c
    1d60:	65725f72 	ldrbvs	r5, [r2, #-3954]!	; 0xfffff08e
    1d64:	726f7473 	rsbvc	r7, pc, #1929379840	; 0x73000000
    1d68:	5f5f0065 	svcpl	0x005f0065
    1d6c:	5f4d454d 	svcpl	0x004d454d
    1d70:	5f524d54 	svcpl	0x00524d54
    1d74:	00474552 	subeq	r4, r7, r2, asr r5
    1d78:	5f6d656d 	svcpl	0x006d656d
    1d7c:	5f726d74 	svcpl	0x00726d74
    1d80:	61736964 	cmnvs	r3, r4, ror #18
    1d84:	5f656c62 	svcpl	0x00656c62
    1d88:	63746177 	cmnvs	r4, #-1073741795	; 0xc000001d
    1d8c:	676f6468 	strbvs	r6, [pc, -r8, ror #8]!
    1d90:	726d5400 	rsbvc	r5, sp, #0, 8
    1d94:	746e4935 	strbtvc	r4, [lr], #-2357	; 0xfffff6cb
    1d98:	006c6156 	rsbeq	r6, ip, r6, asr r1
    1d9c:	31726d54 	cmncc	r2, r4, asr sp
    1da0:	56746e49 	ldrbtpl	r6, [r4], -r9, asr #28
    1da4:	70006c61 	andvc	r6, r0, r1, ror #24
    1da8:	5f726d74 	svcpl	0x00726d74
    1dac:	74617473 	strbtvc	r7, [r1], #-1139	; 0xfffffb8d
    1db0:	76410065 	strbvc	r0, [r1], -r5, rrx
    1db4:	76694473 			; <UNDEFINED> instruction: 0x76694473
    1db8:	726d5400 	rsbvc	r5, sp, #0, 8
    1dbc:	6c744333 	ldclvs	3, cr4, [r4], #-204	; 0xffffff34
    1dc0:	73764100 	cmnvc	r6, #0, 2
    1dc4:	006c7443 	rsbeq	r7, ip, r3, asr #8
    1dc8:	31726d54 	cmncc	r2, r4, asr sp
    1dcc:	56746e43 	ldrbtpl	r6, [r4], -r3, asr #28
    1dd0:	54006c61 	strpl	r6, [r0], #-3169	; 0xfffff39f
    1dd4:	4933726d 	ldmdbmi	r3!, {r0, r2, r3, r5, r6, r9, ip, sp, lr}
    1dd8:	6156746e 	cmpvs	r6, lr, ror #8
    1ddc:	4457006c 	ldrbmi	r0, [r7], #-108	; 0xffffff94
    1de0:	5f31676f 	svcpl	0x0031676f
    1de4:	5f676643 	svcpl	0x00676643
    1de8:	00676552 	rsbeq	r6, r7, r2, asr r5
    1dec:	30737641 	rsbscc	r7, r3, r1, asr #12
    1df0:	00746e43 	rsbseq	r6, r4, r3, asr #28
    1df4:	35726d54 	ldrbcc	r6, [r2, #-3412]!	; 0xfffff2ac
    1df8:	56746e43 	ldrbtpl	r6, [r4], -r3, asr #28
    1dfc:	54006c61 	strpl	r6, [r0], #-3169	; 0xfffff39f
    1e00:	6552726d 	ldrbvs	r7, [r2, #-621]	; 0xfffffd93
    1e04:	6d540067 	ldclvs	0, cr0, [r4, #-412]	; 0xfffffe64
    1e08:	74433072 	strbvc	r3, [r3], #-114	; 0xffffff8e
    1e0c:	6d54006c 	ldclvs	0, cr0, [r4, #-432]	; 0xfffffe50
    1e10:	74433472 	strbvc	r3, [r3], #-1138	; 0xfffffb8e
    1e14:	656d006c 	strbvs	r0, [sp, #-108]!	; 0xffffff94
    1e18:	6d745f6d 	ldclvs	15, cr5, [r4, #-436]!	; 0xfffffe4c
    1e1c:	61735f72 	cmnvs	r3, r2, ror pc
    1e20:	61006576 	tstvs	r0, r6, ror r5
    1e24:	2f686372 	svccs	0x00686372
    1e28:	2f6d7261 	svccs	0x006d7261
    1e2c:	6863616d 	stmdavs	r3!, {r0, r2, r3, r5, r6, r8, sp, lr}^
    1e30:	6e75732d 	cdpvs	3, 7, cr7, cr5, cr13, {1}
    1e34:	702f6978 	eorvc	r6, pc, r8, ror r9	; <UNPREDICTABLE>
    1e38:	74732f6d 	ldrbtvc	r2, [r3], #-3949	; 0xfffff093
    1e3c:	62646e61 	rsbvs	r6, r4, #1552	; 0x610
    1e40:	2e2e2f79 	mcrcs	15, 1, r2, cr14, cr9, {3}
    1e44:	6d656d2f 	stclvs	13, cr6, [r5, #-188]!	; 0xffffff44
    1e48:	736d745f 	cmnvc	sp, #1593835520	; 0x5f000000
    1e4c:	2e706d74 	mrccs	13, 3, r6, cr0, cr4, {3}
    1e50:	72610063 	rsbvc	r0, r1, #99	; 0x63
    1e54:	612f6863 			; <UNDEFINED> instruction: 0x612f6863
    1e58:	6d2f6d72 	stcvs	13, cr6, [pc, #-456]!	; 1c98 <printk+0x1c>
    1e5c:	2d686361 	stclcs	3, cr6, [r8, #-388]!	; 0xfffffe7c
    1e60:	786e7573 	stmdavc	lr!, {r0, r1, r4, r5, r6, r8, sl, ip, sp, lr}^
    1e64:	6d702f69 	ldclvs	15, cr2, [r0, #-420]!	; 0xfffffe5c
    1e68:	6174732f 	cmnvs	r4, pc, lsr #6
    1e6c:	7962646e 	stmdbvc	r2!, {r1, r2, r3, r5, r6, sl, sp, lr}^
    1e70:	2f2e2e2f 	svccs	0x002e2e2f
    1e74:	5f6d656d 	svcpl	0x006d656d
    1e78:	70737768 	rsbsvc	r7, r3, r8, ror #14
    1e7c:	6f6c6e69 	svcvs	0x006c6e69
    1e80:	632e6b63 			; <UNDEFINED> instruction: 0x632e6b63
    1e84:	6d656d00 	stclvs	13, cr6, [r5, #-0]
    1e88:	6b6c635f 	blvs	1b1ac0c <__bss_end+0x1b17a90>
    1e8c:	7465675f 	strbtvc	r6, [r5], #-1887	; 0xfffff8a1
    1e90:	73696d5f 	cmnvc	r9, #6080	; 0x17c0
    1e94:	72610063 	rsbvc	r0, r1, #99	; 0x63
    1e98:	612f6863 			; <UNDEFINED> instruction: 0x612f6863
    1e9c:	6d2f6d72 	stcvs	13, cr6, [pc, #-456]!	; 1cdc <printk+0x60>
    1ea0:	2d686361 	stclcs	3, cr6, [r8, #-388]!	; 0xfffffe7c
    1ea4:	786e7573 	stmdavc	lr!, {r0, r1, r4, r5, r6, r8, sl, ip, sp, lr}^
    1ea8:	6d702f69 	ldclvs	15, cr2, [r0, #-420]!	; 0xfffffe5c
    1eac:	6174732f 	cmnvs	r4, pc, lsr #6
    1eb0:	7962646e 	stmdbvc	r2!, {r1, r2, r3, r5, r6, sl, sp, lr}^
    1eb4:	2f2e2e2f 	svccs	0x002e2e2f
    1eb8:	5f6d656d 	svcpl	0x006d656d
    1ebc:	2e6b6c63 	cdpcs	12, 6, cr6, cr11, cr3, {3}
    1ec0:	6d430063 	stclvs	0, cr0, [r3, #-396]	; 0xfffffe74
    1ec4:	67655275 			; <UNDEFINED> instruction: 0x67655275
    1ec8:	6c6c505f 	stclvs	0, cr5, [ip], #-380	; 0xfffffe84
    1ecc:	6c744331 	ldclvs	3, cr4, [r4], #-196	; 0xffffff3c
    1ed0:	706d745f 	rsbvc	r7, sp, pc, asr r4
    1ed4:	6d656d00 	stclvs	13, cr6, [r5, #-0]
    1ed8:	6b6c635f 	blvs	1b1ac5c <__bss_end+0x1b17ae0>
    1edc:	7465675f 	strbtvc	r6, [r5], #-1887	; 0xfffff8a1
    1ee0:	00766964 	rsbseq	r6, r6, r4, ror #18
    1ee4:	5f6d656d 	svcpl	0x006d656d
    1ee8:	5f6b6c63 	svcpl	0x006b6c63
    1eec:	65766173 	ldrbvs	r6, [r6, #-371]!	; 0xfffffe8d
    1ef0:	75636300 	strbvc	r6, [r3, #-768]!	; 0xfffffd00
    1ef4:	6765725f 			; <UNDEFINED> instruction: 0x6765725f
    1ef8:	6361625f 	cmnvs	r1, #-268435451	; 0xf0000005
    1efc:	656d006b 	strbvs	r0, [sp, #-107]!	; 0xffffff95
    1f00:	6c635f6d 	stclvs	15, cr5, [r3], #-436	; 0xfffffe4c
    1f04:	65675f6b 	strbvs	r5, [r7, #-3947]!	; 0xfffff095
    1f08:	6c705f74 	ldclvs	15, cr5, [r0], #-464	; 0xfffffe30
    1f0c:	61665f6c 	cmnvs	r6, ip, ror #30
    1f10:	726f7463 	rsbvc	r7, pc, #1660944384	; 0x63000000
    1f14:	67657200 	strbvs	r7, [r5, -r0, lsl #4]!
    1f18:	6c61765f 	stclvs	6, cr7, [r1], #-380	; 0xfffffe84
    1f1c:	6c637000 	stclvs	0, cr7, [r3], #-0
    1f20:	74735f6b 	ldrbtvc	r5, [r3], #-3947	; 0xfffff095
    1f24:	00657461 	rsbeq	r7, r5, r1, ror #8
    1f28:	5f6d656d 	svcpl	0x006d656d
    1f2c:	5f6b6c63 	svcpl	0x006b6c63
    1f30:	74736572 	ldrbtvc	r6, [r3], #-1394	; 0xfffffa8e
    1f34:	0065726f 	rsbeq	r7, r5, pc, ror #4
    1f38:	52756d43 	rsbspl	r6, r5, #4288	; 0x10c0
    1f3c:	535f6765 	cmppl	pc, #26476544	; 0x1940000
    1f40:	6c437379 	mcrrvs	3, 7, r7, r3, cr9
    1f44:	7669446b 	strbtvc	r4, [r9], -fp, ror #8
    1f48:	706d745f 	rsbvc	r7, sp, pc, asr r4
	...

Disassembly of section .comment:

00000000 <.comment>:
   0:	3a434347 	bcc	10d0d24 <__bss_end+0x10cdba8>
   4:	704f2820 	subvc	r2, pc, r0, lsr #16
   8:	72576e65 	subsvc	r6, r7, #1616	; 0x650
   c:	43472074 	movtmi	r2, #28788	; 0x7074
  10:	2e352043 	cdpcs	0, 3, cr2, cr5, cr3, {2}
  14:	20302e32 	eorscs	r2, r0, r2, lsr lr
  18:	312d3037 			; <UNDEFINED> instruction: 0x312d3037
  1c:	2029312d 	eorcs	r3, r9, sp, lsr #2
  20:	2e322e35 	mrccs	14, 1, r2, cr2, cr5, {1}
  24:	Address 0x0000000000000024 is out of bounds.


Disassembly of section .ARM.attributes:

00000000 <.ARM.attributes>:
   0:	00002e41 	andeq	r2, r0, r1, asr #28
   4:	61656100 	cmnvs	r5, r0, lsl #2
   8:	01006962 	tsteq	r0, r2, ror #18
   c:	00000024 	andeq	r0, r0, r4, lsr #32
  10:	412d3705 			; <UNDEFINED> instruction: 0x412d3705
  14:	070a0600 	streq	r0, [sl, -r0, lsl #12]
  18:	09010841 	stmdbeq	r1, {r0, r6, fp}
  1c:	12020a02 	andne	r0, r2, #8192	; 0x2000
  20:	15011404 	strne	r1, [r1, #-1028]	; 0xfffffbfc
  24:	18031701 	stmdane	r3, {r0, r8, r9, sl, ip}
  28:	1c021a01 	stcne	10, cr1, [r2], {1}
  2c:	Address 0x000000000000002c is out of bounds.


Disassembly of section .debug_loc:

00000000 <.debug_loc>:
       0:	00000000 	andeq	r0, r0, r0
       4:	00000014 	andeq	r0, r0, r4, lsl r0
       8:	14500001 	ldrbne	r0, [r0], #-1
       c:	18000000 	stmdane	r0, {}	; <UNPREDICTABLE>
      10:	03000000 	movweq	r0, #0
      14:	9f047000 	svcls	0x00047000
      18:	00000018 	andeq	r0, r0, r8, lsl r0
      1c:	0000002c 	andeq	r0, r0, ip, lsr #32
      20:	01f30004 	mvnseq	r0, r4
      24:	00009f50 	andeq	r9, r0, r0, asr pc
	...
      30:	00180000 	andseq	r0, r8, r0
      34:	00010000 	andeq	r0, r1, r0
      38:	00001851 	andeq	r1, r0, r1, asr r8
      3c:	00002c00 	andeq	r2, r0, r0, lsl #24
      40:	f3000400 	vshl.u8	d0, d0, d0
      44:	009f5101 	addseq	r5, pc, r1, lsl #2
	...
      50:	04000000 	streq	r0, [r0], #-0
      54:	01000000 	mrseq	r0, (UNDEF: 0)
      58:	00045200 	andeq	r5, r4, r0, lsl #4
      5c:	00080000 	andeq	r0, r8, r0
      60:	00030000 	andeq	r0, r3, r0
      64:	089f7d72 	ldmeq	pc, {r1, r4, r5, r6, r8, sl, fp, ip, sp, lr}	; <UNPREDICTABLE>
      68:	18000000 	stmdane	r0, {}	; <UNPREDICTABLE>
      6c:	01000000 	mrseq	r0, (UNDEF: 0)
      70:	00005200 	andeq	r5, r0, r0, lsl #4
      74:	00000000 	andeq	r0, r0, r0
      78:	00040000 	andeq	r0, r4, r0
      7c:	001c0000 	andseq	r0, ip, r0
      80:	00010000 	andeq	r0, r1, r0
      84:	00001c51 	andeq	r1, r0, r1, asr ip
      88:	00002400 	andeq	r2, r0, r0, lsl #8
      8c:	71000300 	mrsvc	r0, LR_irq
      90:	00249f7c 	eoreq	r9, r4, ip, ror pc
      94:	002c0000 	eoreq	r0, ip, r0
      98:	00010000 	andeq	r0, r1, r0
      9c:	00000051 	andeq	r0, r0, r1, asr r0
      a0:	00000000 	andeq	r0, r0, r0
      a4:	00000400 	andeq	r0, r0, r0, lsl #8
      a8:	00001400 	andeq	r1, r0, r0, lsl #8
      ac:	50000100 	andpl	r0, r0, r0, lsl #2
      b0:	00000014 	andeq	r0, r0, r4, lsl r0
      b4:	00000018 	andeq	r0, r0, r8, lsl r0
      b8:	04700003 	ldrbteq	r0, [r0], #-3
      bc:	0000189f 	muleq	r0, pc, r8	; <UNPREDICTABLE>
      c0:	00002c00 	andeq	r2, r0, r0, lsl #24
      c4:	f3000600 	vmax.u8	d0, d0, d0
      c8:	04235001 	strteq	r5, [r3], #-1
      cc:	0000009f 	muleq	r0, pc, r0	; <UNPREDICTABLE>
      d0:	00000000 	andeq	r0, r0, r0
      d4:	00019400 	andeq	r9, r1, r0, lsl #8
      d8:	00019700 	andeq	r9, r1, r0, lsl #14
      dc:	50000100 	andpl	r0, r0, r0, lsl #2
      e0:	00000197 	muleq	r0, r7, r1
      e4:	00000244 	andeq	r0, r0, r4, asr #4
      e8:	74540001 	ldrbvc	r0, [r4], #-1
      ec:	b8000002 	stmdalt	r0, {r1}
      f0:	01000002 	tsteq	r0, r2
      f4:	00005400 	andeq	r5, r0, r0, lsl #8
      f8:	00000000 	andeq	r0, r0, r0
      fc:	014c0000 	mrseq	r0, (UNDEF: 76)
     100:	01540000 	cmpeq	r4, r0
     104:	00020000 	andeq	r0, r2, r0
     108:	01549f30 	cmpeq	r4, r0, lsr pc
     10c:	01580000 	cmpeq	r8, r0
     110:	00050000 	andeq	r0, r5, r0
     114:	1a330072 	bne	cc02e4 <__bss_end+0xcbd168>
     118:	0001589f 	muleq	r1, pc, r8	; <UNPREDICTABLE>
     11c:	00018700 	andeq	r8, r1, r0, lsl #14
     120:	52000100 	andpl	r0, r0, #0, 2
     124:	00000248 	andeq	r0, r0, r8, asr #4
     128:	00000258 	andeq	r0, r0, r8, asr r2
     12c:	58520001 	ldmdapl	r2, {r0}^
     130:	60000002 	andvs	r0, r0, r2
     134:	06000002 	streq	r0, [r0], -r2
     138:	80807200 	addhi	r7, r0, r0, lsl #4
     13c:	609f7c90 	umullsvs	r7, pc, r0, ip	; <UNPREDICTABLE>
     140:	64000002 	strvs	r0, [r0], #-2
     144:	06000002 	streq	r0, [r0], -r2
     148:	ffbf7200 			; <UNDEFINED> instruction: 0xffbf7200
     14c:	009f7c8f 	addseq	r7, pc, pc, lsl #25
     150:	00000000 	andeq	r0, r0, r0
     154:	30000000 	andcc	r0, r0, r0
     158:	40000000 	andmi	r0, r0, r0
     15c:	02000000 	andeq	r0, r0, #0
     160:	409f3000 	addsmi	r3, pc, r0
     164:	44000000 	strmi	r0, [r0], #-0
     168:	02000000 	andeq	r0, r0, #0
     16c:	449f3100 	ldrmi	r3, [pc], #256	; 174 <resume1_c_part+0x40>
     170:	48000000 	stmdami	r0, {}	; <UNPREDICTABLE>
     174:	02000000 	andeq	r0, r0, #0
     178:	489f3200 	ldmmi	pc, {r9, ip, sp}	; <UNPREDICTABLE>
     17c:	4c000000 	stcmi	0, cr0, [r0], {-0}
     180:	02000000 	andeq	r0, r0, #0
     184:	4c9f3300 	ldcmi	3, cr3, [pc], {0}
     188:	50000000 	andpl	r0, r0, r0
     18c:	02000000 	andeq	r0, r0, #0
     190:	009f3400 	addseq	r3, pc, r0, lsl #8
     194:	00000000 	andeq	r0, r0, r0
     198:	8c000000 	stchi	0, cr0, [r0], {-0}
     19c:	a0000000 	andge	r0, r0, r0
     1a0:	02000000 	andeq	r0, r0, #0
     1a4:	009f3000 	addseq	r3, pc, r0
     1a8:	00000000 	andeq	r0, r0, r0
     1ac:	44000000 	strmi	r0, [r0], #-0
     1b0:	60000001 	andvs	r0, r0, r1
     1b4:	01000001 	tsteq	r0, r1
     1b8:	01605000 	cmneq	r0, r0
     1bc:	01780000 	cmneq	r8, r0
     1c0:	00040000 	andeq	r0, r4, r0
     1c4:	9f5001f3 	svcls	0x005001f3
	...
     1d4:	0000000c 	andeq	r0, r0, ip
     1d8:	9f310002 	svcls	0x00310002
     1dc:	0000000c 	andeq	r0, r0, ip
     1e0:	00000014 	andeq	r0, r0, r4, lsl r0
     1e4:	14530001 	ldrbne	r0, [r3], #-1
     1e8:	18000000 	stmdane	r0, {}	; <UNPREDICTABLE>
     1ec:	05000000 	streq	r0, [r0, #-0]
     1f0:	40007300 	andmi	r7, r0, r0, lsl #6
     1f4:	00189f21 	andseq	r9, r8, r1, lsr #30
     1f8:	001c0000 	andseq	r0, ip, r0
     1fc:	00010000 	andeq	r0, r1, r0
     200:	00001c53 	andeq	r1, r0, r3, asr ip
     204:	00003400 	andeq	r3, r0, r0, lsl #8
     208:	9e000600 	cfmadd32ls	mvax0, mvfx0, mvfx0, mvfx0
     20c:	00000f04 	andeq	r0, r0, r4, lsl #30
     210:	00000080 	andeq	r0, r0, r0, lsl #1
     214:	00000000 	andeq	r0, r0, r0
     218:	00007400 	andeq	r7, r0, r0, lsl #8
     21c:	00007800 	andeq	r7, r0, r0, lsl #16
     220:	30000200 	andcc	r0, r0, r0, lsl #4
     224:	0000789f 	muleq	r0, pc, r8	; <UNPREDICTABLE>
     228:	00007c00 	andeq	r7, r0, r0, lsl #24
     22c:	73000500 	movwvc	r0, #1280	; 0x500
     230:	9f213400 	svcls	0x00213400
     234:	0000007c 	andeq	r0, r0, ip, ror r0
     238:	00000084 	andeq	r0, r0, r4, lsl #1
     23c:	00530001 	subseq	r0, r3, r1
     240:	00000000 	andeq	r0, r0, r0
     244:	84000000 	strhi	r0, [r0], #-0
     248:	8c000000 	stchi	0, cr0, [r0], {-0}
     24c:	02000000 	andeq	r0, r0, #0
     250:	009f3000 	addseq	r3, pc, r0
     254:	00000000 	andeq	r0, r0, r0
     258:	84000000 	strhi	r0, [r0], #-0
     25c:	90000000 	andls	r0, r0, r0
     260:	02000000 	andeq	r0, r0, #0
     264:	009f3000 	addseq	r3, pc, r0
     268:	00000000 	andeq	r0, r0, r0
     26c:	8c000000 	stchi	0, cr0, [r0], {-0}
     270:	a4000000 	strge	r0, [r0], #-0
     274:	01000000 	mrseq	r0, (UNDEF: 0)
     278:	00005300 	andeq	r5, r0, r0, lsl #6
     27c:	00000000 	andeq	r0, r0, r0
     280:	00900000 	addseq	r0, r0, r0
     284:	009c0000 	addseq	r0, ip, r0
     288:	00010000 	andeq	r0, r1, r0
     28c:	00000052 	andeq	r0, r0, r2, asr r0
     290:	00000000 	andeq	r0, r0, r0
     294:	0000b400 	andeq	fp, r0, r0, lsl #8
     298:	0000cc00 	andeq	ip, r0, r0, lsl #24
     29c:	50000100 	andpl	r0, r0, r0, lsl #2
     2a0:	000000cc 	andeq	r0, r0, ip, asr #1
     2a4:	000000d8 	ldrdeq	r0, [r0], -r8
     2a8:	01f30004 	mvnseq	r0, r4
     2ac:	00d89f50 	sbcseq	r9, r8, r0, asr pc
     2b0:	00e40000 	rsceq	r0, r4, r0
     2b4:	00010000 	andeq	r0, r1, r0
     2b8:	0000e450 	andeq	lr, r0, r0, asr r4
     2bc:	00014800 	andeq	r4, r1, r0, lsl #16
     2c0:	54000100 	strpl	r0, [r0], #-256	; 0xffffff00
	...
     2cc:	000000b4 	strheq	r0, [r0], -r4
     2d0:	000000cc 	andeq	r0, r0, ip, asr #1
     2d4:	9f300002 	svcls	0x00300002
     2d8:	000000d8 	ldrdeq	r0, [r0], -r8
     2dc:	000000e8 	andeq	r0, r0, r8, ror #1
     2e0:	9f300002 	svcls	0x00300002
     2e4:	000000e8 	andeq	r0, r0, r8, ror #1
     2e8:	000000f0 	strdeq	r0, [r0], -r0	; <UNPREDICTABLE>
     2ec:	01700006 	cmneq	r0, r6
     2f0:	9f1e0074 	svcls	0x001e0074
	...
     2fc:	000000b4 	strheq	r0, [r0], -r4
     300:	000000cc 	andeq	r0, r0, ip, asr #1
     304:	9f300002 	svcls	0x00300002
     308:	000000d8 	ldrdeq	r0, [r0], -r8
     30c:	000000ec 	andeq	r0, r0, ip, ror #1
     310:	9f300002 	svcls	0x00300002
     314:	00000138 	andeq	r0, r0, r8, lsr r1
     318:	0000013c 	andeq	r0, r0, ip, lsr r1
     31c:	00530001 	subseq	r0, r3, r1
     320:	00000000 	andeq	r0, r0, r0
     324:	b4000000 	strlt	r0, [r0], #-0
     328:	cc000000 	stcgt	0, cr0, [r0], {-0}
     32c:	02000000 	andeq	r0, r0, #0
     330:	d89f3000 	ldmle	pc, {ip, sp}	; <UNPREDICTABLE>
     334:	fc000000 	stc2	0, cr0, [r0], {-0}
     338:	02000000 	andeq	r0, r0, #0
     33c:	fc9f3000 	ldc2	0, cr3, [pc], {0}
     340:	48000000 	stmdami	r0, {}	; <UNPREDICTABLE>
     344:	01000001 	tsteq	r0, r1
     348:	00005000 	andeq	r5, r0, r0
     34c:	00000000 	andeq	r0, r0, r0
     350:	00b40000 	adcseq	r0, r4, r0
     354:	00cc0000 	sbceq	r0, ip, r0
     358:	00020000 	andeq	r0, r2, r0
     35c:	00d89f30 	sbcseq	r9, r8, r0, lsr pc
     360:	01000000 	mrseq	r0, (UNDEF: 0)
     364:	00020000 	andeq	r0, r2, r0
     368:	01009f30 	tsteq	r0, r0, lsr pc
     36c:	01040000 	mrseq	r0, (UNDEF: 4)
     370:	00010000 	andeq	r0, r1, r0
     374:	00000052 	andeq	r0, r0, r2, asr r0
     378:	00000000 	andeq	r0, r0, r0
     37c:	00010c00 	andeq	r0, r1, r0, lsl #24
     380:	00012800 	andeq	r2, r1, r0, lsl #16
     384:	30000200 	andcc	r0, r0, r0, lsl #4
     388:	0000009f 	muleq	r0, pc, r0	; <UNPREDICTABLE>
     38c:	00000000 	andeq	r0, r0, r0
     390:	00010c00 	andeq	r0, r1, r0, lsl #24
     394:	00012800 	andeq	r2, r1, r0, lsl #16
     398:	31000200 	mrscc	r0, R8_usr
     39c:	0000009f 	muleq	r0, pc, r0	; <UNPREDICTABLE>
     3a0:	00000000 	andeq	r0, r0, r0
     3a4:	00010c00 	andeq	r0, r1, r0, lsl #24
     3a8:	00011400 	andeq	r1, r1, r0, lsl #8
     3ac:	47000200 	strmi	r0, [r0, -r0, lsl #4]
     3b0:	0001149f 	muleq	r1, pc, r4	; <UNPREDICTABLE>
     3b4:	00012800 	andeq	r2, r1, r0, lsl #16
     3b8:	9e000600 	cfmadd32ls	mvax0, mvfx0, mvfx0, mvfx0
     3bc:	00000f04 	andeq	r0, r0, r4, lsl #30
     3c0:	00000080 	andeq	r0, r0, r0, lsl #1
     3c4:	00000000 	andeq	r0, r0, r0
     3c8:	00013800 	andeq	r3, r1, r0, lsl #16
     3cc:	00013c00 	andeq	r3, r1, r0, lsl #24
     3d0:	53000100 	movwpl	r0, #256	; 0x100
	...
     3dc:	00000148 	andeq	r0, r0, r8, asr #2
     3e0:	00000158 	andeq	r0, r0, r8, asr r1
     3e4:	58500001 	ldmdapl	r0, {r0}^
     3e8:	5c000001 	stcpl	0, cr0, [r0], {1}
     3ec:	01000001 	tsteq	r0, r1
     3f0:	015c5400 	cmpeq	ip, r0, lsl #8
     3f4:	01640000 	cmneq	r4, r0
     3f8:	00030000 	andeq	r0, r3, r0
     3fc:	649f0a74 	ldrvs	r0, [pc], #2676	; 404 <busy_waiting+0x18>
     400:	78000001 	stmdavc	r0, {r0}
     404:	01000001 	tsteq	r0, r1
     408:	00005400 	andeq	r5, r0, r0, lsl #8
     40c:	00000000 	andeq	r0, r0, r0
     410:	017c0000 	cmneq	ip, r0
     414:	01880000 	orreq	r0, r8, r0
     418:	00020000 	andeq	r0, r2, r0
     41c:	01889f31 	orreq	r9, r8, r1, lsr pc
     420:	01900000 	orrseq	r0, r0, r0
     424:	00010000 	andeq	r0, r1, r0
     428:	00019053 	andeq	r9, r1, r3, asr r0
     42c:	00019400 	andeq	r9, r1, r0, lsl #8
     430:	73000500 	movwvc	r0, #1280	; 0x500
     434:	9f214000 	svcls	0x00214000
     438:	00000194 	muleq	r0, r4, r1
     43c:	00000198 	muleq	r0, r8, r1
     440:	98530001 	ldmdals	r3, {r0}^
     444:	a8000001 	stmdage	r0, {r0}
     448:	06000001 	streq	r0, [r0], -r1
     44c:	0f049e00 	svceq	0x00049e00
     450:	00800000 	addeq	r0, r0, r0
     454:	00000000 	andeq	r0, r0, r0
     458:	a8000000 	stmdage	r0, {}	; <UNPREDICTABLE>
     45c:	b8000001 	stmdalt	r0, {r0}
     460:	02000001 	andeq	r0, r0, #1
     464:	009f3000 	addseq	r3, pc, r0
     468:	00000000 	andeq	r0, r0, r0
     46c:	d4000000 	strle	r0, [r0], #-0
     470:	d8000001 	stmdale	r0, {r0}
     474:	01000001 	tsteq	r0, r1
     478:	01d85000 	bicseq	r5, r8, r0
     47c:	01f40000 	mvnseq	r0, r0
     480:	00030000 	andeq	r0, r3, r0
     484:	f49f0270 			; <UNDEFINED> instruction: 0xf49f0270
     488:	00000001 	andeq	r0, r0, r1
     48c:	04000002 	streq	r0, [r0], #-2
     490:	5001f300 	andpl	pc, r1, r0, lsl #6
     494:	0000009f 	muleq	r0, pc, r0	; <UNPREDICTABLE>
     498:	00000000 	andeq	r0, r0, r0
     49c:	0001d400 	andeq	sp, r1, r0, lsl #8
     4a0:	0001ec00 	andeq	lr, r1, r0, lsl #24
     4a4:	30000200 	andcc	r0, r0, r0, lsl #4
     4a8:	0001ec9f 	muleq	r1, pc, ip	; <UNPREDICTABLE>
     4ac:	00020000 	andeq	r0, r2, r0
     4b0:	53000100 	movwpl	r0, #256	; 0x100
	...
     4bc:	000001d4 	ldrdeq	r0, [r0], -r4
     4c0:	000001f4 	strdeq	r0, [r0], -r4
     4c4:	9f300002 	svcls	0x00300002
	...
     4d0:	000006d4 	ldrdeq	r0, [r0], -r4
     4d4:	000006d8 	ldrdeq	r0, [r0], -r8
     4d8:	00720006 	rsbseq	r0, r2, r6
     4dc:	9f1afc09 	svcls	0x001afc09
     4e0:	000006d8 	ldrdeq	r0, [r0], -r8
     4e4:	000006e0 	andeq	r0, r0, r0, ror #13
     4e8:	00520001 	subseq	r0, r2, r1
     4ec:	00000000 	andeq	r0, r0, r0
     4f0:	9c000000 	stcls	0, cr0, [r0], {-0}
     4f4:	a0000007 	andge	r0, r0, r7
     4f8:	02000007 	andeq	r0, r0, #7
     4fc:	a09f3000 	addsge	r3, pc, r0
     500:	ac000007 	stcge	0, cr0, [r0], {7}
     504:	01000007 	tsteq	r0, r7
     508:	00005300 	andeq	r5, r0, r0, lsl #6
	...
     514:	000b0000 	andeq	r0, fp, r0
     518:	00010000 	andeq	r0, r1, r0
     51c:	00000b50 	andeq	r0, r0, r0, asr fp
     520:	00004400 	andeq	r4, r0, r0, lsl #8
     524:	54000100 	strpl	r0, [r0], #-256	; 0xffffff00
     528:	00000044 	andeq	r0, r0, r4, asr #32
     52c:	000000ac 	andeq	r0, r0, ip, lsr #1
     530:	01f30004 	mvnseq	r0, r4
     534:	00009f50 	andeq	r9, r0, r0, asr pc
	...
     540:	00280000 	eoreq	r0, r8, r0
     544:	00020000 	andeq	r0, r2, r0
     548:	00289f30 	eoreq	r9, r8, r0, lsr pc
     54c:	003b0000 	eorseq	r0, fp, r0
     550:	00010000 	andeq	r0, r1, r0
     554:	00000050 	andeq	r0, r0, r0, asr r0
	...
     560:	00005c00 	andeq	r5, r0, r0, lsl #24
     564:	30000200 	andcc	r0, r0, r0, lsl #4
     568:	00005c9f 	muleq	r0, pc, ip	; <UNPREDICTABLE>
     56c:	00008300 	andeq	r8, r0, r0, lsl #6
     570:	50000100 	andpl	r0, r0, r0, lsl #2
     574:	00000083 	andeq	r0, r0, r3, lsl #1
     578:	000000ac 	andeq	r0, r0, ip, lsr #1
     57c:	00550001 	subseq	r0, r5, r1
	...
     588:	68000000 	stmdavs	r0, {}	; <UNPREDICTABLE>
     58c:	02000000 	andeq	r0, r0, #0
     590:	689f3000 	ldmvs	pc, {ip, sp}	; <UNPREDICTABLE>
     594:	8c000000 	stchi	0, cr0, [r0], {-0}
     598:	06000000 	streq	r0, [r0], -r0
     59c:	02d80c00 	sbcseq	r0, r8, #0, 24
     5a0:	8c9f01c2 	ldfhis	f0, [pc], {194}	; 0xc2
     5a4:	ac000000 	stcge	0, cr0, [r0], {-0}
     5a8:	06000000 	streq	r0, [r0], -r0
     5ac:	006c0c00 	rsbeq	r0, ip, r0, lsl #24
     5b0:	009f01c2 	addseq	r0, pc, r2, asr #3
	...
     5bc:	0c000000 	stceq	0, cr0, [r0], {-0}
     5c0:	02000000 	andeq	r0, r0, #0
     5c4:	0c9f3000 	ldceq	0, cr3, [pc], {0}
     5c8:	20000000 	andcs	r0, r0, r0
     5cc:	01000000 	mrseq	r0, (UNDEF: 0)
     5d0:	00005000 	andeq	r5, r0, r0
     5d4:	00000000 	andeq	r0, r0, r0
     5d8:	00100000 	andseq	r0, r0, r0
     5dc:	00340000 	eorseq	r0, r4, r0
     5e0:	00010000 	andeq	r0, r1, r0
     5e4:	00000053 	andeq	r0, r0, r3, asr r0
     5e8:	00000000 	andeq	r0, r0, r0
     5ec:	0000e000 	andeq	lr, r0, r0
     5f0:	0000e800 	andeq	lr, r0, r0, lsl #16
     5f4:	50000100 	andpl	r0, r0, r0, lsl #2
     5f8:	000000e8 	andeq	r0, r0, r8, ror #1
     5fc:	00000180 	andeq	r0, r0, r0, lsl #3
     600:	01f30004 	mvnseq	r0, r4
     604:	00009f50 	andeq	r9, r0, r0, asr pc
     608:	00000000 	andeq	r0, r0, r0
     60c:	00e00000 	rsceq	r0, r0, r0
     610:	01580000 	cmpeq	r8, r0
     614:	00020000 	andeq	r0, r2, r0
     618:	01589f30 	cmpeq	r8, r0, lsr pc
     61c:	01800000 	orreq	r0, r0, r0
     620:	00050000 	andeq	r0, r5, r0
     624:	25440075 	strbcs	r0, [r4, #-117]	; 0xffffff8b
     628:	0000009f 	muleq	r0, pc, r0	; <UNPREDICTABLE>
     62c:	00000000 	andeq	r0, r0, r0
     630:	0000e000 	andeq	lr, r0, r0
     634:	00013000 	andeq	r3, r1, r0
     638:	30000200 	andcc	r0, r0, r0, lsl #4
     63c:	0000009f 	muleq	r0, pc, r0	; <UNPREDICTABLE>
     640:	00000000 	andeq	r0, r0, r0
     644:	0000e000 	andeq	lr, r0, r0
     648:	00012000 	andeq	r2, r1, r0
     64c:	30000200 	andcc	r0, r0, r0, lsl #4
     650:	0001209f 	muleq	r1, pc, r0	; <UNPREDICTABLE>
     654:	00015400 	andeq	r5, r1, r0, lsl #8
     658:	50000100 	andpl	r0, r0, r0, lsl #2
     65c:	00000154 	andeq	r0, r0, r4, asr r1
     660:	00000160 	andeq	r0, r0, r0, ror #2
     664:	80700005 	rsbshi	r0, r0, r5
     668:	009f47e0 	addseq	r4, pc, r0, ror #15
     66c:	00000000 	andeq	r0, r0, r0
     670:	e0000000 	and	r0, r0, r0
     674:	e8000000 	stmda	r0, {}	; <UNPREDICTABLE>
     678:	01000000 	mrseq	r0, (UNDEF: 0)
     67c:	00e85000 	rsceq	r5, r8, r0
     680:	01800000 	orreq	r0, r0, r0
     684:	00040000 	andeq	r0, r4, r0
     688:	9f5001f3 	svcls	0x005001f3
	...
     694:	00000180 	andeq	r0, r0, r0, lsl #3
     698:	000001c0 	andeq	r0, r0, r0, asr #3
     69c:	c0500001 	subsgt	r0, r0, r1
     6a0:	e0000001 	and	r0, r0, r1
     6a4:	03000001 	movweq	r0, #1
     6a8:	9f7f7000 	svcls	0x007f7000
     6ac:	000001e0 	andeq	r0, r0, r0, ror #3
     6b0:	000001f0 	strdeq	r0, [r0], -r0	; <UNPREDICTABLE>
     6b4:	f4500001 			; <UNDEFINED> instruction: 0xf4500001
     6b8:	1c000001 	stcne	0, cr0, [r0], {1}
     6bc:	01000002 	tsteq	r0, r2
     6c0:	021c5000 	andseq	r5, ip, #0
     6c4:	02200000 	eoreq	r0, r0, #0
     6c8:	00040000 	andeq	r0, r4, r0
     6cc:	9f5001f3 	svcls	0x005001f3
     6d0:	00000220 	andeq	r0, r0, r0, lsr #4
     6d4:	00000224 	andeq	r0, r0, r4, lsr #4
     6d8:	24500001 	ldrbcs	r0, [r0], #-1
     6dc:	28000002 	stmdacs	r0, {r1}
     6e0:	04000002 	streq	r0, [r0], #-2
     6e4:	5001f300 	andpl	pc, r1, r0, lsl #6
     6e8:	0000009f 	muleq	r0, pc, r0	; <UNPREDICTABLE>
     6ec:	00000000 	andeq	r0, r0, r0
     6f0:	0001c000 	andeq	ip, r1, r0
     6f4:	0001f400 	andeq	pc, r1, r0, lsl #8
     6f8:	51000100 	mrspl	r0, (UNDEF: 16)
	...
     704:	00000228 	andeq	r0, r0, r8, lsr #4
     708:	00000240 	andeq	r0, r0, r0, asr #4
     70c:	40500001 	subsmi	r0, r0, r1
     710:	44000002 	strmi	r0, [r0], #-2
     714:	04000002 	streq	r0, [r0], #-2
     718:	5001f300 	andpl	pc, r1, r0, lsl #6
     71c:	0002449f 	muleq	r2, pc, r4	; <UNPREDICTABLE>
     720:	00026000 	andeq	r6, r2, r0
     724:	50000100 	andpl	r0, r0, r0, lsl #2
     728:	00000260 	andeq	r0, r0, r0, ror #4
     72c:	000002b0 			; <UNDEFINED> instruction: 0x000002b0
     730:	01f30004 	mvnseq	r0, r4
     734:	02b09f50 	adcseq	r9, r0, #80, 30	; 0x140
     738:	02b40000 	adcseq	r0, r4, #0
     73c:	00010000 	andeq	r0, r1, r0
     740:	0002b450 	andeq	fp, r2, r0, asr r4
     744:	0002bc00 	andeq	fp, r2, r0, lsl #24
     748:	f3000400 	vshl.u8	d0, d0, d0
     74c:	009f5001 	addseq	r5, pc, r1
     750:	00000000 	andeq	r0, r0, r0
     754:	28000000 	stmdacs	r0, {}	; <UNPREDICTABLE>
     758:	60000002 	andvs	r0, r0, r2
     75c:	02000002 	andeq	r0, r0, #2
     760:	609f3000 	addsvs	r3, pc, r0
     764:	8c000002 	stchi	0, cr0, [r0], {2}
     768:	01000002 	tsteq	r0, r2
     76c:	028c5000 	addeq	r5, ip, #0
     770:	02940000 	addseq	r0, r4, #0
     774:	00030000 	andeq	r0, r3, r0
     778:	949f7f70 	ldrls	r7, [pc], #3952	; 780 <save_mmu_state>
     77c:	a4000002 	strge	r0, [r0], #-2
     780:	01000002 	tsteq	r0, r2
     784:	02a85000 	adceq	r5, r8, #0
     788:	02ac0000 	adceq	r0, ip, #0
     78c:	00010000 	andeq	r0, r1, r0
     790:	0002ac50 	andeq	sl, r2, r0, asr ip
     794:	0002b000 	andeq	fp, r2, r0
     798:	70000300 	andvc	r0, r0, r0, lsl #6
     79c:	02b09f7f 	adcseq	r9, r0, #508	; 0x1fc
     7a0:	02b80000 	adcseq	r0, r8, #0
     7a4:	00020000 	andeq	r0, r2, r0
     7a8:	02b89f30 	adcseq	r9, r8, #48, 30	; 0xc0
     7ac:	02bc0000 	adcseq	r0, ip, #0
     7b0:	00030000 	andeq	r0, r3, r0
     7b4:	009f7f70 	addseq	r7, pc, r0, ror pc	; <UNPREDICTABLE>
     7b8:	00000000 	andeq	r0, r0, r0
     7bc:	28000000 	stmdacs	r0, {}	; <UNPREDICTABLE>
     7c0:	60000002 	andvs	r0, r0, r2
     7c4:	02000002 	andeq	r0, r0, #2
     7c8:	b09f3000 	addslt	r3, pc, r0
     7cc:	b8000002 	stmdalt	r0, {r1}
     7d0:	02000002 	andeq	r0, r0, #2
     7d4:	009f3000 	addseq	r3, pc, r0
     7d8:	00000000 	andeq	r0, r0, r0
     7dc:	68000000 	stmdavs	r0, {}	; <UNPREDICTABLE>
     7e0:	6c000002 	stcvs	0, cr0, [r0], {2}
     7e4:	01000002 	tsteq	r0, r2
     7e8:	026c5300 	rsbeq	r5, ip, #0, 6
     7ec:	02700000 	rsbseq	r0, r0, #0
     7f0:	00030000 	andeq	r0, r3, r0
     7f4:	709f0173 	addsvc	r0, pc, r3, ror r1	; <UNPREDICTABLE>
     7f8:	84000002 	strhi	r0, [r0], #-2
     7fc:	01000002 	tsteq	r0, r2
     800:	02a85300 	adceq	r5, r8, #0, 6
     804:	02b00000 	adcseq	r0, r0, #0
     808:	00010000 	andeq	r0, r1, r0
     80c:	00000053 	andeq	r0, r0, r3, asr r0
     810:	00000000 	andeq	r0, r0, r0
     814:	0002e400 	andeq	lr, r2, r0, lsl #8
     818:	0002ec00 	andeq	lr, r2, r0, lsl #24
     81c:	50000100 	andpl	r0, r0, r0, lsl #2
     820:	000002ec 	andeq	r0, r0, ip, ror #5
     824:	0000038c 	andeq	r0, r0, ip, lsl #7
     828:	01f30004 	mvnseq	r0, r4
     82c:	00009f50 	andeq	r9, r0, r0, asr pc
     830:	00000000 	andeq	r0, r0, r0
     834:	02e40000 	rsceq	r0, r4, #0
     838:	03300000 	teqeq	r0, #0
     83c:	00020000 	andeq	r0, r2, r0
     840:	03309f30 	teqeq	r0, #48, 30	; 0xc0
     844:	03600000 	cmneq	r0, #0
     848:	00010000 	andeq	r0, r1, r0
     84c:	00036050 	andeq	r6, r3, r0, asr r0
     850:	00036c00 	andeq	r6, r3, r0, lsl #24
     854:	70000500 	andvc	r0, r0, r0, lsl #10
     858:	9f47e080 	svcls	0x0047e080
	...
     864:	000002e4 	andeq	r0, r0, r4, ror #5
     868:	00000364 	andeq	r0, r0, r4, ror #6
     86c:	9f300002 	svcls	0x00300002
     870:	00000364 	andeq	r0, r0, r4, ror #6
     874:	0000038c 	andeq	r0, r0, ip, lsl #7
     878:	00770005 	rsbseq	r0, r7, r5
     87c:	009f2544 	addseq	r2, pc, r4, asr #10
     880:	00000000 	andeq	r0, r0, r0
     884:	e4000000 	str	r0, [r0], #-0
     888:	48000002 	stmdami	r0, {r1}
     88c:	02000003 	andeq	r0, r0, #3
     890:	009f3000 	addseq	r3, pc, r0
     894:	00000000 	andeq	r0, r0, r0
     898:	e4000000 	str	r0, [r0], #-0
     89c:	ec000002 	stc	0, cr0, [r0], {2}
     8a0:	01000002 	tsteq	r0, r2
     8a4:	02ec5000 	rsceq	r5, ip, #0
     8a8:	038c0000 	orreq	r0, ip, #0
     8ac:	00040000 	andeq	r0, r4, r0
     8b0:	9f5001f3 	svcls	0x005001f3
	...
     8bc:	000002e4 	andeq	r0, r0, r4, ror #5
     8c0:	00000308 	andeq	r0, r0, r8, lsl #6
     8c4:	9f300002 	svcls	0x00300002
     8c8:	00000308 	andeq	r0, r0, r8, lsl #6
     8cc:	0000038c 	andeq	r0, r0, ip, lsl #7
     8d0:	049e0006 	ldreq	r0, [lr], #6
     8d4:	f1c208b4 			; <UNDEFINED> instruction: 0xf1c208b4
	...
     8e0:	0000038c 	andeq	r0, r0, ip, lsl #7
     8e4:	000003cc 	andeq	r0, r0, ip, asr #7
     8e8:	cc500001 	mrrcgt	0, 0, r0, r0, cr1	; <UNPREDICTABLE>
     8ec:	ec000003 	stc	0, cr0, [r0], {3}
     8f0:	03000003 	movweq	r0, #3
     8f4:	9f7f7000 	svcls	0x007f7000
     8f8:	000003ec 	andeq	r0, r0, ip, ror #7
     8fc:	000003fc 	strdeq	r0, [r0], -ip
     900:	00500001 	subseq	r0, r0, r1
     904:	28000004 	stmdacs	r0, {r2}
     908:	01000004 	tsteq	r0, r4
     90c:	04285000 	strteq	r5, [r8], #-0
     910:	042c0000 	strteq	r0, [ip], #-0
     914:	00040000 	andeq	r0, r4, r0
     918:	9f5001f3 	svcls	0x005001f3
     91c:	0000042c 	andeq	r0, r0, ip, lsr #8
     920:	00000430 	andeq	r0, r0, r0, lsr r4
     924:	30500001 	subscc	r0, r0, r1
     928:	34000004 	strcc	r0, [r0], #-4
     92c:	04000004 	streq	r0, [r0], #-4
     930:	5001f300 	andpl	pc, r1, r0, lsl #6
     934:	0000009f 	muleq	r0, pc, r0	; <UNPREDICTABLE>
     938:	00000000 	andeq	r0, r0, r0
     93c:	0003cc00 	andeq	ip, r3, r0, lsl #24
     940:	00040000 	andeq	r0, r4, r0
     944:	51000100 	mrspl	r0, (UNDEF: 16)
	...
     950:	00000434 	andeq	r0, r0, r4, lsr r4
     954:	0000044c 	andeq	r0, r0, ip, asr #8
     958:	4c500001 	mrrcmi	0, 0, r0, r0, cr1	; <UNPREDICTABLE>
     95c:	50000004 	andpl	r0, r0, r4
     960:	04000004 	streq	r0, [r0], #-4
     964:	5001f300 	andpl	pc, r1, r0, lsl #6
     968:	0004509f 	muleq	r4, pc, r0	; <UNPREDICTABLE>
     96c:	00046c00 	andeq	r6, r4, r0, lsl #24
     970:	50000100 	andpl	r0, r0, r0, lsl #2
     974:	0000046c 	andeq	r0, r0, ip, ror #8
     978:	000004bc 			; <UNDEFINED> instruction: 0x000004bc
     97c:	01f30004 	mvnseq	r0, r4
     980:	04bc9f50 	ldrteq	r9, [ip], #3920	; 0xf50
     984:	04c00000 	strbeq	r0, [r0], #0
     988:	00010000 	andeq	r0, r1, r0
     98c:	0004c050 	andeq	ip, r4, r0, asr r0
     990:	0004c800 	andeq	ip, r4, r0, lsl #16
     994:	f3000400 	vshl.u8	d0, d0, d0
     998:	009f5001 	addseq	r5, pc, r1
     99c:	00000000 	andeq	r0, r0, r0
     9a0:	34000000 	strcc	r0, [r0], #-0
     9a4:	6c000004 	stcvs	0, cr0, [r0], {4}
     9a8:	02000004 	andeq	r0, r0, #4
     9ac:	6c9f3000 	ldcvs	0, cr3, [pc], {0}
     9b0:	98000004 	stmdals	r0, {r2}
     9b4:	01000004 	tsteq	r0, r4
     9b8:	04985000 	ldreq	r5, [r8], #0
     9bc:	04a00000 	strteq	r0, [r0], #0
     9c0:	00030000 	andeq	r0, r3, r0
     9c4:	a09f7f70 	addsge	r7, pc, r0, ror pc	; <UNPREDICTABLE>
     9c8:	b0000004 	andlt	r0, r0, r4
     9cc:	01000004 	tsteq	r0, r4
     9d0:	04b45000 	ldrteq	r5, [r4], #0
     9d4:	04b80000 	ldrteq	r0, [r8], #0
     9d8:	00010000 	andeq	r0, r1, r0
     9dc:	0004b850 	andeq	fp, r4, r0, asr r8
     9e0:	0004bc00 	andeq	fp, r4, r0, lsl #24
     9e4:	70000300 	andvc	r0, r0, r0, lsl #6
     9e8:	04bc9f7f 	ldrteq	r9, [ip], #3967	; 0xf7f
     9ec:	04c40000 	strbeq	r0, [r4], #0
     9f0:	00020000 	andeq	r0, r2, r0
     9f4:	04c49f30 	strbeq	r9, [r4], #3888	; 0xf30
     9f8:	04c80000 	strbeq	r0, [r8], #0
     9fc:	00030000 	andeq	r0, r3, r0
     a00:	009f7f70 	addseq	r7, pc, r0, ror pc	; <UNPREDICTABLE>
     a04:	00000000 	andeq	r0, r0, r0
     a08:	34000000 	strcc	r0, [r0], #-0
     a0c:	6c000004 	stcvs	0, cr0, [r0], {4}
     a10:	02000004 	andeq	r0, r0, #4
     a14:	bc9f3000 	ldclt	0, cr3, [pc], {0}
     a18:	c4000004 	strgt	r0, [r0], #-4
     a1c:	02000004 	andeq	r0, r0, #4
     a20:	009f3000 	addseq	r3, pc, r0
     a24:	00000000 	andeq	r0, r0, r0
     a28:	74000000 	strvc	r0, [r0], #-0
     a2c:	78000004 	stmdavc	r0, {r2}
     a30:	01000004 	tsteq	r0, r4
     a34:	04785300 	ldrbteq	r5, [r8], #-768	; 0xfffffd00
     a38:	047c0000 	ldrbteq	r0, [ip], #-0
     a3c:	00030000 	andeq	r0, r3, r0
     a40:	7c9f0173 	ldfvcs	f0, [pc], {115}	; 0x73
     a44:	90000004 	andls	r0, r0, r4
     a48:	01000004 	tsteq	r0, r4
     a4c:	04b45300 	ldrteq	r5, [r4], #768	; 0x300
     a50:	04bc0000 	ldrteq	r0, [ip], #0
     a54:	00010000 	andeq	r0, r1, r0
     a58:	00000053 	andeq	r0, r0, r3, asr r0
	...
     a64:	00002000 	andeq	r2, r0, r0
     a68:	50000100 	andpl	r0, r0, r0, lsl #2
     a6c:	00000020 	andeq	r0, r0, r0, lsr #32
     a70:	00000044 	andeq	r0, r0, r4, asr #32
     a74:	44550001 	ldrbmi	r0, [r5], #-1
     a78:	48000000 	stmdami	r0, {}	; <UNPREDICTABLE>
     a7c:	01000000 	mrseq	r0, (UNDEF: 0)
     a80:	00485000 	subeq	r5, r8, r0
     a84:	00700000 	rsbseq	r0, r0, r0
     a88:	00010000 	andeq	r0, r1, r0
     a8c:	00007055 	andeq	r7, r0, r5, asr r0
     a90:	0000a800 	andeq	sl, r0, r0, lsl #16
     a94:	50000100 	andpl	r0, r0, r0, lsl #2
     a98:	000000a8 	andeq	r0, r0, r8, lsr #1
     a9c:	000000cc 	andeq	r0, r0, ip, asr #1
     aa0:	00550001 	subseq	r0, r5, r1
	...
     aac:	20000000 	andcs	r0, r0, r0
     ab0:	01000000 	mrseq	r0, (UNDEF: 0)
     ab4:	00205100 	eoreq	r5, r0, r0, lsl #2
     ab8:	00cc0000 	sbceq	r0, ip, r0
     abc:	00010000 	andeq	r0, r1, r0
     ac0:	00000058 	andeq	r0, r0, r8, asr r0
	...
     acc:	00002000 	andeq	r2, r0, r0
     ad0:	52000100 	andpl	r0, r0, #0, 2
     ad4:	00000020 	andeq	r0, r0, r0, lsr #32
     ad8:	000000cc 	andeq	r0, r0, ip, asr #1
     adc:	00570001 	subseq	r0, r7, r1
     ae0:	00000000 	andeq	r0, r0, r0
     ae4:	44000000 	strmi	r0, [r0], #-0
     ae8:	48000000 	stmdami	r0, {}	; <UNPREDICTABLE>
     aec:	01000000 	mrseq	r0, (UNDEF: 0)
     af0:	00485300 	subeq	r5, r8, r0, lsl #6
     af4:	00740000 	rsbseq	r0, r4, r0
     af8:	00010000 	andeq	r0, r1, r0
     afc:	00007456 	andeq	r7, r0, r6, asr r4
     b00:	00008800 	andeq	r8, r0, r0, lsl #16
     b04:	53000100 	movwpl	r0, #256	; 0x100
     b08:	00000088 	andeq	r0, r0, r8, lsl #1
     b0c:	0000008c 	andeq	r0, r0, ip, lsl #1
     b10:	01760003 	cmneq	r6, r3
     b14:	0000009f 	muleq	r0, pc, r0	; <UNPREDICTABLE>
     b18:	00000000 	andeq	r0, r0, r0
     b1c:	0000cc00 	andeq	ip, r0, r0, lsl #24
     b20:	0000e800 	andeq	lr, r0, r0, lsl #16
     b24:	50000100 	andpl	r0, r0, r0, lsl #2
     b28:	000000e8 	andeq	r0, r0, r8, ror #1
     b2c:	00000118 	andeq	r0, r0, r8, lsl r1
     b30:	185c0001 	ldmdane	ip, {r0}^
     b34:	64000001 	strvs	r0, [r0], #-1
     b38:	04000001 	streq	r0, [r0], #-1
     b3c:	5001f300 	andpl	pc, r1, r0, lsl #6
     b40:	0000009f 	muleq	r0, pc, r0	; <UNPREDICTABLE>
     b44:	00000000 	andeq	r0, r0, r0
     b48:	0000cc00 	andeq	ip, r0, r0, lsl #24
     b4c:	0000e800 	andeq	lr, r0, r0, lsl #16
     b50:	51000100 	mrspl	r0, (UNDEF: 16)
     b54:	000000e8 	andeq	r0, r0, r8, ror #1
     b58:	00000164 	andeq	r0, r0, r4, ror #2
     b5c:	00560001 	subseq	r0, r6, r1
     b60:	00000000 	andeq	r0, r0, r0
     b64:	cc000000 	stcgt	0, cr0, [r0], {-0}
     b68:	e8000000 	stmda	r0, {}	; <UNPREDICTABLE>
     b6c:	01000000 	mrseq	r0, (UNDEF: 0)
     b70:	00e85200 	rsceq	r5, r8, r0, lsl #4
     b74:	01640000 	cmneq	r4, r0
     b78:	00010000 	andeq	r0, r1, r0
     b7c:	00000055 	andeq	r0, r0, r5, asr r0
     b80:	00000000 	andeq	r0, r0, r0
     b84:	00011000 	andeq	r1, r1, r0
     b88:	00013400 	andeq	r3, r1, r0, lsl #8
     b8c:	50000100 	andpl	r0, r0, r0, lsl #2
     b90:	00000134 	andeq	r0, r0, r4, lsr r1
     b94:	00000138 	andeq	r0, r0, r8, lsr r1
     b98:	385e0001 	ldmdacc	lr, {r0}^
     b9c:	3c000001 	stccc	0, cr0, [r0], {1}
     ba0:	03000001 	movweq	r0, #1
     ba4:	9f017e00 	svcls	0x00017e00
     ba8:	0000013c 	andeq	r0, r0, ip, lsr r1
     bac:	00000144 	andeq	r0, r0, r4, asr #2
     bb0:	7f7e0003 	svcvc	0x007e0003
     bb4:	0001449f 	muleq	r1, pc, r4	; <UNPREDICTABLE>
     bb8:	00015000 	andeq	r5, r1, r0
     bbc:	5e000100 	adfpls	f0, f0, f0
     bc0:	00000158 	andeq	r0, r0, r8, asr r1
     bc4:	00000164 	andeq	r0, r0, r4, ror #2
     bc8:	017e0003 	cmneq	lr, r3
     bcc:	0000009f 	muleq	r0, pc, r0	; <UNPREDICTABLE>
     bd0:	00000000 	andeq	r0, r0, r0
     bd4:	00011000 	andeq	r1, r1, r0
     bd8:	00012c00 	andeq	r2, r1, r0, lsl #24
     bdc:	74000300 	strvc	r0, [r0], #-768	; 0xfffffd00
     be0:	012c9f70 			; <UNDEFINED> instruction: 0x012c9f70
     be4:	01340000 	teqeq	r4, r0
     be8:	00010000 	andeq	r0, r1, r0
     bec:	00000054 	andeq	r0, r0, r4, asr r0
     bf0:	00000000 	andeq	r0, r0, r0
     bf4:	00011000 	andeq	r1, r1, r0
     bf8:	00011800 	andeq	r1, r1, r0, lsl #16
     bfc:	5c000100 	stfpls	f0, [r0], {-0}
     c00:	00000118 	andeq	r0, r0, r8, lsl r1
     c04:	0000011c 	andeq	r0, r0, ip, lsl r1
     c08:	017c0003 	cmneq	ip, r3
     c0c:	00011c9f 	muleq	r1, pc, ip	; <UNPREDICTABLE>
     c10:	00013400 	andeq	r3, r1, r0, lsl #8
     c14:	5c000100 	stfpls	f0, [r0], {-0}
	...
     c20:	00000164 	andeq	r0, r0, r4, ror #2
     c24:	00000180 	andeq	r0, r0, r0, lsl #3
     c28:	80500001 	subshi	r0, r0, r1
     c2c:	cc000001 	stcgt	0, cr0, [r0], {1}
     c30:	01000001 	tsteq	r0, r1
     c34:	01cc5c00 	biceq	r5, ip, r0, lsl #24
     c38:	01e00000 	mvneq	r0, r0
     c3c:	00010000 	andeq	r0, r1, r0
     c40:	0001e052 	andeq	lr, r1, r2, asr r0
     c44:	0001f800 	andeq	pc, r1, r0, lsl #16
     c48:	5c000100 	stfpls	f0, [r0], {-0}
     c4c:	00000240 	andeq	r0, r0, r0, asr #4
     c50:	00000258 	andeq	r0, r0, r8, asr r2
     c54:	005c0001 	subseq	r0, ip, r1
     c58:	00000000 	andeq	r0, r0, r0
     c5c:	64000000 	strvs	r0, [r0], #-0
     c60:	80000001 	andhi	r0, r0, r1
     c64:	01000001 	tsteq	r0, r1
     c68:	01805100 	orreq	r5, r0, r0, lsl #2
     c6c:	02580000 	subseq	r0, r8, #0
     c70:	00010000 	andeq	r0, r1, r0
     c74:	0000005e 	andeq	r0, r0, lr, asr r0
     c78:	00000000 	andeq	r0, r0, r0
     c7c:	00016400 	andeq	r6, r1, r0, lsl #8
     c80:	00019800 	andeq	r9, r1, r0, lsl #16
     c84:	30000200 	andcc	r0, r0, r0, lsl #4
     c88:	0001989f 	muleq	r1, pc, r8	; <UNPREDICTABLE>
     c8c:	0001a800 	andeq	sl, r1, r0, lsl #16
     c90:	31000200 	mrscc	r0, R8_usr
     c94:	0001a89f 	muleq	r1, pc, r8	; <UNPREDICTABLE>
     c98:	0001fc00 	andeq	pc, r1, r0, lsl #24
     c9c:	55000100 	strpl	r0, [r0, #-256]	; 0xffffff00
     ca0:	000001fc 	strdeq	r0, [r0], -ip
     ca4:	00000240 	andeq	r0, r0, r0, asr #4
     ca8:	31300019 	teqcc	r0, r9, lsl r0
     cac:	01f36491 			; <UNDEFINED> instruction: 0x01f36491
     cb0:	282d3050 	stmdacs	sp!, {r4, r6, ip, sp}
     cb4:	13160001 	tstne	r6, #1
     cb8:	305001f3 	ldrshcc	r0, [r0], #-19	; 0xffffffed
     cbc:	0001282a 	andeq	r2, r1, sl, lsr #16
     cc0:	409f1316 	addsmi	r1, pc, r6, lsl r3	; <UNPREDICTABLE>
     cc4:	58000002 	stmdapl	r0, {r1}
     cc8:	02000002 	andeq	r0, r0, #2
     ccc:	009f3000 	addseq	r3, pc, r0
     cd0:	00000000 	andeq	r0, r0, r0
     cd4:	a8000000 	stmdage	r0, {}	; <UNPREDICTABLE>
     cd8:	b8000001 	stmdalt	r0, {r0}
     cdc:	02000001 	andeq	r0, r0, #1
     ce0:	b89f3000 	ldmlt	pc, {ip, sp}	; <UNPREDICTABLE>
     ce4:	bc000001 	stclt	0, cr0, [r0], {1}
     ce8:	01000001 	tsteq	r0, r1
     cec:	01bc5600 			; <UNDEFINED> instruction: 0x01bc5600
     cf0:	01cc0000 	biceq	r0, ip, r0
     cf4:	00010000 	andeq	r0, r1, r0
     cf8:	0001cc51 	andeq	ip, r1, r1, asr ip
     cfc:	00020c00 	andeq	r0, r2, r0, lsl #24
     d00:	56000100 	strpl	r0, [r0], -r0, lsl #2
     d04:	0000020c 	andeq	r0, r0, ip, lsl #4
     d08:	00000214 	andeq	r0, r0, r4, lsl r2
     d0c:	00510001 	subseq	r0, r1, r1
     d10:	00000000 	andeq	r0, r0, r0
     d14:	f0000000 			; <UNDEFINED> instruction: 0xf0000000
     d18:	f4000001 	vst4.8	{d0-d3}, [r0], r1
     d1c:	02000001 	andeq	r0, r0, #1
     d20:	f49f3000 			; <UNDEFINED> instruction: 0xf49f3000
     d24:	0c000001 	stceq	0, cr0, [r0], {1}
     d28:	02000002 	andeq	r0, r0, #2
     d2c:	0c9f3100 	ldfeqs	f3, [pc], {0}
     d30:	14000002 	strne	r0, [r0], #-2
     d34:	01000002 	tsteq	r0, r2
     d38:	00005500 	andeq	r5, r0, r0, lsl #10
     d3c:	00000000 	andeq	r0, r0, r0
     d40:	02580000 	subseq	r0, r8, #0
     d44:	02740000 	rsbseq	r0, r4, #0
     d48:	00020000 	andeq	r0, r2, r0
     d4c:	02747091 	rsbseq	r7, r4, #145	; 0x91
     d50:	02b40000 	adcseq	r0, r4, #0
     d54:	00010000 	andeq	r0, r1, r0
     d58:	0002b454 	andeq	fp, r2, r4, asr r4
     d5c:	0002c400 	andeq	ip, r2, r0, lsl #8
     d60:	74000300 	strvc	r0, [r0], #-768	; 0xfffffd00
     d64:	02d89f01 	sbcseq	r9, r8, #1, 30
     d68:	03680000 	cmneq	r8, #0
     d6c:	00010000 	andeq	r0, r1, r0
     d70:	00037054 	andeq	r7, r3, r4, asr r0
     d74:	00055400 	andeq	r5, r5, r0, lsl #8
     d78:	54000100 	strpl	r0, [r0], #-256	; 0xffffff00
	...
     d84:	00000258 	andeq	r0, r0, r8, asr r2
     d88:	00000294 	muleq	r0, r4, r2
     d8c:	70030006 	andvc	r0, r3, r6
     d90:	9f00002e 	svcls	0x0000002e
     d94:	00000294 	muleq	r0, r4, r2
     d98:	000002a4 	andeq	r0, r0, r4, lsr #5
     d9c:	a4550001 	ldrbge	r0, [r5], #-1
     da0:	b0000002 	andlt	r0, r0, r2
     da4:	03000002 	movweq	r0, #2
     da8:	9f017500 	svcls	0x00017500
     dac:	00000340 	andeq	r0, r0, r0, asr #6
     db0:	00000348 	andeq	r0, r0, r8, asr #6
     db4:	70030006 	andvc	r0, r3, r6
     db8:	9f00002e 	svcls	0x0000002e
     dbc:	00000358 	andeq	r0, r0, r8, asr r3
     dc0:	00000368 	andeq	r0, r0, r8, ror #6
     dc4:	dc550001 	mrrcle	0, 0, r0, r5, cr1
     dc8:	e0000003 	and	r0, r0, r3
     dcc:	01000003 	tsteq	r0, r3
     dd0:	042c5500 	strteq	r5, [ip], #-1280	; 0xfffffb00
     dd4:	04300000 	ldrteq	r0, [r0], #-0
     dd8:	00010000 	andeq	r0, r1, r0
     ddc:	00049c55 	andeq	r9, r4, r5, asr ip
     de0:	0004a000 	andeq	sl, r4, r0
     de4:	55000100 	strpl	r0, [r0, #-256]	; 0xffffff00
     de8:	00000508 	andeq	r0, r0, r8, lsl #10
     dec:	0000050c 	andeq	r0, r0, ip, lsl #10
     df0:	24550001 	ldrbcs	r0, [r5], #-1
     df4:	2c000005 	stccs	0, cr0, [r0], {5}
     df8:	03000005 	movweq	r0, #5
     dfc:	9f017500 	svcls	0x00017500
     e00:	0000052c 	andeq	r0, r0, ip, lsr #10
     e04:	0000053c 	andeq	r0, r0, ip, lsr r5
     e08:	00530001 	subseq	r0, r3, r1
     e0c:	00000000 	andeq	r0, r0, r0
     e10:	f4000000 	vst4.8	{d0-d3}, [r0], r0
     e14:	30000003 	andcc	r0, r0, r3
     e18:	01000004 	tsteq	r0, r4
     e1c:	00005000 	andeq	r5, r0, r0
     e20:	00000000 	andeq	r0, r0, r0
     e24:	02d80000 	sbcseq	r0, r8, #0
     e28:	03400000 	movteq	r0, #0
     e2c:	00010000 	andeq	r0, r1, r0
     e30:	00037059 	andeq	r7, r3, r9, asr r0
     e34:	00055400 	andeq	r5, r5, r0, lsl #8
     e38:	59000100 	stmdbpl	r0, {r8}
	...
     e44:	00000258 	andeq	r0, r0, r8, asr r2
     e48:	00000294 	muleq	r0, r4, r2
     e4c:	9f300002 	svcls	0x00300002
     e50:	00000340 	andeq	r0, r0, r0, asr #6
     e54:	00000348 	andeq	r0, r0, r8, asr #6
     e58:	9f300002 	svcls	0x00300002
     e5c:	000003c8 	andeq	r0, r0, r8, asr #7
     e60:	000003e0 	andeq	r0, r0, r0, ror #7
     e64:	88500001 	ldmdahi	r0, {r0}^
     e68:	a0000004 	andge	r0, r0, r4
     e6c:	01000004 	tsteq	r0, r4
     e70:	04f45000 	ldrbteq	r5, [r4], #0
     e74:	050c0000 	streq	r0, [ip, #-0]
     e78:	00010000 	andeq	r0, r1, r0
     e7c:	00000050 	andeq	r0, r0, r0, asr r0
     e80:	00000000 	andeq	r0, r0, r0
     e84:	00038c00 	andeq	r8, r3, r0, lsl #24
     e88:	0003e000 	andeq	lr, r3, r0
     e8c:	58000100 	stmdapl	r0, {r8}
     e90:	00000544 	andeq	r0, r0, r4, asr #10
     e94:	0000054c 	andeq	r0, r0, ip, asr #10
     e98:	00580001 	subseq	r0, r8, r1
     e9c:	00000000 	andeq	r0, r0, r0
     ea0:	8c000000 	stchi	0, cr0, [r0], {-0}
     ea4:	9c000003 	stcls	0, cr0, [r0], {3}
     ea8:	01000003 	tsteq	r0, r3
     eac:	039c5800 	orrseq	r5, ip, #0, 16
     eb0:	03a00000 	moveq	r0, #0
     eb4:	00010000 	andeq	r0, r1, r0
     eb8:	0003a053 	andeq	sl, r3, r3, asr r0
     ebc:	0003ac00 	andeq	sl, r3, r0, lsl #24
     ec0:	73000300 	movwvc	r0, #768	; 0x300
     ec4:	05449f7f 	strbeq	r9, [r4, #-3967]	; 0xfffff081
     ec8:	054c0000 	strbeq	r0, [ip, #-0]
     ecc:	00010000 	andeq	r0, r1, r0
     ed0:	00000058 	andeq	r0, r0, r8, asr r0
     ed4:	00000000 	andeq	r0, r0, r0
     ed8:	0003c800 	andeq	ip, r3, r0, lsl #16
     edc:	0003cc00 	andeq	ip, r3, r0, lsl #24
     ee0:	52000100 	andpl	r0, r0, #0, 2
     ee4:	000003cc 	andeq	r0, r0, ip, asr #7
     ee8:	000003e0 	andeq	r0, r0, r0, ror #7
     eec:	7f720003 	svcvc	0x00720003
     ef0:	0000009f 	muleq	r0, pc, r0	; <UNPREDICTABLE>
     ef4:	00000000 	andeq	r0, r0, r0
     ef8:	0003f400 	andeq	pc, r3, r0, lsl #8
     efc:	0003f800 	andeq	pc, r3, r0, lsl #16
     f00:	50000100 	andpl	r0, r0, r0, lsl #2
     f04:	000003f8 	strdeq	r0, [r0], -r8
     f08:	000003fc 	strdeq	r0, [r0], -ip
     f0c:	fc520001 	mrrc2	0, 0, r0, r2, cr1
     f10:	18000003 	stmdane	r0, {r0, r1}
     f14:	03000004 	movweq	r0, #4
     f18:	9f7f7200 	svcls	0x007f7200
	...
     f24:	000003f4 	strdeq	r0, [r0], -r4
     f28:	000003f8 	strdeq	r0, [r0], -r8
     f2c:	00550001 	subseq	r0, r5, r1
     f30:	00000000 	andeq	r0, r0, r0
     f34:	f4000000 	vst4.8	{d0-d3}, [r0], r0
     f38:	2c000003 	stccs	0, cr0, [r0], {3}
     f3c:	01000004 	tsteq	r0, r4
     f40:	00005500 	andeq	r5, r0, r0, lsl #10
     f44:	00000000 	andeq	r0, r0, r0
     f48:	04080000 	streq	r0, [r8], #-0
     f4c:	04180000 	ldreq	r0, [r8], #-0
     f50:	00010000 	andeq	r0, r1, r0
     f54:	00041850 	andeq	r1, r4, r0, asr r8
     f58:	00041c00 	andeq	r1, r4, r0, lsl #24
     f5c:	53000100 	movwpl	r0, #256	; 0x100
     f60:	0000041c 	andeq	r0, r0, ip, lsl r4
     f64:	00000424 	andeq	r0, r0, r4, lsr #8
     f68:	7f730003 	svcvc	0x00730003
     f6c:	0000009f 	muleq	r0, pc, r0	; <UNPREDICTABLE>
     f70:	00000000 	andeq	r0, r0, r0
     f74:	00044c00 	andeq	r4, r4, r0, lsl #24
     f78:	0004a000 	andeq	sl, r4, r0
     f7c:	58000100 	stmdapl	r0, {r8}
     f80:	0000054c 	andeq	r0, r0, ip, asr #10
     f84:	00000554 	andeq	r0, r0, r4, asr r5
     f88:	00580001 	subseq	r0, r8, r1
     f8c:	00000000 	andeq	r0, r0, r0
     f90:	4c000000 	stcmi	0, cr0, [r0], {-0}
     f94:	5c000004 	stcpl	0, cr0, [r0], {4}
     f98:	01000004 	tsteq	r0, r4
     f9c:	045c5800 	ldrbeq	r5, [ip], #-2048	; 0xfffff800
     fa0:	04600000 	strbteq	r0, [r0], #-0
     fa4:	00010000 	andeq	r0, r1, r0
     fa8:	00046053 	andeq	r6, r4, r3, asr r0
     fac:	00046c00 	andeq	r6, r4, r0, lsl #24
     fb0:	73000300 	movwvc	r0, #768	; 0x300
     fb4:	054c9f7f 	strbeq	r9, [ip, #-3967]	; 0xfffff081
     fb8:	05540000 	ldrbeq	r0, [r4, #-0]
     fbc:	00010000 	andeq	r0, r1, r0
     fc0:	00000058 	andeq	r0, r0, r8, asr r0
     fc4:	00000000 	andeq	r0, r0, r0
     fc8:	00048800 	andeq	r8, r4, r0, lsl #16
     fcc:	00048c00 	andeq	r8, r4, r0, lsl #24
     fd0:	52000100 	andpl	r0, r0, #0, 2
     fd4:	0000048c 	andeq	r0, r0, ip, lsl #9
     fd8:	000004a0 	andeq	r0, r0, r0, lsr #9
     fdc:	7f720003 	svcvc	0x00720003
     fe0:	0000009f 	muleq	r0, pc, r0	; <UNPREDICTABLE>
     fe4:	00000000 	andeq	r0, r0, r0
     fe8:	0004b800 	andeq	fp, r4, r0, lsl #16
     fec:	00050c00 	andeq	r0, r5, r0, lsl #24
     ff0:	58000100 	stmdapl	r0, {r8}
     ff4:	0000053c 	andeq	r0, r0, ip, lsr r5
     ff8:	00000544 	andeq	r0, r0, r4, asr #10
     ffc:	00580001 	subseq	r0, r8, r1
    1000:	00000000 	andeq	r0, r0, r0
    1004:	b8000000 	stmdalt	r0, {}	; <UNPREDICTABLE>
    1008:	c8000004 	stmdagt	r0, {r2}
    100c:	01000004 	tsteq	r0, r4
    1010:	04c85800 	strbeq	r5, [r8], #2048	; 0x800
    1014:	04cc0000 	strbeq	r0, [ip], #0
    1018:	00010000 	andeq	r0, r1, r0
    101c:	0004cc53 	andeq	ip, r4, r3, asr ip
    1020:	0004d800 	andeq	sp, r4, r0, lsl #16
    1024:	73000300 	movwvc	r0, #768	; 0x300
    1028:	053c9f7f 	ldreq	r9, [ip, #-3967]!	; 0xfffff081
    102c:	05440000 	strbeq	r0, [r4, #-0]
    1030:	00010000 	andeq	r0, r1, r0
    1034:	00000058 	andeq	r0, r0, r8, asr r0
    1038:	00000000 	andeq	r0, r0, r0
    103c:	0004f400 	andeq	pc, r4, r0, lsl #8
    1040:	0004f800 	andeq	pc, r4, r0, lsl #16
    1044:	52000100 	andpl	r0, r0, #0, 2
    1048:	000004f8 	strdeq	r0, [r0], -r8
    104c:	0000050c 	andeq	r0, r0, ip, lsl #10
    1050:	7f720003 	svcvc	0x00720003
    1054:	0000009f 	muleq	r0, pc, r0	; <UNPREDICTABLE>
    1058:	00000000 	andeq	r0, r0, r0
    105c:	00055400 	andeq	r5, r5, r0, lsl #8
    1060:	00057000 	andeq	r7, r5, r0
    1064:	91000200 	mrsls	r0, R8_usr
    1068:	00057070 	andeq	r7, r5, r0, ror r0
    106c:	0005b000 	andeq	fp, r5, r0
    1070:	54000100 	strpl	r0, [r0], #-256	; 0xffffff00
    1074:	000005b0 			; <UNDEFINED> instruction: 0x000005b0
    1078:	000005c0 	andeq	r0, r0, r0, asr #11
    107c:	01740003 	cmneq	r4, r3
    1080:	0005d49f 	muleq	r5, pc, r4	; <UNPREDICTABLE>
    1084:	00066400 	andeq	r6, r6, r0, lsl #8
    1088:	54000100 	strpl	r0, [r0], #-256	; 0xffffff00
    108c:	0000066c 	andeq	r0, r0, ip, ror #12
    1090:	00000850 	andeq	r0, r0, r0, asr r8
    1094:	00540001 	subseq	r0, r4, r1
    1098:	00000000 	andeq	r0, r0, r0
    109c:	54000000 	strpl	r0, [r0], #-0
    10a0:	90000005 	andls	r0, r0, r5
    10a4:	06000005 	streq	r0, [r0], -r5
    10a8:	2e700300 	cdpcs	3, 7, cr0, cr0, cr0, {0}
    10ac:	909f0000 	addsls	r0, pc, r0
    10b0:	a0000005 	andge	r0, r0, r5
    10b4:	01000005 	tsteq	r0, r5
    10b8:	05a05500 	streq	r5, [r0, #1280]!	; 0x500
    10bc:	05ac0000 	streq	r0, [ip, #0]!
    10c0:	00030000 	andeq	r0, r3, r0
    10c4:	3c9f0175 	ldfccs	f0, [pc], {117}	; 0x75
    10c8:	44000006 	strmi	r0, [r0], #-6
    10cc:	06000006 	streq	r0, [r0], -r6
    10d0:	2e700300 	cdpcs	3, 7, cr0, cr0, cr0, {0}
    10d4:	549f0000 	ldrpl	r0, [pc], #0	; 10dc <__save_processor_state+0x32c>
    10d8:	64000006 	strvs	r0, [r0], #-6
    10dc:	01000006 	tsteq	r0, r6
    10e0:	06d85500 	ldrbeq	r5, [r8], r0, lsl #10
    10e4:	06dc0000 	ldrbeq	r0, [ip], r0
    10e8:	00010000 	andeq	r0, r1, r0
    10ec:	00072855 	andeq	r2, r7, r5, asr r8
    10f0:	00072c00 	andeq	r2, r7, r0, lsl #24
    10f4:	55000100 	strpl	r0, [r0, #-256]	; 0xffffff00
    10f8:	00000798 	muleq	r0, r8, r7
    10fc:	0000079c 	muleq	r0, ip, r7
    1100:	04550001 	ldrbeq	r0, [r5], #-1
    1104:	08000008 	stmdaeq	r0, {r3}
    1108:	01000008 	tsteq	r0, r8
    110c:	08205500 	stmdaeq	r0!, {r8, sl, ip, lr}
    1110:	08280000 	stmdaeq	r8!, {}	; <UNPREDICTABLE>
    1114:	00030000 	andeq	r0, r3, r0
    1118:	289f0175 	ldmcs	pc, {r0, r2, r4, r5, r6, r8}	; <UNPREDICTABLE>
    111c:	38000008 	stmdacc	r0, {r3}
    1120:	01000008 	tsteq	r0, r8
    1124:	00005300 	andeq	r5, r0, r0, lsl #6
    1128:	00000000 	andeq	r0, r0, r0
    112c:	06f00000 	ldrbteq	r0, [r0], r0
    1130:	072c0000 	streq	r0, [ip, -r0]!
    1134:	00010000 	andeq	r0, r1, r0
    1138:	00000050 	andeq	r0, r0, r0, asr r0
    113c:	00000000 	andeq	r0, r0, r0
    1140:	0005d400 	andeq	sp, r5, r0, lsl #8
    1144:	00063c00 	andeq	r3, r6, r0, lsl #24
    1148:	59000100 	stmdbpl	r0, {r8}
    114c:	0000066c 	andeq	r0, r0, ip, ror #12
    1150:	00000850 	andeq	r0, r0, r0, asr r8
    1154:	00590001 	subseq	r0, r9, r1
    1158:	00000000 	andeq	r0, r0, r0
    115c:	54000000 	strpl	r0, [r0], #-0
    1160:	90000005 	andls	r0, r0, r5
    1164:	02000005 	andeq	r0, r0, #5
    1168:	3c9f3000 	ldccc	0, cr3, [pc], {0}
    116c:	44000006 	strmi	r0, [r0], #-6
    1170:	02000006 	andeq	r0, r0, #6
    1174:	c49f3000 	ldrgt	r3, [pc], #0	; 117c <__save_processor_state+0x3cc>
    1178:	dc000006 	stcle	0, cr0, [r0], {6}
    117c:	01000006 	tsteq	r0, r6
    1180:	07845000 	streq	r5, [r4, r0]
    1184:	079c0000 	ldreq	r0, [ip, r0]
    1188:	00010000 	andeq	r0, r1, r0
    118c:	0007f050 	andeq	pc, r7, r0, asr r0	; <UNPREDICTABLE>
    1190:	00080800 	andeq	r0, r8, r0, lsl #16
    1194:	50000100 	andpl	r0, r0, r0, lsl #2
	...
    11a0:	00000688 	andeq	r0, r0, r8, lsl #13
    11a4:	000006dc 	ldrdeq	r0, [r0], -ip
    11a8:	40580001 	subsmi	r0, r8, r1
    11ac:	48000008 	stmdami	r0, {r3}
    11b0:	01000008 	tsteq	r0, r8
    11b4:	00005800 	andeq	r5, r0, r0, lsl #16
    11b8:	00000000 	andeq	r0, r0, r0
    11bc:	06880000 	streq	r0, [r8], r0
    11c0:	06980000 	ldreq	r0, [r8], r0
    11c4:	00010000 	andeq	r0, r1, r0
    11c8:	00069858 	andeq	r9, r6, r8, asr r8
    11cc:	00069c00 	andeq	r9, r6, r0, lsl #24
    11d0:	53000100 	movwpl	r0, #256	; 0x100
    11d4:	0000069c 	muleq	r0, ip, r6
    11d8:	000006a8 	andeq	r0, r0, r8, lsr #13
    11dc:	7f730003 	svcvc	0x00730003
    11e0:	0008409f 	muleq	r8, pc, r0	; <UNPREDICTABLE>
    11e4:	00084800 	andeq	r4, r8, r0, lsl #16
    11e8:	58000100 	stmdapl	r0, {r8}
	...
    11f4:	000006c4 	andeq	r0, r0, r4, asr #13
    11f8:	000006c8 	andeq	r0, r0, r8, asr #13
    11fc:	c8520001 	ldmdagt	r2, {r0}^
    1200:	dc000006 	stcle	0, cr0, [r0], {6}
    1204:	03000006 	movweq	r0, #6
    1208:	9f7f7200 	svcls	0x007f7200
	...
    1214:	000006f0 	strdeq	r0, [r0], -r0	; <UNPREDICTABLE>
    1218:	000006f4 	strdeq	r0, [r0], -r4
    121c:	f4500001 			; <UNDEFINED> instruction: 0xf4500001
    1220:	f8000006 			; <UNDEFINED> instruction: 0xf8000006
    1224:	01000006 	tsteq	r0, r6
    1228:	06f85200 	ldrbteq	r5, [r8], r0, lsl #4
    122c:	07140000 	ldreq	r0, [r4, -r0]
    1230:	00030000 	andeq	r0, r3, r0
    1234:	009f7f72 	addseq	r7, pc, r2, ror pc	; <UNPREDICTABLE>
    1238:	00000000 	andeq	r0, r0, r0
    123c:	f0000000 			; <UNDEFINED> instruction: 0xf0000000
    1240:	f4000006 	vst4.8	{d0-d3}, [r0], r6
    1244:	01000006 	tsteq	r0, r6
    1248:	00005500 	andeq	r5, r0, r0, lsl #10
    124c:	00000000 	andeq	r0, r0, r0
    1250:	06f00000 	ldrbteq	r0, [r0], r0
    1254:	07280000 	streq	r0, [r8, -r0]!
    1258:	00010000 	andeq	r0, r1, r0
    125c:	00000055 	andeq	r0, r0, r5, asr r0
    1260:	00000000 	andeq	r0, r0, r0
    1264:	00070400 	andeq	r0, r7, r0, lsl #8
    1268:	00071400 	andeq	r1, r7, r0, lsl #8
    126c:	50000100 	andpl	r0, r0, r0, lsl #2
    1270:	00000714 	andeq	r0, r0, r4, lsl r7
    1274:	00000718 	andeq	r0, r0, r8, lsl r7
    1278:	18530001 	ldmdane	r3, {r0}^
    127c:	20000007 	andcs	r0, r0, r7
    1280:	03000007 	movweq	r0, #7
    1284:	9f7f7300 	svcls	0x007f7300
	...
    1290:	00000748 	andeq	r0, r0, r8, asr #14
    1294:	0000079c 	muleq	r0, ip, r7
    1298:	48580001 	ldmdami	r8, {r0}^
    129c:	50000008 	andpl	r0, r0, r8
    12a0:	01000008 	tsteq	r0, r8
    12a4:	00005800 	andeq	r5, r0, r0, lsl #16
    12a8:	00000000 	andeq	r0, r0, r0
    12ac:	07480000 	strbeq	r0, [r8, -r0]
    12b0:	07580000 	ldrbeq	r0, [r8, -r0]
    12b4:	00010000 	andeq	r0, r1, r0
    12b8:	00075858 	andeq	r5, r7, r8, asr r8
    12bc:	00075c00 	andeq	r5, r7, r0, lsl #24
    12c0:	53000100 	movwpl	r0, #256	; 0x100
    12c4:	0000075c 	andeq	r0, r0, ip, asr r7
    12c8:	00000768 	andeq	r0, r0, r8, ror #14
    12cc:	7f730003 	svcvc	0x00730003
    12d0:	0008489f 	muleq	r8, pc, r8	; <UNPREDICTABLE>
    12d4:	00085000 	andeq	r5, r8, r0
    12d8:	58000100 	stmdapl	r0, {r8}
	...
    12e4:	00000784 	andeq	r0, r0, r4, lsl #15
    12e8:	00000788 	andeq	r0, r0, r8, lsl #15
    12ec:	88520001 	ldmdahi	r2, {r0}^
    12f0:	9c000007 	stcls	0, cr0, [r0], {7}
    12f4:	03000007 	movweq	r0, #7
    12f8:	9f7f7200 	svcls	0x007f7200
	...
    1304:	000007b4 			; <UNDEFINED> instruction: 0x000007b4
    1308:	00000808 	andeq	r0, r0, r8, lsl #16
    130c:	38580001 	ldmdacc	r8, {r0}^
    1310:	40000008 	andmi	r0, r0, r8
    1314:	01000008 	tsteq	r0, r8
    1318:	00005800 	andeq	r5, r0, r0, lsl #16
    131c:	00000000 	andeq	r0, r0, r0
    1320:	07b40000 	ldreq	r0, [r4, r0]!
    1324:	07c40000 	strbeq	r0, [r4, r0]
    1328:	00010000 	andeq	r0, r1, r0
    132c:	0007c458 	andeq	ip, r7, r8, asr r4
    1330:	0007c800 	andeq	ip, r7, r0, lsl #16
    1334:	53000100 	movwpl	r0, #256	; 0x100
    1338:	000007c8 	andeq	r0, r0, r8, asr #15
    133c:	000007d4 	ldrdeq	r0, [r0], -r4
    1340:	7f730003 	svcvc	0x00730003
    1344:	0008389f 	muleq	r8, pc, r8	; <UNPREDICTABLE>
    1348:	00084000 	andeq	r4, r8, r0
    134c:	58000100 	stmdapl	r0, {r8}
	...
    1358:	000007f0 	strdeq	r0, [r0], -r0	; <UNPREDICTABLE>
    135c:	000007f4 	strdeq	r0, [r0], -r4
    1360:	f4520001 			; <UNDEFINED> instruction: 0xf4520001
    1364:	08000007 	stmdaeq	r0, {r0, r1, r2}
    1368:	03000008 	movweq	r0, #8
    136c:	9f7f7200 	svcls	0x007f7200
	...
    1378:	0000000c 	andeq	r0, r0, ip
    137c:	0000003c 	andeq	r0, r0, ip, lsr r0
    1380:	3c500001 	mrrccc	0, 0, r0, r0, cr1	; <UNPREDICTABLE>
    1384:	54000000 	strpl	r0, [r0], #-0
    1388:	01000000 	mrseq	r0, (UNDEF: 0)
    138c:	00585000 	subseq	r5, r8, r0
    1390:	005c0000 	subseq	r0, ip, r0
    1394:	00010000 	andeq	r0, r1, r0
    1398:	00005c50 	andeq	r5, r0, r0, asr ip
    139c:	00006000 	andeq	r6, r0, r0
    13a0:	f3000400 	vshl.u8	d0, d0, d0
    13a4:	009f5001 	addseq	r5, pc, r1
    13a8:	00000000 	andeq	r0, r0, r0
    13ac:	0c000000 	stceq	0, cr0, [r0], {-0}
    13b0:	1c000000 	stcne	0, cr0, [r0], {-0}
    13b4:	01000000 	mrseq	r0, (UNDEF: 0)
    13b8:	001c5100 	andseq	r5, ip, r0, lsl #2
    13bc:	00580000 	subseq	r0, r8, r0
    13c0:	00040000 	andeq	r0, r4, r0
    13c4:	9f5101f3 	svcls	0x005101f3
    13c8:	00000058 	andeq	r0, r0, r8, asr r0
    13cc:	00000060 	andeq	r0, r0, r0, rrx
    13d0:	00510001 	subseq	r0, r1, r1
    13d4:	00000000 	andeq	r0, r0, r0
    13d8:	0c000000 	stceq	0, cr0, [r0], {-0}
    13dc:	1c000000 	stcne	0, cr0, [r0], {-0}
    13e0:	01000000 	mrseq	r0, (UNDEF: 0)
    13e4:	001c5100 	andseq	r5, ip, r0, lsl #2
    13e8:	00200000 	eoreq	r0, r0, r0
    13ec:	00050000 	andeq	r0, r5, r0
    13f0:	24310071 	ldrtcs	r0, [r1], #-113	; 0xffffff8f
    13f4:	0000209f 	muleq	r0, pc, r0	; <UNPREDICTABLE>
    13f8:	00002400 	andeq	r2, r0, r0, lsl #8
    13fc:	51000100 	mrspl	r0, (UNDEF: 16)
    1400:	0000002c 	andeq	r0, r0, ip, lsr #32
    1404:	00000060 	andeq	r0, r0, r0, rrx
    1408:	00510001 	subseq	r0, r1, r1
    140c:	00000000 	andeq	r0, r0, r0
    1410:	0c000000 	stceq	0, cr0, [r0], {-0}
    1414:	2c000000 	stccs	0, cr0, [r0], {-0}
    1418:	02000000 	andeq	r0, r0, #0
    141c:	2c9f3000 	ldccs	0, cr3, [pc], {0}
    1420:	58000000 	stmdapl	r0, {}	; <UNPREDICTABLE>
    1424:	01000000 	mrseq	r0, (UNDEF: 0)
    1428:	00585200 	subseq	r5, r8, r0, lsl #4
    142c:	00600000 	rsbeq	r0, r0, r0
    1430:	00020000 	andeq	r0, r2, r0
    1434:	00009f30 	andeq	r9, r0, r0, lsr pc
    1438:	00000000 	andeq	r0, r0, r0
    143c:	000c0000 	andeq	r0, ip, r0
    1440:	001c0000 	andseq	r0, ip, r0
    1444:	00020000 	andeq	r0, r2, r0
    1448:	001c9f30 	andseq	r9, ip, r0, lsr pc
    144c:	00280000 	eoreq	r0, r8, r0
    1450:	00010000 	andeq	r0, r1, r0
    1454:	00002c53 	andeq	r2, r0, r3, asr ip
    1458:	00003800 	andeq	r3, r0, r0, lsl #16
    145c:	53000100 	movwpl	r0, #256	; 0x100
    1460:	00000038 	andeq	r0, r0, r8, lsr r0
    1464:	0000004c 	andeq	r0, r0, ip, asr #32
    1468:	01730003 	cmneq	r3, r3
    146c:	00004c9f 	muleq	r0, pc, ip	; <UNPREDICTABLE>
    1470:	00005800 	andeq	r5, r0, r0, lsl #16
    1474:	53000100 	movwpl	r0, #256	; 0x100
    1478:	00000058 	andeq	r0, r0, r8, asr r0
    147c:	00000060 	andeq	r0, r0, r0, rrx
    1480:	9f300002 	svcls	0x00300002
	...
    1490:	00000028 	andeq	r0, r0, r8, lsr #32
    1494:	9f300002 	svcls	0x00300002
    1498:	00000028 	andeq	r0, r0, r8, lsr #32
    149c:	0000002c 	andeq	r0, r0, ip, lsr #32
    14a0:	80730007 	rsbshi	r0, r3, r7
    14a4:	00f1dfdd 	ldrsbteq	sp, [r1], #253	; 0xfd
    14a8:	00002c9f 	muleq	r0, pc, ip	; <UNPREDICTABLE>
    14ac:	00003800 	andeq	r3, r0, r0, lsl #16
    14b0:	73000700 	movwvc	r0, #1792	; 0x700
    14b4:	f1dfdd84 			; <UNDEFINED> instruction: 0xf1dfdd84
    14b8:	00489f00 	subeq	r9, r8, r0, lsl #30
    14bc:	004c0000 	subeq	r0, ip, r0
    14c0:	00070000 	andeq	r0, r7, r0
    14c4:	dfdb8073 	svcle	0x00db8073
    14c8:	4c9f00f1 	ldcmi	0, cr0, [pc], {241}	; 0xf1
    14cc:	58000000 	stmdapl	r0, {}	; <UNPREDICTABLE>
    14d0:	07000000 	streq	r0, [r0, -r0]
    14d4:	db847300 	blle	fe11e0dc <__bss_end+0xfe11af60>
    14d8:	9f00f1df 	svcls	0x0000f1df
    14dc:	00000064 	andeq	r0, r0, r4, rrx
    14e0:	0000007f 	andeq	r0, r0, pc, ror r0
    14e4:	88510001 	ldmdahi	r1, {r0}^
    14e8:	90000000 	andls	r0, r0, r0
    14ec:	01000000 	mrseq	r0, (UNDEF: 0)
    14f0:	00005100 	andeq	r5, r0, r0, lsl #2
    14f4:	00000000 	andeq	r0, r0, r0
    14f8:	00900000 	addseq	r0, r0, r0
    14fc:	00b00000 	adcseq	r0, r0, r0
    1500:	00020000 	andeq	r0, r2, r0
    1504:	00b09f30 	adcseq	r9, r0, r0, lsr pc
    1508:	00b80000 	adcseq	r0, r8, r0
    150c:	000e0000 	andeq	r0, lr, r0
    1510:	70030073 	andvc	r0, r3, r3, ror r0
    1514:	0600002f 	streq	r0, [r0], -pc, lsr #32
    1518:	01000a1c 	tsteq	r0, ip, lsl sl
    151c:	00b89f1c 	adcseq	r9, r8, ip, lsl pc
    1520:	00cc0000 	sbceq	r0, ip, r0
    1524:	000e0000 	andeq	r0, lr, r0
    1528:	70030073 	andvc	r0, r3, r3, ror r0
    152c:	0600002f 	streq	r0, [r0], -pc, lsr #32
    1530:	01040a1c 	tsteq	r4, ip, lsl sl
    1534:	00009f1c 	andeq	r9, r0, ip, lsl pc
    1538:	00000000 	andeq	r0, r0, r0
    153c:	00e00000 	rsceq	r0, r0, r0
    1540:	01180000 	tsteq	r8, r0
    1544:	00010000 	andeq	r0, r1, r0
    1548:	00011850 	andeq	r1, r1, r0, asr r8
    154c:	00012c00 	andeq	r2, r1, r0, lsl #24
    1550:	f3000400 	vshl.u8	d0, d0, d0
    1554:	009f5001 	addseq	r5, pc, r1
    1558:	00000000 	andeq	r0, r0, r0
    155c:	e8000000 	stmda	r0, {}	; <UNPREDICTABLE>
    1560:	fc000000 	stc2	0, cr0, [r0], {-0}
    1564:	01000000 	mrseq	r0, (UNDEF: 0)
    1568:	00fc5100 	rscseq	r5, ip, r0, lsl #2
    156c:	01180000 	tsteq	r8, r0
    1570:	00050000 	andeq	r0, r5, r0
    1574:	25350070 	ldrcs	r0, [r5, #-112]!	; 0xffffff90
    1578:	0001189f 	muleq	r1, pc, r8	; <UNPREDICTABLE>
    157c:	00012c00 	andeq	r2, r1, r0, lsl #24
    1580:	f3000600 	vmax.u8	d0, d0, d0
    1584:	25355001 	ldrcs	r5, [r5, #-1]!
    1588:	0000009f 	muleq	r0, pc, r0	; <UNPREDICTABLE>
    158c:	00000000 	andeq	r0, r0, r0
    1590:	00010800 	andeq	r0, r1, r0, lsl #16
    1594:	00012400 	andeq	r2, r1, r0, lsl #8
    1598:	53000100 	movwpl	r0, #256	; 0x100
    159c:	00000124 	andeq	r0, r0, r4, lsr #2
    15a0:	0000012c 	andeq	r0, r0, ip, lsr #2
    15a4:	01f30006 	mvnseq	r0, r6
    15a8:	9f1a4f50 	svcls	0x001a4f50
	...
    15b4:	0000012c 	andeq	r0, r0, ip, lsr #2
    15b8:	00000148 	andeq	r0, r0, r8, asr #2
    15bc:	48500001 	ldmdami	r0, {r0}^
    15c0:	80000001 	andhi	r0, r0, r1
    15c4:	04000001 	streq	r0, [r0], #-1
    15c8:	5001f300 	andpl	pc, r1, r0, lsl #6
    15cc:	0000009f 	muleq	r0, pc, r0	; <UNPREDICTABLE>
    15d0:	00000000 	andeq	r0, r0, r0
    15d4:	00012c00 	andeq	r2, r1, r0, lsl #24
    15d8:	00016800 	andeq	r6, r1, r0, lsl #16
    15dc:	30000200 	andcc	r0, r0, r0, lsl #4
    15e0:	0001689f 	muleq	r1, pc, r8	; <UNPREDICTABLE>
    15e4:	00016c00 	andeq	r6, r1, r0, lsl #24
    15e8:	31000800 	tstcc	r0, r0, lsl #16
    15ec:	73240070 			; <UNDEFINED> instruction: 0x73240070
    15f0:	789f1a00 	ldmvc	pc, {r9, fp, ip}	; <UNPREDICTABLE>
    15f4:	80000001 	andhi	r0, r0, r1
    15f8:	02000001 	andeq	r0, r0, #1
    15fc:	009f3000 	addseq	r3, pc, r0
    1600:	00000000 	andeq	r0, r0, r0
    1604:	40000000 	andmi	r0, r0, r0
    1608:	54000001 	strpl	r0, [r0], #-1
    160c:	01000001 	tsteq	r0, r1
    1610:	01545200 	cmpeq	r4, r0, lsl #4
    1614:	01780000 	cmneq	r8, r0
    1618:	00060000 	andeq	r0, r6, r0
    161c:	355001f3 	ldrbcc	r0, [r0, #-499]	; 0xfffffe0d
    1620:	01789f25 	cmneq	r8, r5, lsr #30
    1624:	01800000 	orreq	r0, r0, r0
    1628:	00010000 	andeq	r0, r1, r0
    162c:	00000052 	andeq	r0, r0, r2, asr r0
    1630:	00000000 	andeq	r0, r0, r0
    1634:	00014800 	andeq	r4, r1, r0, lsl #16
    1638:	00017000 	andeq	r7, r1, r0
    163c:	50000100 	andpl	r0, r0, r0, lsl #2
    1640:	00000170 	andeq	r0, r0, r0, ror r1
    1644:	00000178 	andeq	r0, r0, r8, ror r1
    1648:	01f30006 	mvnseq	r0, r6
    164c:	9f1a4f50 	svcls	0x001a4f50
    1650:	00000178 	andeq	r0, r0, r8, ror r1
    1654:	0000017c 	andeq	r0, r0, ip, ror r1
    1658:	7c500001 	mrrcvc	0, 0, r0, r0, cr1	; <UNPREDICTABLE>
    165c:	80000001 	andhi	r0, r0, r1
    1660:	06000001 	streq	r0, [r0], -r1
    1664:	5001f300 	andpl	pc, r1, r0, lsl #6
    1668:	009f1a4f 	addseq	r1, pc, pc, asr #20
	...
    1674:	0c000000 	stceq	0, cr0, [r0], {-0}
    1678:	01000000 	mrseq	r0, (UNDEF: 0)
    167c:	000c5000 	andeq	r5, ip, r0
    1680:	00140000 	andseq	r0, r4, r0
    1684:	00030000 	andeq	r0, r3, r0
    1688:	149f0470 	ldrne	r0, [pc], #1136	; 1690 <serial_init_nommu+0x54>
    168c:	2c000000 	stccs	0, cr0, [r0], {-0}
    1690:	04000000 	streq	r0, [r0], #-0
    1694:	5001f300 	andpl	pc, r1, r0, lsl #6
    1698:	0000009f 	muleq	r0, pc, r0	; <UNPREDICTABLE>
	...
    16a4:	00001400 	andeq	r1, r0, r0, lsl #8
    16a8:	30000200 	andcc	r0, r0, r0, lsl #4
    16ac:	0000009f 	muleq	r0, pc, r0	; <UNPREDICTABLE>
    16b0:	00000000 	andeq	r0, r0, r0
    16b4:	00002c00 	andeq	r2, r0, r0, lsl #24
    16b8:	00003800 	andeq	r3, r0, r0, lsl #16
    16bc:	50000100 	andpl	r0, r0, r0, lsl #2
    16c0:	00000038 	andeq	r0, r0, r8, lsr r0
    16c4:	00000040 	andeq	r0, r0, r0, asr #32
    16c8:	04700003 	ldrbteq	r0, [r0], #-3
    16cc:	0000409f 	muleq	r0, pc, r0	; <UNPREDICTABLE>
    16d0:	00005800 	andeq	r5, r0, r0, lsl #16
    16d4:	f3000400 	vshl.u8	d0, d0, d0
    16d8:	009f5001 	addseq	r5, pc, r1
    16dc:	00000000 	andeq	r0, r0, r0
    16e0:	2c000000 	stccs	0, cr0, [r0], {-0}
    16e4:	40000000 	andmi	r0, r0, r0
    16e8:	02000000 	andeq	r0, r0, #0
    16ec:	009f3000 	addseq	r3, pc, r0
	...
    16f8:	20000000 	andcs	r0, r0, r0
    16fc:	01000000 	mrseq	r0, (UNDEF: 0)
    1700:	00205000 	eoreq	r5, r0, r0
    1704:	00580000 	subseq	r0, r8, r0
    1708:	00010000 	andeq	r0, r1, r0
    170c:	00000052 	andeq	r0, r0, r2, asr r0
    1710:	00000000 	andeq	r0, r0, r0
    1714:	00005800 	andeq	r5, r0, r0, lsl #16
    1718:	00007000 	andeq	r7, r0, r0
    171c:	50000100 	andpl	r0, r0, r0, lsl #2
    1720:	00000070 	andeq	r0, r0, r0, ror r0
    1724:	000000a0 	andeq	r0, r0, r0, lsr #1
    1728:	a0520001 	subsge	r0, r2, r1
    172c:	a8000000 	stmdage	r0, {}	; <UNPREDICTABLE>
    1730:	04000000 	streq	r0, [r0], #-0
    1734:	5001f300 	andpl	pc, r1, r0, lsl #6
    1738:	0000009f 	muleq	r0, pc, r0	; <UNPREDICTABLE>
    173c:	00000000 	andeq	r0, r0, r0
    1740:	00018c00 	andeq	r8, r1, r0, lsl #24
    1744:	0001b400 	andeq	fp, r1, r0, lsl #8
    1748:	50000100 	andpl	r0, r0, r0, lsl #2
    174c:	000001b4 			; <UNDEFINED> instruction: 0x000001b4
    1750:	000001e0 	andeq	r0, r0, r0, ror #3
    1754:	01f30004 	mvnseq	r0, r4
    1758:	00009f50 	andeq	r9, r0, r0, asr pc
	...
    1764:	00280000 	eoreq	r0, r8, r0
    1768:	00010000 	andeq	r0, r1, r0
    176c:	00002850 	andeq	r2, r0, r0, asr r8
    1770:	00003000 	andeq	r3, r0, r0
    1774:	f3000400 	vshl.u8	d0, d0, d0
    1778:	009f5001 	addseq	r5, pc, r1
    177c:	00000000 	andeq	r0, r0, r0
    1780:	40000000 	andmi	r0, r0, r0
    1784:	60000000 	andvs	r0, r0, r0
    1788:	01000000 	mrseq	r0, (UNDEF: 0)
    178c:	00605000 	rsbeq	r5, r0, r0
    1790:	007c0000 	rsbseq	r0, ip, r0
    1794:	00010000 	andeq	r0, r1, r0
    1798:	00000052 	andeq	r0, r0, r2, asr r0
    179c:	00000000 	andeq	r0, r0, r0
    17a0:	00007c00 	andeq	r7, r0, r0, lsl #24
    17a4:	00009400 	andeq	r9, r0, r0, lsl #8
    17a8:	50000100 	andpl	r0, r0, r0, lsl #2
    17ac:	00000094 	muleq	r0, r4, r0
    17b0:	000000a8 	andeq	r0, r0, r8, lsr #1
    17b4:	a8520001 	ldmdage	r2, {r0}^
    17b8:	b0000000 	andlt	r0, r0, r0
    17bc:	04000000 	streq	r0, [r0], #-0
    17c0:	5001f300 	andpl	pc, r1, r0, lsl #6
    17c4:	0000009f 	muleq	r0, pc, r0	; <UNPREDICTABLE>
    17c8:	00000000 	andeq	r0, r0, r0
    17cc:	0000b000 	andeq	fp, r0, r0
    17d0:	0000d800 	andeq	sp, r0, r0, lsl #16
    17d4:	50000100 	andpl	r0, r0, r0, lsl #2
    17d8:	000000d8 	ldrdeq	r0, [r0], -r8
    17dc:	00000124 	andeq	r0, r0, r4, lsr #2
    17e0:	24550001 	ldrbcs	r0, [r5], #-1
    17e4:	28000001 	stmdacs	r0, {r0}
    17e8:	01000001 	tsteq	r0, r1
    17ec:	01285000 			; <UNDEFINED> instruction: 0x01285000
    17f0:	012c0000 			; <UNDEFINED> instruction: 0x012c0000
    17f4:	00040000 	andeq	r0, r4, r0
    17f8:	9f5001f3 	svcls	0x005001f3
	...
    1804:	0000012c 	andeq	r0, r0, ip, lsr #2
    1808:	0000014c 	andeq	r0, r0, ip, asr #2
    180c:	4c500001 	mrrcmi	0, 0, r0, r0, cr1	; <UNPREDICTABLE>
    1810:	6c000001 	stcvs	0, cr0, [r0], {1}
    1814:	01000001 	tsteq	r0, r1
    1818:	016c5100 	cmneq	ip, r0, lsl #2
    181c:	01700000 	cmneq	r0, r0
    1820:	00010000 	andeq	r0, r1, r0
    1824:	00017050 	andeq	r7, r1, r0, asr r0
    1828:	00017400 	andeq	r7, r1, r0, lsl #8
    182c:	51000100 	mrspl	r0, (UNDEF: 16)
	...
    1838:	00000174 	andeq	r0, r0, r4, ror r1
    183c:	00000194 	muleq	r0, r4, r1
    1840:	94500001 	ldrbls	r0, [r0], #-1
    1844:	b4000001 	strlt	r0, [r0], #-1
    1848:	01000001 	tsteq	r0, r1
    184c:	01b45e00 			; <UNDEFINED> instruction: 0x01b45e00
    1850:	01e00000 	mvneq	r0, r0
    1854:	00040000 	andeq	r0, r4, r0
    1858:	9f5001f3 	svcls	0x005001f3
	...
    1864:	000001e0 	andeq	r0, r0, r0, ror #3
    1868:	00000200 	andeq	r0, r0, r0, lsl #4
    186c:	00500001 	subseq	r0, r0, r1
    1870:	30000002 	andcc	r0, r0, r2
    1874:	01000002 	tsteq	r0, r2
    1878:	00005300 	andeq	r5, r0, r0, lsl #6
    187c:	00000000 	andeq	r0, r0, r0
    1880:	02300000 	eorseq	r0, r0, #0
    1884:	02380000 	eorseq	r0, r8, #0
    1888:	00010000 	andeq	r0, r1, r0
    188c:	00023850 	andeq	r3, r2, r0, asr r8
    1890:	00029400 	andeq	r9, r2, r0, lsl #8
    1894:	51000100 	mrspl	r0, (UNDEF: 16)
    1898:	00000294 	muleq	r0, r4, r2
    189c:	000002c8 	andeq	r0, r0, r8, asr #5
    18a0:	01f30004 	mvnseq	r0, r4
    18a4:	00009f50 	andeq	r9, r0, r0, asr pc
    18a8:	00000000 	andeq	r0, r0, r0
    18ac:	02c80000 	sbceq	r0, r8, #0
    18b0:	02e80000 	rsceq	r0, r8, #0
    18b4:	00010000 	andeq	r0, r1, r0
    18b8:	0002e850 	andeq	lr, r2, r0, asr r8
    18bc:	00032800 	andeq	r2, r3, r0, lsl #16
    18c0:	52000100 	andpl	r0, r0, #0, 2
	...
    18cc:	00000328 	andeq	r0, r0, r8, lsr #6
    18d0:	00000388 	andeq	r0, r0, r8, lsl #7
    18d4:	9f310002 	svcls	0x00310002
    18d8:	00000388 	andeq	r0, r0, r8, lsl #7
    18dc:	0000039b 	muleq	r0, fp, r3
    18e0:	8d03000d 	stchi	0, cr0, [r3, #-52]	; 0xffffffcc
    18e4:	9400002f 	strls	r0, [r0], #-47	; 0xffffffd1
    18e8:	1aff0801 	bne	fffc38f4 <__bss_end+0xfffc0778>
    18ec:	9c9f0123 	ldflss	f0, [pc], {35}	; 0x23
    18f0:	a4000003 	strge	r0, [r0], #-3
    18f4:	02000003 	andeq	r0, r0, #3
    18f8:	009f3100 	addseq	r3, pc, r0, lsl #2
    18fc:	00000000 	andeq	r0, r0, r0
    1900:	28000000 	stmdacs	r0, {}	; <UNPREDICTABLE>
    1904:	88000003 	stmdahi	r0, {r0, r1}
    1908:	02000003 	andeq	r0, r0, #3
    190c:	889f3100 	ldmhi	pc, {r8, ip, sp}	; <UNPREDICTABLE>
    1910:	9b000003 	blls	1924 <serial_puts+0x3c>
    1914:	12000003 	andne	r0, r0, #3
    1918:	2f8c0300 	svccs	0x008c0300
    191c:	01940000 	orrseq	r0, r4, r0
    1920:	3224fe09 	eorcc	pc, r4, #9, 28	; 0x90
    1924:	1aff0826 	bne	fffc39c4 <__bss_end+0xfffc0848>
    1928:	9c9f0123 	ldflss	f0, [pc], {35}	; 0x23
    192c:	a4000003 	strge	r0, [r0], #-3
    1930:	02000003 	andeq	r0, r0, #3
    1934:	009f3100 	addseq	r3, pc, r0, lsl #2
    1938:	00000000 	andeq	r0, r0, r0
    193c:	28000000 	stmdacs	r0, {}	; <UNPREDICTABLE>
    1940:	88000003 	stmdahi	r0, {r0, r1}
    1944:	02000003 	andeq	r0, r0, #3
    1948:	889f3100 	ldmhi	pc, {r8, ip, sp}	; <UNPREDICTABLE>
    194c:	9b000003 	blls	1960 <serial_puts+0x78>
    1950:	0d000003 	stceq	0, cr0, [r0, #-12]
    1954:	2f8c0300 	svccs	0x008c0300
    1958:	01940000 	orrseq	r0, r4, r0
    195c:	231aff08 	tstcs	sl, #8, 30	; <UNPREDICTABLE>
    1960:	039c9f01 	orrseq	r9, ip, #1, 30
    1964:	03a40000 			; <UNDEFINED> instruction: 0x03a40000
    1968:	00020000 	andeq	r0, r2, r0
    196c:	00009f31 	andeq	r9, r0, r1, lsr pc
    1970:	00000000 	andeq	r0, r0, r0
    1974:	03280000 			; <UNDEFINED> instruction: 0x03280000
    1978:	03880000 	orreq	r0, r8, #0
    197c:	00020000 	andeq	r0, r2, r0
    1980:	03889f31 	orreq	r9, r8, #49, 30	; 0xc4
    1984:	039b0000 	orrseq	r0, fp, #0
    1988:	000d0000 	andeq	r0, sp, r0
    198c:	2f8e0331 	svccs	0x008e0331
    1990:	01940000 	orrseq	r0, r4, r0
    1994:	241aff08 	ldrcs	pc, [sl], #-3848	; 0xfffff0f8
    1998:	00039c9f 	muleq	r3, pc, ip	; <UNPREDICTABLE>
    199c:	0003a400 	andeq	sl, r3, r0, lsl #8
    19a0:	31000200 	mrscc	r0, R8_usr
    19a4:	0000009f 	muleq	r0, pc, r0	; <UNPREDICTABLE>
    19a8:	00000000 	andeq	r0, r0, r0
    19ac:	00032800 	andeq	r2, r3, r0, lsl #16
    19b0:	00033c00 	andeq	r3, r3, r0, lsl #24
    19b4:	30000200 	andcc	r0, r0, r0, lsl #4
    19b8:	00033c9f 	muleq	r3, pc, ip	; <UNPREDICTABLE>
    19bc:	00036c00 	andeq	r6, r3, r0, lsl #24
    19c0:	51000100 	mrspl	r0, (UNDEF: 16)
    19c4:	0000036c 	andeq	r0, r0, ip, ror #6
    19c8:	00000384 	andeq	r0, r0, r4, lsl #7
    19cc:	00720008 	rsbseq	r0, r2, r8
    19d0:	3224f209 	eorcc	pc, r4, #-1879048192	; 0x90000000
    19d4:	03849f25 	orreq	r9, r4, #37, 30	; 0x94
    19d8:	039b0000 	orrseq	r0, fp, #0
    19dc:	000c0000 	andeq	r0, ip, r0
    19e0:	002f8803 	eoreq	r8, pc, r3, lsl #16
    19e4:	f2090600 	vmax.s8	d0, d9, d0
    19e8:	9f253224 	svcls	0x00253224
    19ec:	0000039c 	muleq	r0, ip, r3
    19f0:	000003a4 	andeq	r0, r0, r4, lsr #7
    19f4:	00510001 	subseq	r0, r1, r1
    19f8:	00000000 	andeq	r0, r0, r0
    19fc:	28000000 	stmdacs	r0, {}	; <UNPREDICTABLE>
    1a00:	a0000003 	andge	r0, r0, r3
    1a04:	02000003 	andeq	r0, r0, #3
    1a08:	a09f3000 	addsge	r3, pc, r0
    1a0c:	a4000003 	strge	r0, [r0], #-3
    1a10:	01000003 	tsteq	r0, r3
    1a14:	00005000 	andeq	r5, r0, r0
    1a18:	00000000 	andeq	r0, r0, r0
	...

Disassembly of section .debug_frame:

00000000 <.debug_frame>:
   0:	0000000c 	andeq	r0, r0, ip
   4:	ffffffff 			; <UNDEFINED> instruction: 0xffffffff
   8:	7c020001 	stcvc	0, cr0, [r2], {1}
   c:	000d0c0e 	andeq	r0, sp, lr, lsl #24
  10:	0000000c 	andeq	r0, r0, ip
  14:	00000000 	andeq	r0, r0, r0
  18:	000000e0 	andeq	r0, r0, r0, ror #1
  1c:	0000002c 	andeq	r0, r0, ip, lsr #32
  20:	0000000c 	andeq	r0, r0, ip
  24:	ffffffff 			; <UNDEFINED> instruction: 0xffffffff
  28:	7c020001 	stcvc	0, cr0, [r2], {1}
  2c:	000d0c0e 	andeq	r0, sp, lr, lsl #24
  30:	00000018 	andeq	r0, r0, r8, lsl r0
  34:	00000020 	andeq	r0, r0, r0, lsr #32
  38:	00000134 	andeq	r0, r0, r4, lsr r1
  3c:	0000014c 	andeq	r0, r0, ip, asr #2
  40:	84100e42 	ldrhi	r0, [r0], #-3650	; 0xfffff1be
  44:	86038504 	strhi	r8, [r3], -r4, lsl #10
  48:	00018e02 	andeq	r8, r1, r2, lsl #28
  4c:	00000024 	andeq	r0, r0, r4, lsr #32
  50:	00000020 	andeq	r0, r0, r0, lsr #32
  54:	00000280 	andeq	r0, r0, r0, lsl #5
  58:	0000016c 	andeq	r0, r0, ip, ror #2
  5c:	84100e42 	ldrhi	r0, [r0], #-3650	; 0xfffff1be
  60:	86038504 	strhi	r8, [r3], -r4, lsl #10
  64:	02018e02 	andeq	r8, r1, #2, 28
  68:	c6ce0a7a 			; <UNDEFINED> instruction: 0xc6ce0a7a
  6c:	000ec4c5 	andeq	ip, lr, r5, asr #9
  70:	00000b42 	andeq	r0, r0, r2, asr #22
  74:	0000000c 	andeq	r0, r0, ip
  78:	ffffffff 			; <UNDEFINED> instruction: 0xffffffff
  7c:	7c020001 	stcvc	0, cr0, [r2], {1}
  80:	000d0c0e 	andeq	r0, sp, lr, lsl #24
  84:	00000014 	andeq	r0, r0, r4, lsl r0
  88:	00000074 	andeq	r0, r0, r4, ror r0
  8c:	000003ec 	andeq	r0, r0, ip, ror #7
  90:	00000020 	andeq	r0, r0, r0, lsr #32
  94:	4c080e42 	stcmi	14, cr0, [r8], {66}	; 0x42
  98:	0000000e 	andeq	r0, r0, lr
  9c:	0000000c 	andeq	r0, r0, ip
  a0:	00000074 	andeq	r0, r0, r4, ror r0
  a4:	0000040c 	andeq	r0, r0, ip, lsl #8
  a8:	00000004 	andeq	r0, r0, r4
  ac:	0000000c 	andeq	r0, r0, ip
  b0:	00000074 	andeq	r0, r0, r4, ror r0
  b4:	00000410 	andeq	r0, r0, r0, lsl r4
  b8:	00000004 	andeq	r0, r0, r4
  bc:	0000000c 	andeq	r0, r0, ip
  c0:	00000074 	andeq	r0, r0, r4, ror r0
  c4:	00000414 	andeq	r0, r0, r4, lsl r4
  c8:	00000004 	andeq	r0, r0, r4
  cc:	0000000c 	andeq	r0, r0, ip
  d0:	00000074 	andeq	r0, r0, r4, ror r0
  d4:	00000418 	andeq	r0, r0, r8, lsl r4
  d8:	00000004 	andeq	r0, r0, r4
  dc:	0000000c 	andeq	r0, r0, ip
  e0:	00000074 	andeq	r0, r0, r4, ror r0
  e4:	0000041c 	andeq	r0, r0, ip, lsl r4
  e8:	00000020 	andeq	r0, r0, r0, lsr #32
  ec:	0000000c 	andeq	r0, r0, ip
  f0:	00000074 	andeq	r0, r0, r4, ror r0
  f4:	0000043c 	andeq	r0, r0, ip, lsr r4
  f8:	00000004 	andeq	r0, r0, r4
  fc:	00000014 	andeq	r0, r0, r4, lsl r0
 100:	00000074 	andeq	r0, r0, r4, ror r0
 104:	00000440 	andeq	r0, r0, r0, asr #8
 108:	00000028 	andeq	r0, r0, r8, lsr #32
 10c:	50080e42 	andpl	r0, r8, r2, asr #28
 110:	0000000e 	andeq	r0, r0, lr
 114:	0000000c 	andeq	r0, r0, ip
 118:	00000074 	andeq	r0, r0, r4, ror r0
 11c:	00000468 	andeq	r0, r0, r8, ror #8
 120:	00000010 	andeq	r0, r0, r0, lsl r0
 124:	00000018 	andeq	r0, r0, r8, lsl r0
 128:	00000074 	andeq	r0, r0, r4, ror r0
 12c:	00000478 	andeq	r0, r0, r8, ror r4
 130:	00000038 	andeq	r0, r0, r8, lsr r0
 134:	84100e42 	ldrhi	r0, [r0], #-3650	; 0xfffff1be
 138:	86038504 	strhi	r8, [r3], -r4, lsl #10
 13c:	00018e02 	andeq	r8, r1, r2, lsl #28
 140:	00000014 	andeq	r0, r0, r4, lsl r0
 144:	00000074 	andeq	r0, r0, r4, ror r0
 148:	000004b0 			; <UNDEFINED> instruction: 0x000004b0
 14c:	0000001c 	andeq	r0, r0, ip, lsl r0
 150:	4a080e42 	bmi	203a60 <__bss_end+0x2008e4>
 154:	0000000e 	andeq	r0, r0, lr
 158:	00000014 	andeq	r0, r0, r4, lsl r0
 15c:	00000074 	andeq	r0, r0, r4, ror r0
 160:	000004cc 	andeq	r0, r0, ip, asr #9
 164:	0000001c 	andeq	r0, r0, ip, lsl r0
 168:	4a080e42 	bmi	203a78 <__bss_end+0x2008fc>
 16c:	0000000e 	andeq	r0, r0, lr
 170:	0000000c 	andeq	r0, r0, ip
 174:	00000074 	andeq	r0, r0, r4, ror r0
 178:	000004e8 	andeq	r0, r0, r8, ror #9
 17c:	00000018 	andeq	r0, r0, r8, lsl r0
 180:	0000000c 	andeq	r0, r0, ip
 184:	00000074 	andeq	r0, r0, r4, ror r0
 188:	00000500 	andeq	r0, r0, r0, lsl #10
 18c:	00000018 	andeq	r0, r0, r8, lsl r0
 190:	0000000c 	andeq	r0, r0, ip
 194:	00000074 	andeq	r0, r0, r4, ror r0
 198:	00000518 	andeq	r0, r0, r8, lsl r5
 19c:	00000018 	andeq	r0, r0, r8, lsl r0
 1a0:	00000018 	andeq	r0, r0, r8, lsl r0
 1a4:	00000074 	andeq	r0, r0, r4, ror r0
 1a8:	00000530 	andeq	r0, r0, r0, lsr r5
 1ac:	00000034 	andeq	r0, r0, r4, lsr r0
 1b0:	84100e42 	ldrhi	r0, [r0], #-3650	; 0xfffff1be
 1b4:	86038504 	strhi	r8, [r3], -r4, lsl #10
 1b8:	00018e02 	andeq	r8, r1, r2, lsl #28
 1bc:	0000000c 	andeq	r0, r0, ip
 1c0:	ffffffff 			; <UNDEFINED> instruction: 0xffffffff
 1c4:	7c020001 	stcvc	0, cr0, [r2], {1}
 1c8:	000d0c0e 	andeq	r0, sp, lr, lsl #24
 1cc:	0000000c 	andeq	r0, r0, ip
 1d0:	000001bc 			; <UNDEFINED> instruction: 0x000001bc
 1d4:	00000564 	andeq	r0, r0, r4, ror #10
 1d8:	00000034 	andeq	r0, r0, r4, lsr r0
 1dc:	0000000c 	andeq	r0, r0, ip
 1e0:	000001bc 			; <UNDEFINED> instruction: 0x000001bc
 1e4:	00000598 	muleq	r0, r8, r5
 1e8:	0000001c 	andeq	r0, r0, ip, lsl r0
 1ec:	0000000c 	andeq	r0, r0, ip
 1f0:	000001bc 			; <UNDEFINED> instruction: 0x000001bc
 1f4:	000005b4 			; <UNDEFINED> instruction: 0x000005b4
 1f8:	0000001c 	andeq	r0, r0, ip, lsl r0
 1fc:	0000000c 	andeq	r0, r0, ip
 200:	000001bc 			; <UNDEFINED> instruction: 0x000001bc
 204:	000005d0 	ldrdeq	r0, [r0], -r0	; <UNPREDICTABLE>
 208:	00000008 	andeq	r0, r0, r8
 20c:	0000000c 	andeq	r0, r0, ip
 210:	000001bc 			; <UNDEFINED> instruction: 0x000001bc
 214:	000005d8 	ldrdeq	r0, [r0], -r8
 218:	00000010 	andeq	r0, r0, r0, lsl r0
 21c:	00000014 	andeq	r0, r0, r4, lsl r0
 220:	000001bc 			; <UNDEFINED> instruction: 0x000001bc
 224:	000005e8 	andeq	r0, r0, r8, ror #11
 228:	00000030 	andeq	r0, r0, r0, lsr r0
 22c:	84080e42 	strhi	r0, [r8], #-3650	; 0xfffff1be
 230:	00018e02 	andeq	r8, r1, r2, lsl #28
 234:	00000018 	andeq	r0, r0, r8, lsl r0
 238:	000001bc 			; <UNDEFINED> instruction: 0x000001bc
 23c:	00000618 	andeq	r0, r0, r8, lsl r6
 240:	00000094 	muleq	r0, r4, r0
 244:	84100e42 	ldrhi	r0, [r0], #-3650	; 0xfffff1be
 248:	86038504 	strhi	r8, [r3], -r4, lsl #10
 24c:	00018e02 	andeq	r8, r1, r2, lsl #28
 250:	00000018 	andeq	r0, r0, r8, lsl r0
 254:	000001bc 			; <UNDEFINED> instruction: 0x000001bc
 258:	000006ac 	andeq	r0, r0, ip, lsr #13
 25c:	00000034 	andeq	r0, r0, r4, lsr r0
 260:	84080e44 	strhi	r0, [r8], #-3652	; 0xfffff1bc
 264:	54018e02 	strpl	r8, [r1], #-3586	; 0xfffff1fe
 268:	000ec4ce 	andeq	ip, lr, lr, asr #9
 26c:	0000000c 	andeq	r0, r0, ip
 270:	000001bc 			; <UNDEFINED> instruction: 0x000001bc
 274:	000006e0 	andeq	r0, r0, r0, ror #13
 278:	0000002c 	andeq	r0, r0, ip, lsr #32
 27c:	0000000c 	andeq	r0, r0, ip
 280:	000001bc 			; <UNDEFINED> instruction: 0x000001bc
 284:	0000070c 	andeq	r0, r0, ip, lsl #14
 288:	0000002c 	andeq	r0, r0, ip, lsr #32
 28c:	0000000c 	andeq	r0, r0, ip
 290:	000001bc 			; <UNDEFINED> instruction: 0x000001bc
 294:	00000738 	andeq	r0, r0, r8, lsr r7
 298:	0000002c 	andeq	r0, r0, ip, lsr #32
 29c:	0000000c 	andeq	r0, r0, ip
 2a0:	ffffffff 			; <UNDEFINED> instruction: 0xffffffff
 2a4:	7c020001 	stcvc	0, cr0, [r2], {1}
 2a8:	000d0c0e 	andeq	r0, sp, lr, lsl #24
 2ac:	0000000c 	andeq	r0, r0, ip
 2b0:	0000029c 	muleq	r0, ip, r2
 2b4:	00000780 	andeq	r0, r0, r0, lsl #15
 2b8:	0000003c 	andeq	r0, r0, ip, lsr r0
 2bc:	0000000c 	andeq	r0, r0, ip
 2c0:	0000029c 	muleq	r0, ip, r2
 2c4:	000007bc 			; <UNDEFINED> instruction: 0x000007bc
 2c8:	0000004c 	andeq	r0, r0, ip, asr #32
 2cc:	0000000c 	andeq	r0, r0, ip
 2d0:	0000029c 	muleq	r0, ip, r2
 2d4:	00000808 	andeq	r0, r0, r8, lsl #16
 2d8:	00000058 	andeq	r0, r0, r8, asr r0
 2dc:	0000000c 	andeq	r0, r0, ip
 2e0:	ffffffff 			; <UNDEFINED> instruction: 0xffffffff
 2e4:	7c020001 	stcvc	0, cr0, [r2], {1}
 2e8:	000d0c0e 	andeq	r0, sp, lr, lsl #24
 2ec:	0000000c 	andeq	r0, r0, ip
 2f0:	000002dc 	ldrdeq	r0, [r0], -ip
 2f4:	00000db0 			; <UNDEFINED> instruction: 0x00000db0
 2f8:	00000404 	andeq	r0, r0, r4, lsl #8
 2fc:	0000000c 	andeq	r0, r0, ip
 300:	000002dc 	ldrdeq	r0, [r0], -ip
 304:	000011b4 			; <UNDEFINED> instruction: 0x000011b4
 308:	000002c4 	andeq	r0, r0, r4, asr #5
 30c:	0000000c 	andeq	r0, r0, ip
 310:	000002dc 	ldrdeq	r0, [r0], -ip
 314:	00001478 	andeq	r1, r0, r8, ror r4
 318:	00000018 	andeq	r0, r0, r8, lsl r0
 31c:	0000000c 	andeq	r0, r0, ip
 320:	000002dc 	ldrdeq	r0, [r0], -ip
 324:	00001490 	muleq	r0, r0, r4
 328:	00000090 	muleq	r0, r0, r0
 32c:	0000000c 	andeq	r0, r0, ip
 330:	000002dc 	ldrdeq	r0, [r0], -ip
 334:	00001520 	andeq	r1, r0, r0, lsr #10
 338:	0000000c 	andeq	r0, r0, ip
 33c:	0000000c 	andeq	r0, r0, ip
 340:	000002dc 	ldrdeq	r0, [r0], -ip
 344:	0000152c 	andeq	r1, r0, ip, lsr #10
 348:	0000000c 	andeq	r0, r0, ip
 34c:	0000000c 	andeq	r0, r0, ip
 350:	000002dc 	ldrdeq	r0, [r0], -ip
 354:	00001538 	andeq	r1, r0, r8, lsr r5
 358:	00000014 	andeq	r0, r0, r4, lsl r0
 35c:	0000000c 	andeq	r0, r0, ip
 360:	000002dc 	ldrdeq	r0, [r0], -ip
 364:	0000154c 	andeq	r1, r0, ip, asr #10
 368:	00000010 	andeq	r0, r0, r0, lsl r0
 36c:	0000000c 	andeq	r0, r0, ip
 370:	ffffffff 			; <UNDEFINED> instruction: 0xffffffff
 374:	7c020001 	stcvc	0, cr0, [r2], {1}
 378:	000d0c0e 	andeq	r0, sp, lr, lsl #24
 37c:	00000018 	andeq	r0, r0, r8, lsl r0
 380:	0000036c 	andeq	r0, r0, ip, ror #6
 384:	0000155c 	andeq	r1, r0, ip, asr r5
 388:	000000ac 	andeq	r0, r0, ip, lsr #1
 38c:	84100e42 	ldrhi	r0, [r0], #-3650	; 0xfffff1be
 390:	86038504 	strhi	r8, [r3], -r4, lsl #10
 394:	00018e02 	andeq	r8, r1, r2, lsl #28
 398:	0000000c 	andeq	r0, r0, ip
 39c:	0000036c 	andeq	r0, r0, ip, ror #6
 3a0:	00001608 	andeq	r1, r0, r8, lsl #12
 3a4:	00000034 	andeq	r0, r0, r4, lsr r0
 3a8:	0000001c 	andeq	r0, r0, ip, lsl r0
 3ac:	0000036c 	andeq	r0, r0, ip, ror #6
 3b0:	0000163c 	andeq	r1, r0, ip, lsr r6
 3b4:	000000a0 	andeq	r0, r0, r0, lsr #1
 3b8:	84180e4a 	ldrhi	r0, [r8], #-3658	; 0xfffff1b6
 3bc:	86058506 	strhi	r8, [r5], -r6, lsl #10
 3c0:	88038704 	stmdahi	r3, {r2, r8, r9, sl, pc}
 3c4:	00018e02 	andeq	r8, r1, r2, lsl #28
 3c8:	00000018 	andeq	r0, r0, r8, lsl r0
 3cc:	0000036c 	andeq	r0, r0, ip, ror #6
 3d0:	000016dc 	ldrdeq	r1, [r0], -ip
 3d4:	000000a8 	andeq	r0, r0, r8, lsr #1
 3d8:	8e040e56 	mcrhi	14, 0, r0, cr4, cr6, {2}
 3dc:	000e7601 	andeq	r7, lr, r1, lsl #12
 3e0:	000000ce 	andeq	r0, r0, lr, asr #1
 3e4:	0000001c 	andeq	r0, r0, ip, lsl r0
 3e8:	0000036c 	andeq	r0, r0, ip, ror #6
 3ec:	00001784 	andeq	r1, r0, r4, lsl #15
 3f0:	00000094 	muleq	r0, r4, r0
 3f4:	8e040e56 	mcrhi	14, 0, r0, cr4, cr6, {2}
 3f8:	000e6e01 	andeq	r6, lr, r1, lsl #28
 3fc:	040e44ce 	streq	r4, [lr], #-1230	; 0xfffffb32
 400:	0000018e 	andeq	r0, r0, lr, lsl #3
 404:	0000000c 	andeq	r0, r0, ip
 408:	0000036c 	andeq	r0, r0, ip, ror #6
 40c:	00001818 	andeq	r1, r0, r8, lsl r8
 410:	00000014 	andeq	r0, r0, r4, lsl r0
 414:	0000000c 	andeq	r0, r0, ip
 418:	0000036c 	andeq	r0, r0, ip, ror #6
 41c:	0000182c 	andeq	r1, r0, ip, lsr #16
 420:	00000014 	andeq	r0, r0, r4, lsl r0
 424:	0000001c 	andeq	r0, r0, ip, lsl r0
 428:	0000036c 	andeq	r0, r0, ip, ror #6
 42c:	00001840 	andeq	r1, r0, r0, asr #16
 430:	000000a8 	andeq	r0, r0, r8, lsr #1
 434:	84180e4a 	ldrhi	r0, [r8], #-3658	; 0xfffff1b6
 438:	86058506 	strhi	r8, [r5], -r6, lsl #10
 43c:	88038704 	stmdahi	r3, {r2, r8, r9, sl, pc}
 440:	00018e02 	andeq	r8, r1, r2, lsl #28
 444:	00000018 	andeq	r0, r0, r8, lsl r0
 448:	0000036c 	andeq	r0, r0, ip, ror #6
 44c:	000018e8 	andeq	r1, r0, r8, ror #17
 450:	000000a8 	andeq	r0, r0, r8, lsr #1
 454:	8e040e56 	mcrhi	14, 0, r0, cr4, cr6, {2}
 458:	000e7601 	andeq	r7, lr, r1, lsl #12
 45c:	000000ce 	andeq	r0, r0, lr, asr #1
 460:	0000001c 	andeq	r0, r0, ip, lsl r0
 464:	0000036c 	andeq	r0, r0, ip, ror #6
 468:	00001990 	muleq	r0, r0, r9
 46c:	00000094 	muleq	r0, r4, r0
 470:	8e040e56 	mcrhi	14, 0, r0, cr4, cr6, {2}
 474:	000e6e01 	andeq	r6, lr, r1, lsl #28
 478:	040e44ce 	streq	r4, [lr], #-1230	; 0xfffffb32
 47c:	0000018e 	andeq	r0, r0, lr, lsl #3
 480:	0000000c 	andeq	r0, r0, ip
 484:	ffffffff 			; <UNDEFINED> instruction: 0xffffffff
 488:	7c020001 	stcvc	0, cr0, [r2], {1}
 48c:	000d0c0e 	andeq	r0, sp, lr, lsl #24
 490:	0000002c 	andeq	r0, r0, ip, lsr #32
 494:	00000480 	andeq	r0, r0, r0, lsl #9
 498:	00001a24 	andeq	r1, r0, r4, lsr #20
 49c:	000000cc 	andeq	r0, r0, ip, asr #1
 4a0:	841c0e48 	ldrhi	r0, [ip], #-3656	; 0xfffff1b8
 4a4:	86068507 	strhi	r8, [r6], -r7, lsl #10
 4a8:	88048705 	stmdahi	r4, {r0, r2, r8, r9, sl, pc}
 4ac:	8e028903 	cdphi	9, 0, cr8, cr2, cr3, {0}
 4b0:	480e4a01 	stmdami	lr, {r0, r9, fp, lr}
 4b4:	0e0a4602 	cfmadd32eq	mvax0, mvfx4, mvfx10, mvfx2
 4b8:	4a0b421c 	bmi	2d0d30 <__bss_end+0x2cdbb4>
 4bc:	00001c0e 	andeq	r1, r0, lr, lsl #24
 4c0:	00000024 	andeq	r0, r0, r4, lsr #32
 4c4:	00000480 	andeq	r0, r0, r0, lsl #9
 4c8:	00001af0 	strdeq	r1, [r0], -r0
 4cc:	00000098 	muleq	r0, r8, r0
 4d0:	84100e42 	ldrhi	r0, [r0], #-3650	; 0xfffff1be
 4d4:	86038504 	strhi	r8, [r3], -r4, lsl #10
 4d8:	4e018e02 	cdpmi	14, 0, cr8, cr1, cr2, {0}
 4dc:	0a74280e 	beq	1d0a51c <__bss_end+0x1d073a0>
 4e0:	0b42100e 	bleq	1084520 <__bss_end+0x10813a4>
 4e4:	00100e44 	andseq	r0, r0, r4, asr #28
 4e8:	00000024 	andeq	r0, r0, r4, lsr #32
 4ec:	00000480 	andeq	r0, r0, r0, lsl #9
 4f0:	00001b88 	andeq	r1, r0, r8, lsl #23
 4f4:	000000f4 	strdeq	r0, [r0], -r4
 4f8:	84100e42 	ldrhi	r0, [r0], #-3650	; 0xfffff1be
 4fc:	86038504 	strhi	r8, [r3], -r4, lsl #10
 500:	4a018e02 	bmi	63d10 <__bss_end+0x60b94>
 504:	6002380e 	andvs	r3, r2, lr, lsl #16
 508:	42100e0a 	andsmi	r0, r0, #10, 28	; 0xa0
 50c:	100e4a0b 	andne	r4, lr, fp, lsl #20
 510:	00000048 	andeq	r0, r0, r8, asr #32
 514:	00000480 	andeq	r0, r0, r0, lsl #9
 518:	00001c7c 	andeq	r1, r0, ip, ror ip
 51c:	000002fc 	strdeq	r0, [r0], -ip
 520:	80100e42 	andshi	r0, r0, r2, asr #28
 524:	82038104 	andhi	r8, r3, #4, 2
 528:	42018302 	andmi	r8, r1, #134217728	; 0x8000000
 52c:	0c84300e 	stceq	0, cr3, [r4], {14}
 530:	0a860b85 	beq	fe18334c <__bss_end+0xfe1801d0>
 534:	08880987 	stmeq	r8, {r0, r1, r2, r7, r8, fp}
 538:	068a0789 	streq	r0, [sl], r9, lsl #15
 53c:	0e42058e 	cdpeq	5, 4, cr0, cr2, cr14, {4}
 540:	0a800248 	beq	fe000e68 <__bss_end+0xfdffdcec>
 544:	ce42300e 	cdpgt	0, 4, cr3, cr2, cr14, {0}
 548:	c7c8c9ca 	strbgt	ip, [r8, sl, asr #19]
 54c:	0ec4c5c6 	cdpeq	5, 12, cr12, cr4, cr6, {6}
 550:	c2c34210 	sbcgt	r4, r3, #16, 4
 554:	000ec0c1 	andeq	ip, lr, r1, asr #1
 558:	00000b42 	andeq	r0, r0, r2, asr #22
 55c:	00000048 	andeq	r0, r0, r8, asr #32
 560:	00000480 	andeq	r0, r0, r0, lsl #9
 564:	00001f78 	andeq	r1, r0, r8, ror pc
 568:	000002fc 	strdeq	r0, [r0], -ip
 56c:	80100e42 	andshi	r0, r0, r2, asr #28
 570:	82038104 	andhi	r8, r3, #4, 2
 574:	42018302 	andmi	r8, r1, #134217728	; 0x8000000
 578:	0c84300e 	stceq	0, cr3, [r4], {14}
 57c:	0a860b85 	beq	fe183398 <__bss_end+0xfe18021c>
 580:	08880987 	stmeq	r8, {r0, r1, r2, r7, r8, fp}
 584:	068a0789 	streq	r0, [sl], r9, lsl #15
 588:	0e42058e 	cdpeq	5, 4, cr0, cr2, cr14, {4}
 58c:	0a800248 	beq	fe000eb4 <__bss_end+0xfdffdd38>
 590:	ce42300e 	cdpgt	0, 4, cr3, cr2, cr14, {0}
 594:	c7c8c9ca 	strbgt	ip, [r8, sl, asr #19]
 598:	0ec4c5c6 	cdpeq	5, 12, cr12, cr4, cr6, {6}
 59c:	c2c34210 	sbcgt	r4, r3, #16, 4
 5a0:	000ec0c1 	andeq	ip, lr, r1, asr #1
 5a4:	00000b42 	andeq	r0, r0, r2, asr #22
 5a8:	0000000c 	andeq	r0, r0, ip
 5ac:	ffffffff 			; <UNDEFINED> instruction: 0xffffffff
 5b0:	7c020001 	stcvc	0, cr0, [r2], {1}
 5b4:	000d0c0e 	andeq	r0, sp, lr, lsl #24
 5b8:	0000000c 	andeq	r0, r0, ip
 5bc:	000005a8 	andeq	r0, r0, r8, lsr #11
 5c0:	00002450 	andeq	r2, r0, r0, asr r4
 5c4:	0000000c 	andeq	r0, r0, ip
 5c8:	0000000c 	andeq	r0, r0, ip
 5cc:	000005a8 	andeq	r0, r0, r8, lsr #11
 5d0:	0000245c 	andeq	r2, r0, ip, asr r4
 5d4:	00000054 	andeq	r0, r0, r4, asr r0
 5d8:	0000000c 	andeq	r0, r0, ip
 5dc:	ffffffff 			; <UNDEFINED> instruction: 0xffffffff
 5e0:	7c020001 	stcvc	0, cr0, [r2], {1}
 5e4:	000d0c0e 	andeq	r0, sp, lr, lsl #24
 5e8:	00000018 	andeq	r0, r0, r8, lsl r0
 5ec:	000005d8 	ldrdeq	r0, [r0], -r8
 5f0:	000024b0 			; <UNDEFINED> instruction: 0x000024b0
 5f4:	00000090 	muleq	r0, r0, r0
 5f8:	84080e7a 	strhi	r0, [r8], #-3706	; 0xfffff186
 5fc:	4a018e02 	bmi	63e0c <__bss_end+0x60c90>
 600:	cec4000e 	cdpgt	0, 12, cr0, cr4, cr14, {0}
 604:	00000014 	andeq	r0, r0, r4, lsl r0
 608:	000005d8 	ldrdeq	r0, [r0], -r8
 60c:	00002540 	andeq	r2, r0, r0, asr #10
 610:	00000050 	andeq	r0, r0, r0, asr r0
 614:	62080e44 	andvs	r0, r8, #68, 28	; 0x440
 618:	0000000e 	andeq	r0, r0, lr
 61c:	0000000c 	andeq	r0, r0, ip
 620:	000005d8 	ldrdeq	r0, [r0], -r8
 624:	00002590 	muleq	r0, r0, r5
 628:	0000004c 	andeq	r0, r0, ip, asr #32
 62c:	0000000c 	andeq	r0, r0, ip
 630:	000005d8 	ldrdeq	r0, [r0], -r8
 634:	000025dc 	ldrdeq	r2, [r0], -ip
 638:	00000054 	andeq	r0, r0, r4, asr r0
 63c:	0000000c 	andeq	r0, r0, ip
 640:	ffffffff 			; <UNDEFINED> instruction: 0xffffffff
 644:	7c020001 	stcvc	0, cr0, [r2], {1}
 648:	000d0c0e 	andeq	r0, sp, lr, lsl #24
 64c:	0000000c 	andeq	r0, r0, ip
 650:	0000063c 	andeq	r0, r0, ip, lsr r6
 654:	00002630 	andeq	r2, r0, r0, lsr r6
 658:	0000002c 	andeq	r0, r0, ip, lsr #32
 65c:	0000000c 	andeq	r0, r0, ip
 660:	0000063c 	andeq	r0, r0, ip, lsr r6
 664:	0000265c 	andeq	r2, r0, ip, asr r6
 668:	0000002c 	andeq	r0, r0, ip, lsr #32
 66c:	0000000c 	andeq	r0, r0, ip
 670:	ffffffff 			; <UNDEFINED> instruction: 0xffffffff
 674:	7c020001 	stcvc	0, cr0, [r2], {1}
 678:	000d0c0e 	andeq	r0, sp, lr, lsl #24
 67c:	0000000c 	andeq	r0, r0, ip
 680:	0000066c 	andeq	r0, r0, ip, ror #12
 684:	00002688 	andeq	r2, r0, r8, lsl #13
 688:	00000058 	andeq	r0, r0, r8, asr r0
 68c:	0000000c 	andeq	r0, r0, ip
 690:	0000066c 	andeq	r0, r0, ip, ror #12
 694:	000026e0 	andeq	r2, r0, r0, ror #13
 698:	00000050 	andeq	r0, r0, r0, asr r0
 69c:	0000000c 	andeq	r0, r0, ip
 6a0:	0000066c 	andeq	r0, r0, ip, ror #12
 6a4:	00002730 	andeq	r2, r0, r0, lsr r7
 6a8:	00000034 	andeq	r0, r0, r4, lsr r0
 6ac:	0000000c 	andeq	r0, r0, ip
 6b0:	0000066c 	andeq	r0, r0, ip, ror #12
 6b4:	00002764 	andeq	r2, r0, r4, ror #14
 6b8:	00000028 	andeq	r0, r0, r8, lsr #32
 6bc:	0000000c 	andeq	r0, r0, ip
 6c0:	0000066c 	andeq	r0, r0, ip, ror #12
 6c4:	0000278c 	andeq	r2, r0, ip, lsl #15
 6c8:	00000048 	andeq	r0, r0, r8, asr #32
 6cc:	0000000c 	andeq	r0, r0, ip
 6d0:	0000066c 	andeq	r0, r0, ip, ror #12
 6d4:	000027d4 	ldrdeq	r2, [r0], -r4
 6d8:	00000040 	andeq	r0, r0, r0, asr #32
 6dc:	00000014 	andeq	r0, r0, r4, lsl r0
 6e0:	0000066c 	andeq	r0, r0, ip, ror #12
 6e4:	00002814 	andeq	r2, r0, r4, lsl r8
 6e8:	00000054 	andeq	r0, r0, r4, asr r0
 6ec:	8e040e4e 	cdphi	14, 0, cr0, cr4, cr14, {2}
 6f0:	00000001 	andeq	r0, r0, r1
 6f4:	0000000c 	andeq	r0, r0, ip
 6f8:	ffffffff 			; <UNDEFINED> instruction: 0xffffffff
 6fc:	7c020001 	stcvc	0, cr0, [r2], {1}
 700:	000d0c0e 	andeq	r0, sp, lr, lsl #24
 704:	0000000c 	andeq	r0, r0, ip
 708:	000006f4 	strdeq	r0, [r0], -r4
 70c:	00002868 	andeq	r2, r0, r8, ror #16
 710:	00000030 	andeq	r0, r0, r0, lsr r0
 714:	0000000c 	andeq	r0, r0, ip
 718:	000006f4 	strdeq	r0, [r0], -r4
 71c:	00002898 	muleq	r0, r8, r8
 720:	00000010 	andeq	r0, r0, r0, lsl r0
 724:	0000000c 	andeq	r0, r0, ip
 728:	000006f4 	strdeq	r0, [r0], -r4
 72c:	000028a8 	andeq	r2, r0, r8, lsr #17
 730:	0000003c 	andeq	r0, r0, ip, lsr r0
 734:	0000000c 	andeq	r0, r0, ip
 738:	000006f4 	strdeq	r0, [r0], -r4
 73c:	000028e4 	andeq	r2, r0, r4, ror #17
 740:	00000034 	andeq	r0, r0, r4, lsr r0
 744:	00000020 	andeq	r0, r0, r0, lsr #32
 748:	000006f4 	strdeq	r0, [r0], -r4
 74c:	00002918 	andeq	r2, r0, r8, lsl r9
 750:	0000007c 	andeq	r0, r0, ip, ror r0
 754:	84100e46 	ldrhi	r0, [r0], #-3654	; 0xfffff1ba
 758:	86038504 	strhi	r8, [r3], -r4, lsl #10
 75c:	74018e02 	strvc	r8, [r1], #-3586	; 0xfffff1fe
 760:	c5c4000e 	strbgt	r0, [r4, #14]
 764:	0000cec6 	andeq	ip, r0, r6, asr #29
 768:	00000018 	andeq	r0, r0, r8, lsl r0
 76c:	000006f4 	strdeq	r0, [r0], -r4
 770:	00002994 	muleq	r0, r4, r9
 774:	00000048 	andeq	r0, r0, r8, asr #32
 778:	8e040e4e 	cdphi	14, 0, cr0, cr4, cr14, {2}
 77c:	000e5201 	andeq	r5, lr, r1, lsl #4
 780:	000000ce 	andeq	r0, r0, lr, asr #1
 784:	00000018 	andeq	r0, r0, r8, lsl r0
 788:	000006f4 	strdeq	r0, [r0], -r4
 78c:	000029dc 	ldrdeq	r2, [r0], -ip
 790:	0000006c 	andeq	r0, r0, ip, rrx
 794:	84100e4a 	ldrhi	r0, [r0], #-3658	; 0xfffff1b6
 798:	86038504 	strhi	r8, [r3], -r4, lsl #10
 79c:	00018e02 	andeq	r8, r1, r2, lsl #28
 7a0:	00000014 	andeq	r0, r0, r4, lsl r0
 7a4:	000006f4 	strdeq	r0, [r0], -r4
 7a8:	00002a48 	andeq	r2, r0, r8, asr #20
 7ac:	00000050 	andeq	r0, r0, r0, asr r0
 7b0:	84080e4a 	strhi	r0, [r8], #-3658	; 0xfffff1b6
 7b4:	00018e02 	andeq	r8, r1, r2, lsl #28
 7b8:	00000014 	andeq	r0, r0, r4, lsl r0
 7bc:	000006f4 	strdeq	r0, [r0], -r4
 7c0:	00002a98 	muleq	r0, r8, sl
 7c4:	00000098 	muleq	r0, r8, r0
 7c8:	84080e4e 	strhi	r0, [r8], #-3662	; 0xfffff1b2
 7cc:	00018e02 	andeq	r8, r1, r2, lsl #28
 7d0:	0000000c 	andeq	r0, r0, ip
 7d4:	000006f4 	strdeq	r0, [r0], -r4
 7d8:	00002b30 	andeq	r2, r0, r0, lsr fp
 7dc:	00000060 	andeq	r0, r0, r0, rrx
 7e0:	0000001c 	andeq	r0, r0, ip, lsl r0
 7e4:	000006f4 	strdeq	r0, [r0], -r4
 7e8:	00002b90 	muleq	r0, r0, fp
 7ec:	0000007c 	andeq	r0, r0, ip, ror r0
 7f0:	840c0e5a 	strhi	r0, [ip], #-3674	; 0xfffff1a6
 7f4:	8e028503 	cfsh32hi	mvfx8, mvfx2, #3
 7f8:	c5ce5c01 	strbgt	r5, [lr, #3073]	; 0xc01
 7fc:	00000ec4 	andeq	r0, r0, r4, asr #29

Disassembly of section .debug_ranges:

00000000 <.debug_ranges>:
   0:	00000040 	andeq	r0, r0, r0, asr #32
   4:	00000050 	andeq	r0, r0, r0, asr r0
   8:	00000054 	andeq	r0, r0, r4, asr r0
   c:	00000058 	andeq	r0, r0, r8, asr r0
  10:	0000005c 	andeq	r0, r0, ip, asr r0
  14:	00000068 	andeq	r0, r0, r8, rrx
	...
  20:	000000c0 	andeq	r0, r0, r0, asr #1
  24:	000000c4 	andeq	r0, r0, r4, asr #1
  28:	000000d8 	ldrdeq	r0, [r0], -r8
  2c:	000000e0 	andeq	r0, r0, r0, ror #1
	...
  38:	000000e0 	andeq	r0, r0, r0, ror #1
  3c:	000000e4 	andeq	r0, r0, r4, ror #1
  40:	000000e8 	andeq	r0, r0, r8, ror #1
  44:	000000f0 	strdeq	r0, [r0], -r0	; <UNPREDICTABLE>
  48:	000000f4 	strdeq	r0, [r0], -r4
  4c:	00000104 	andeq	r0, r0, r4, lsl #2
  50:	00000110 	andeq	r0, r0, r0, lsl r1
  54:	0000011c 	andeq	r0, r0, ip, lsl r1
	...
  60:	00000144 	andeq	r0, r0, r4, asr #2
  64:	00000148 	andeq	r0, r0, r8, asr #2
  68:	0000014c 	andeq	r0, r0, ip, asr #2
  6c:	00000150 	andeq	r0, r0, r0, asr r1
  70:	00000178 	andeq	r0, r0, r8, ror r1
  74:	00000180 	andeq	r0, r0, r0, lsl #3
	...
  80:	000001a0 	andeq	r0, r0, r0, lsr #3
  84:	000001a8 	andeq	r0, r0, r8, lsr #3
  88:	000001ac 	andeq	r0, r0, ip, lsr #3
  8c:	000001b4 			; <UNDEFINED> instruction: 0x000001b4
  90:	000001f4 	strdeq	r0, [r0], -r4
  94:	00000218 	andeq	r0, r0, r8, lsl r2
	...
  a0:	0000024c 	andeq	r0, r0, ip, asr #4
  a4:	00000250 	andeq	r0, r0, r0, asr r2
  a8:	00000254 	andeq	r0, r0, r4, asr r2
  ac:	0000025c 	andeq	r0, r0, ip, asr r2
  b0:	00000268 	andeq	r0, r0, r8, ror #4
  b4:	0000028c 	andeq	r0, r0, ip, lsl #5
	...
  c0:	000002e4 	andeq	r0, r0, r4, ror #5
  c4:	000002e8 	andeq	r0, r0, r8, ror #5
  c8:	000002ec 	andeq	r0, r0, ip, ror #5
  cc:	000002f4 	strdeq	r0, [r0], -r4
  d0:	000002f8 	strdeq	r0, [r0], -r8
  d4:	00000300 	andeq	r0, r0, r0, lsl #6
  d8:	00000304 	andeq	r0, r0, r4, lsl #6
  dc:	00000308 	andeq	r0, r0, r8, lsl #6
  e0:	0000030c 	andeq	r0, r0, ip, lsl #6
  e4:	0000032c 	andeq	r0, r0, ip, lsr #6
	...
  f0:	000003ac 	andeq	r0, r0, ip, lsr #7
  f4:	000003b4 			; <UNDEFINED> instruction: 0x000003b4
  f8:	000003b8 			; <UNDEFINED> instruction: 0x000003b8
  fc:	000003c0 	andeq	r0, r0, r0, asr #7
 100:	00000400 	andeq	r0, r0, r0, lsl #8
 104:	00000424 	andeq	r0, r0, r4, lsr #8
	...
 110:	00000458 	andeq	r0, r0, r8, asr r4
 114:	0000045c 	andeq	r0, r0, ip, asr r4
 118:	00000460 	andeq	r0, r0, r0, ror #8
 11c:	00000468 	andeq	r0, r0, r8, ror #8
 120:	00000474 	andeq	r0, r0, r4, ror r4
 124:	00000498 	muleq	r0, r8, r4
	...
 130:	00000108 	andeq	r0, r0, r8, lsl #2
 134:	0000010c 	andeq	r0, r0, ip, lsl #2
 138:	00000110 	andeq	r0, r0, r0, lsl r1
 13c:	00000128 	andeq	r0, r0, r8, lsr #2
 140:	00000134 	andeq	r0, r0, r4, lsr r1
 144:	00000150 	andeq	r0, r0, r0, asr r1
 148:	00000158 	andeq	r0, r0, r8, asr r1
 14c:	0000015c 	andeq	r0, r0, ip, asr r1
	...
 158:	0000038c 	andeq	r0, r0, ip, lsl #7
 15c:	000003ac 	andeq	r0, r0, ip, lsr #7
 160:	00000544 	andeq	r0, r0, r4, asr #10
 164:	0000054c 	andeq	r0, r0, ip, asr #10
	...
 170:	0000044c 	andeq	r0, r0, ip, asr #8
 174:	0000046c 	andeq	r0, r0, ip, ror #8
 178:	0000054c 	andeq	r0, r0, ip, asr #10
 17c:	00000554 	andeq	r0, r0, r4, asr r5
	...
 188:	000004b8 			; <UNDEFINED> instruction: 0x000004b8
 18c:	000004d8 	ldrdeq	r0, [r0], -r8
 190:	0000053c 	andeq	r0, r0, ip, lsr r5
 194:	00000544 	andeq	r0, r0, r4, asr #10
	...
 1a0:	00000688 	andeq	r0, r0, r8, lsl #13
 1a4:	000006a8 	andeq	r0, r0, r8, lsr #13
 1a8:	00000840 	andeq	r0, r0, r0, asr #16
 1ac:	00000848 	andeq	r0, r0, r8, asr #16
	...
 1b8:	00000748 	andeq	r0, r0, r8, asr #14
 1bc:	00000768 	andeq	r0, r0, r8, ror #14
 1c0:	00000848 	andeq	r0, r0, r8, asr #16
 1c4:	00000850 	andeq	r0, r0, r0, asr r8
	...
 1d0:	000007b4 			; <UNDEFINED> instruction: 0x000007b4
 1d4:	000007d4 	ldrdeq	r0, [r0], -r4
 1d8:	00000838 	andeq	r0, r0, r8, lsr r8
 1dc:	00000840 	andeq	r0, r0, r0, asr #16
	...
